


ARM Macro Assembler    Page 1 Lab 7 prelab


    1 00000000                 TTL              Lab 7 prelab
    2 00000000         ;*******************************************************
                       *********
    3 00000000         ;
    4 00000000         ;BrainFuck Template
    5 00000000         ;
    6 00000000         ;-------------------------------------------------------
                       --------
    7 00000000         ;Keil Template for KL46
    8 00000000         ;R. W. Melton
    9 00000000         ;September 25, 2017
   10 00000000         ;*******************************************************
                       *********
   11 00000000         ;Assembler directives
   12 00000000                 THUMB
   14 00000000         ;*******************************************************
                       *********
   15 00000000         ;Include files
   16 00000000                 GET              MKL46Z4.s   ;Included by start.
                                                            s
   18 00000000         ;*******************************************************
                       *********
   19 00000000         ;EQUates
   20 00000000         
   21 00000000         ;Size of “memory” in BrainFuck
   22 00000000 00000BB8 
                       MEM_SIZE
                               EQU              3000
   23 00000000         
   24 00000000         ;String constants
   25 00000000 0000000D 
                       CR      EQU              0x0D
   26 00000000 0000000A 
                       LF      EQU              0x0A
   27 00000000 00000000 
                       Null    EQU              0x00
   28 00000000         
   29 00000000         ;-------------------------------------------------------
                       --------
   30 00000000         ;PORTx_PCRn (Port x pin control register n [for pin n])
   31 00000000         ;___->10-08:Pin mux control (select 0 to 8)
   32 00000000         ;Use provided PORT_PCR_MUX_SELECT_2_MASK
   33 00000000         ;-------------------------------------------------------
                       --------
   34 00000000         ;Port A
   36 00000000 01000200 
                       PORT_PCR_SET_PTA1_UART0_RX
                               EQU              (PORT_PCR_ISF_MASK :OR:       
                             PORT_PCR_MUX_SELECT_2_MASK)
   38 00000000 01000200 
                       PORT_PCR_SET_PTA2_UART0_TX
                               EQU              (PORT_PCR_ISF_MASK :OR:       
                             PORT_PCR_MUX_SELECT_2_MASK)
   39 00000000         ;-------------------------------------------------------
                       --------
   40 00000000         ;SIM_SCGC4
   41 00000000         ;1->10:UART0 clock gate control (enabled)
   42 00000000         ;Use provided SIM_SCGC4_UART0_MASK
   43 00000000         ;-------------------------------------------------------



ARM Macro Assembler    Page 2 Lab 7 prelab


                       --------
   44 00000000         ;SIM_SCGC5
   45 00000000         ;1->09:Port A clock gate control (enabled)
   46 00000000         ;Use provided SIM_SCGC5_PORTA_MASK
   47 00000000         ;-------------------------------------------------------
                       --------
   48 00000000         ;SIM_SOPT2
   49 00000000         ;01=27-26:UART0SRC=UART0 clock source select
   50 00000000         ;         (PLLFLLSEL determines MCGFLLCLK' or MCGPLLCLK/
                       2)
   51 00000000         ; 1=   16:PLLFLLSEL=PLL/FLL clock select (MCGPLLCLK/2)
   53 00000000 04000000 
                       SIM_SOPT2_UART0SRC_MCGPLLCLK
                               EQU              (1 << SIM_SOPT2_UART0SRC_SHIFT)
   55 00000000 04010000 
                       SIM_SOPT2_UART0_MCGPLLCLK_DIV2
                               EQU              (SIM_SOPT2_UART0SRC_MCGPLLCLK :
OR: SIM_SOPT2_PLLFLLSEL_MASK)
   56 00000000         ;-------------------------------------------------------
                       --------
   57 00000000         ;SIM_SOPT5
   58 00000000         ; 0->   16:UART0 open drain enable (disabled)
   59 00000000         ; 0->   02:UART0 receive data select (UART0_RX)
   60 00000000         ;00->01-00:UART0 transmit data select source (UART0_TX)
   64 00000000 00010007 
                       SIM_SOPT5_UART0_EXTERN_MASK_CLEAR
                               EQU              (SIM_SOPT5_UART0ODE_MASK :OR:  
                                SIM_SOPT5_UART0RXSRC_MASK :OR:               
                   SIM_SOPT5_UART0TXSRC_MASK)
   65 00000000         ;-------------------------------------------------------
                       --------
   66 00000000         ;UART0_BDH
   67 00000000         ;    0->  7:LIN break detect IE (disabled)
   68 00000000         ;    0->  6:RxD input active edge IE (disabled)
   69 00000000         ;    0->  5:Stop bit number select (1)
   70 00000000         ;00001->4-0:SBR[12:0] (UART0CLK / [9600 * (OSR + 1)]) 
   71 00000000         ;UART0CLK is MCGPLLCLK/2
   72 00000000         ;MCGPLLCLK is 96 MHz
   73 00000000         ;MCGPLLCLK/2 is 48 MHz
   74 00000000         ;SBR = 48 MHz / (9600 * 16) = 312.5 --> 312 = 0x138
   75 00000000 00000001 
                       UART0_BDH_9600
                               EQU              0x01
   76 00000000         ;-------------------------------------------------------
                       --------
   77 00000000         ;UART0_BDL
   78 00000000         ;0x38->7-0:SBR[7:0] (UART0CLK / [9600 * (OSR + 1)])
   79 00000000         ;UART0CLK is MCGPLLCLK/2
   80 00000000         ;MCGPLLCLK is 96 MHz
   81 00000000         ;MCGPLLCLK/2 is 48 MHz
   82 00000000         ;SBR = 48 MHz / (9600 * 16) = 312.5 --> 312 = 0x138
   83 00000000 00000038 
                       UART0_BDL_9600
                               EQU              0x38
   84 00000000         ;-------------------------------------------------------
                       --------
   85 00000000         ;UART0_C1
   86 00000000         ;0-->7:LOOPS=loops select (normal)
   87 00000000         ;0-->6:DOZEEN=doze enable (disabled)



ARM Macro Assembler    Page 3 Lab 7 prelab


   88 00000000         ;0-->5:RSRC=receiver source select (internal--no effect 
                       LOOPS=0)
   89 00000000         ;0-->4:M=9- or 8-bit mode select 
   90 00000000         ;        (1 start, 8 data [lsb first], 1 stop)
   91 00000000         ;0-->3:WAKE=receiver wakeup method select (idle)
   92 00000000         ;0-->2:IDLE=idle line type select (idle begins after sta
                       rt bit)
   93 00000000         ;0-->1:PE=parity enable (disabled)
   94 00000000         ;0-->0:PT=parity type (even parity--no effect PE=0)
   95 00000000 00000000 
                       UART0_C1_8N1
                               EQU              0x00
   96 00000000         ;-------------------------------------------------------
                       --------
   97 00000000         ;UART0_C2
   98 00000000         ;0-->7:TIE=transmit IE for TDRE (disabled)
   99 00000000         ;0-->6:TCIE=transmission complete IE for TC (disabled)
  100 00000000         ;0-->5:RIE=receiver IE for RDRF (disabled)
  101 00000000         ;0-->4:ILIE=idle line IE for IDLE (disabled)
  102 00000000         ;1-->3:TE=transmitter enable (enabled)
  103 00000000         ;1-->2:RE=receiver enable (enabled)
  104 00000000         ;0-->1:RWU=receiver wakeup control (normal)
  105 00000000         ;0-->0:SBK=send break (disabled, normal)
  106 00000000 0000000C 
                       UART0_C2_T_R
                               EQU              (UART0_C2_TE_MASK :OR: UART0_C2
_RE_MASK)
  107 00000000         ;-------------------------------------------------------
                       --------
  108 00000000         ;UART0_C3
  109 00000000         ;0-->7:R8T9=9th data bit for receiver (not used M=0)
  110 00000000         ;           10th data bit for transmitter (not used M10=
                       0)
  111 00000000         ;0-->6:R9T8=9th data bit for transmitter (not used M=0)
  112 00000000         ;           10th data bit for receiver (not used M10=0)
  113 00000000         ;0-->5:TXDIR=UART_TX pin direction in single-wire mode
  114 00000000         ;            (no effect LOOPS=0)
  115 00000000         ;0-->4:TXINV=transmit data inversion (not inverted)
  116 00000000         ;0-->3:ORIE=overrun IE for OR (disabled)
  117 00000000         ;0-->2:NEIE=noise error IE for NF (disabled)
  118 00000000         ;0-->1:FEIE=framing error IE for FE (disabled)
  119 00000000         ;0-->0:PEIE=parity error IE for PF (disabled)
  120 00000000 00000000 
                       UART0_C3_NO_TXINV
                               EQU              0x00
  121 00000000         ;-------------------------------------------------------
                       --------
  122 00000000         ;UART0_C4
  123 00000000         ;    0-->  7:MAEN1=match address mode enable 1 (disabled
                       )
  124 00000000         ;    0-->  6:MAEN2=match address mode enable 2 (disabled
                       )
  125 00000000         ;    0-->  5:M10=10-bit mode select (not selected)
  126 00000000         ;01111-->4-0:OSR=over sampling ratio (16)
  127 00000000         ;               = 1 + OSR for 3 <= OSR <= 31
  128 00000000         ;               = 16 for 0 <= OSR <= 2 (invalid values)
  129 00000000 0000000F 
                       UART0_C4_OSR_16
                               EQU              0x0F



ARM Macro Assembler    Page 4 Lab 7 prelab


  130 00000000 0000000F 
                       UART0_C4_NO_MATCH_OSR_16
                               EQU              UART0_C4_OSR_16
  131 00000000         ;-------------------------------------------------------
                       --------
  132 00000000         ;UART0_C5
  133 00000000         ;  0-->  7:TDMAE=transmitter DMA enable (disabled)
  134 00000000         ;  0-->  6:Reserved; read-only; always 0
  135 00000000         ;  0-->  5:RDMAE=receiver full DMA enable (disabled)
  136 00000000         ;000-->4-2:Reserved; read-only; always 0
  137 00000000         ;  0-->  1:BOTHEDGE=both edge sampling (rising edge only
                       )
  138 00000000         ;  0-->  0:RESYNCDIS=resynchronization disable (enabled)
                       
  139 00000000 00000000 
                       UART0_C5_NO_DMA_SSR_SYNC
                               EQU              0x00
  140 00000000         ;-------------------------------------------------------
                       --------
  141 00000000         ;UART0_S1
  142 00000000         ;0-->7:TDRE=transmit data register empty flag; read-only
                       
  143 00000000         ;0-->6:TC=transmission complete flag; read-only
  144 00000000         ;0-->5:RDRF=receive data register full flag; read-only
  145 00000000         ;1-->4:IDLE=idle line flag; write 1 to clear (clear)
  146 00000000         ;1-->3:OR=receiver overrun flag; write 1 to clear (clear
                       )
  147 00000000         ;1-->2:NF=noise flag; write 1 to clear (clear)
  148 00000000         ;1-->1:FE=framing error flag; write 1 to clear (clear)
  149 00000000         ;1-->0:PF=parity error flag; write 1 to clear (clear)
  150 00000000 0000001F 
                       UART0_S1_CLEAR_FLAGS
                               EQU              0x1F
  151 00000000         ;-------------------------------------------------------
                       --------
  152 00000000         ;UART0_S2
  153 00000000         ;1-->7:LBKDIF=LIN break detect interrupt flag (clear)
  154 00000000         ;             write 1 to clear
  155 00000000         ;1-->6:RXEDGIF=RxD pin active edge interrupt flag (clear
                       )
  156 00000000         ;              write 1 to clear
  157 00000000         ;0-->5:(reserved); read-only; always 0
  158 00000000         ;0-->4:RXINV=receive data inversion (disabled)
  159 00000000         ;0-->3:RWUID=receive wake-up idle detect
  160 00000000         ;0-->2:BRK13=break character generation length (10)
  161 00000000         ;0-->1:LBKDE=LIN break detect enable (disabled)
  162 00000000         ;0-->0:RAF=receiver active flag; read-only
  163 00000000 000000C0 
                       UART0_S2_NO_RXINV_BRK10_NO_LBKDETECT_CLEAR_FLAGS
                               EQU              0xC0
  164 00000000         ;-------------------------------------------------------
                       --------
  165 00000000         ;*******************************************************
                       *********
  166 00000000         ;Program
  167 00000000         ;Linker requires Reset_Handler
  168 00000000                 AREA             MyCode,CODE,READONLY
  169 00000000                 ENTRY
  170 00000000                 EXPORT           Reset_Handler



ARM Macro Assembler    Page 5 Lab 7 prelab


  171 00000000                 IMPORT           Startup
  172 00000000                 EXPORT           PutChar
  173 00000000                 EXPORT           Init_UART0_Polling
  174 00000000         Reset_Handler
                               PROC             {},{}
  175 00000000         main
  176 00000000         ;-------------------------------------------------------
                       --------
  177 00000000         ;Mask interrupts
  178 00000000 B672            CPSID            I
  179 00000002         ;KL46 system startup with 48-MHz system clock
  180 00000002 F7FF FFFE       BL               Startup
  181 00000006         ;-------------------------------------------------------
                       --------
  182 00000006         ;>>>>> begin main program code <<<<<            
  183 00000006 F7FF FFFE       BL               Init_UART0_Polling ;Initialize
  184 0000000A 4903            LDR              R1,=Memory
  185 0000000C 4803            LDR              R0,=MEM_SIZE
  186 0000000E 1842            ADDS             R2,R0,R1
  187 00000010 F7FF FFFE       BL               Clear_Mem
  188 00000014 E004            B                Start
  189 00000016 00 00 00000000 
              00000BB8         LTORG
  190 00000020 BF00    Start   NOP
  191 00000022         
  192 00000022         ;begin the program here: R1 always holds the current poi
                       nter, R0 is
  193 00000022         ;reserved for I/O into PutChar, PutStringSB, and GetChar
                       , and R2 is
  194 00000022         ;used for intermediate storage.
  195 00000022         
  196 00000022 1C89            ADDS             R1,R1,#2
  197 00000024 4291            CMP              R1,R2
  198 00000026 D301            BLO              C_0
  199 00000028 48BC            LDR              R0,=End_OF
  200 0000002A 4700            BX               R0
  201 0000002C BF00    C_0     NOP
  202 0000002E 7808            LDRB             R0,[R1,#0]
  203 00000030 3008            ADDS             R0,R0,#8
  204 00000032 7008            STRB             R0,[R1,#0]
  205 00000034 7808    W_0     LDRB             R0,[R1,#0]
  206 00000036 2800            CMP              R0,#0
  207 00000038 D000            BEQ              BE_0
  208 0000003A E001            B                A_0
  209 0000003C 48B8    BE_0    LDR              R0,=E_0
  210 0000003E 4700            BX               R0
  211 00000040 BF00    A_0     NOP
  212 00000042 2900            CMP              R1,#0
  213 00000044 D101            BNE              C_1
  214 00000046 48B7            LDR              R0,=End_UF
  215 00000048 4700            BX               R0
  216 0000004A 1E89    C_1     SUBS             R1,R1,#2
  217 0000004C 7808            LDRB             R0,[R1,#0]
  218 0000004E 1D00            ADDS             R0,R0,#4
  219 00000050 7008            STRB             R0,[R1,#0]
  220 00000052 1C49            ADDS             R1,R1,#1
  221 00000054 4291            CMP              R1,R2
  222 00000056 D301            BLO              C_2
  223 00000058 48B0            LDR              R0,=End_OF



ARM Macro Assembler    Page 6 Lab 7 prelab


  224 0000005A 4700            BX               R0
  225 0000005C BF00    C_2     NOP
  226 0000005E 7808            LDRB             R0,[R1,#0]
  227 00000060 1D80            ADDS             R0,R0,#6
  228 00000062 7008            STRB             R0,[R1,#0]
  229 00000064 1C49            ADDS             R1,R1,#1
  230 00000066 4291            CMP              R1,R2
  231 00000068 D301            BLO              C_3
  232 0000006A 48AC            LDR              R0,=End_OF
  233 0000006C 4700            BX               R0
  234 0000006E BF00    C_3     NOP
  235 00000070 7808            LDRB             R0,[R1,#0]
  236 00000072 1E40            SUBS             R0,R0,#1
  237 00000074 7008            STRB             R0,[R1,#0]
  238 00000076 48AE            LDR              R0,=W_0
  239 00000078 4700    B_0     BX               R0
  240 0000007A BF00    E_0     NOP
  241 0000007C 7808            LDRB             R0,[R1,#0]
  242 0000007E 1C40            ADDS             R0,R0,#1
  243 00000080 7008            STRB             R0,[R1,#0]
  244 00000082 2900            CMP              R1,#0
  245 00000084 D101            BNE              C_4
  246 00000086 48A7            LDR              R0,=End_UF
  247 00000088 4700            BX               R0
  248 0000008A 1E49    C_4     SUBS             R1,R1,#1
  249 0000008C 7808            LDRB             R0,[R1,#0]
  250 0000008E 1EC0            SUBS             R0,R0,#3
  251 00000090 7008            STRB             R0,[R1,#0]
  252 00000092 7808    W_1     LDRB             R0,[R1,#0]
  253 00000094 2800            CMP              R0,#0
  254 00000096 D000            BEQ              BE_1
  255 00000098 E001            B                A_1
  256 0000009A 48A3    BE_1    LDR              R0,=E_1
  257 0000009C 4700            BX               R0
  258 0000009E BF00    A_1     NOP
  259 000000A0 1C49            ADDS             R1,R1,#1
  260 000000A2 4291            CMP              R1,R2
  261 000000A4 D301            BLO              C_5
  262 000000A6 489D            LDR              R0,=End_OF
  263 000000A8 4700            BX               R0
  264 000000AA BF00    C_5     NOP
  265 000000AC 7808            LDRB             R0,[R1,#0]
  266 000000AE 1C40            ADDS             R0,R0,#1
  267 000000B0 7008            STRB             R0,[R1,#0]
  268 000000B2 1C49            ADDS             R1,R1,#1
  269 000000B4 4291            CMP              R1,R2
  270 000000B6 D301            BLO              C_6
  271 000000B8 4898            LDR              R0,=End_OF
  272 000000BA 4700            BX               R0
  273 000000BC BF00    C_6     NOP
  274 000000BE 7808            LDRB             R0,[R1,#0]
  275 000000C0 1C40            ADDS             R0,R0,#1
  276 000000C2 7008            STRB             R0,[R1,#0]
  277 000000C4 2900            CMP              R1,#0
  278 000000C6 D101            BNE              C_7
  279 000000C8 4896            LDR              R0,=End_UF
  280 000000CA 4700            BX               R0
  281 000000CC 1E89    C_7     SUBS             R1,R1,#2
  282 000000CE 7808            LDRB             R0,[R1,#0]



ARM Macro Assembler    Page 7 Lab 7 prelab


  283 000000D0 1E40            SUBS             R0,R0,#1
  284 000000D2 7008            STRB             R0,[R1,#0]
  285 000000D4 489C            LDR              R0,=W_1
  286 000000D6 4700    B_1     BX               R0
  287 000000D8 BF00    E_1     NOP
  288 000000DA 1C89            ADDS             R1,R1,#2
  289 000000DC 4291            CMP              R1,R2
  290 000000DE D301            BLO              C_8
  291 000000E0 488E            LDR              R0,=End_OF
  292 000000E2 4700            BX               R0
  293 000000E4 BF00    C_8     NOP
  294 000000E6 7808    W_2     LDRB             R0,[R1,#0]
  295 000000E8 2800            CMP              R0,#0
  296 000000EA D000            BEQ              BE_2
  297 000000EC E001            B                A_2
  298 000000EE 488F    BE_2    LDR              R0,=E_2
  299 000000F0 4700            BX               R0
  300 000000F2 BF00    A_2     NOP
  301 000000F4 2900            CMP              R1,#0
  302 000000F6 D101            BNE              C_9
  303 000000F8 488A            LDR              R0,=End_UF
  304 000000FA 4700            BX               R0
  305 000000FC 1E89    C_9     SUBS             R1,R1,#2
  306 000000FE 7808            LDRB             R0,[R1,#0]
  307 00000100 1C40            ADDS             R0,R0,#1
  308 00000102 7008            STRB             R0,[R1,#0]
  309 00000104 1C89            ADDS             R1,R1,#2
  310 00000106 4291            CMP              R1,R2
  311 00000108 D301            BLO              C_10
  312 0000010A 4884            LDR              R0,=End_OF
  313 0000010C 4700            BX               R0
  314 0000010E BF00    C_10    NOP
  315 00000110 7808            LDRB             R0,[R1,#0]
  316 00000112 1E40            SUBS             R0,R0,#1
  317 00000114 7008            STRB             R0,[R1,#0]
  318 00000116 4891            LDR              R0,=W_2
  319 00000118 4700    B_2     BX               R0
  320 0000011A BF00    E_2     NOP
  321 0000011C 1C49            ADDS             R1,R1,#1
  322 0000011E 4291            CMP              R1,R2
  323 00000120 D301            BLO              C_11
  324 00000122 487E            LDR              R0,=End_OF
  325 00000124 4700            BX               R0
  326 00000126 BF00    C_11    NOP
  327 00000128 4882            LDR              R0,=input_mes
  328 0000012A F7FF FFFE       BL               PutStringSB
  329 0000012E F7FF FFFE       BL               GetChar
  330 00000132 F7FF FFFE       BL               PutChar
  331 00000136 7008            STRB             R0,[R1,#0]
  332 00000138 487F            LDR              R0,=CRLF
  333 0000013A F7FF FFFE       BL               PutStringSB
  334 0000013E 7808    W_3     LDRB             R0,[R1,#0]
  335 00000140 2800            CMP              R0,#0
  336 00000142 D000            BEQ              BE_3
  337 00000144 E001            B                A_3
  338 00000146 487D    BE_3    LDR              R0,=E_3
  339 00000148 4700            BX               R0
  340 0000014A BF00    A_3     NOP
  341 0000014C 2900            CMP              R1,#0



ARM Macro Assembler    Page 8 Lab 7 prelab


  342 0000014E D101            BNE              C_12
  343 00000150 4874            LDR              R0,=End_UF
  344 00000152 4700            BX               R0
  345 00000154 1E49    C_12    SUBS             R1,R1,#1
  346 00000156 7808            LDRB             R0,[R1,#0]
  347 00000158 1C40            ADDS             R0,R0,#1
  348 0000015A 7008            STRB             R0,[R1,#0]
  349 0000015C 1C49            ADDS             R1,R1,#1
  350 0000015E 4291            CMP              R1,R2
  351 00000160 D301            BLO              C_13
  352 00000162 486E            LDR              R0,=End_OF
  353 00000164 4700            BX               R0
  354 00000166 BF00    C_13    NOP
  355 00000168 7808    W_4     LDRB             R0,[R1,#0]
  356 0000016A 2800            CMP              R0,#0
  357 0000016C D000            BEQ              BE_4
  358 0000016E E001            B                A_4
  359 00000170 4873    BE_4    LDR              R0,=E_4
  360 00000172 4700            BX               R0
  361 00000174 BF00    A_4     NOP
  362 00000176 7808            LDRB             R0,[R1,#0]
  363 00000178 380A            SUBS             R0,R0,#10
  364 0000017A 7008            STRB             R0,[R1,#0]
  365 0000017C 7808    W_5     LDRB             R0,[R1,#0]
  366 0000017E 2800            CMP              R0,#0
  367 00000180 D000            BEQ              BE_5
  368 00000182 E001            B                A_5
  369 00000184 486F    BE_5    LDR              R0,=E_5
  370 00000186 4700            BX               R0
  371 00000188 BF00    A_5     NOP
  372 0000018A 7808            LDRB             R0,[R1,#0]
  373 0000018C 3816            SUBS             R0,R0,#22
  374 0000018E 7008            STRB             R0,[R1,#0]
  375 00000190 7808    W_6     LDRB             R0,[R1,#0]
  376 00000192 2800            CMP              R0,#0
  377 00000194 D000            BEQ              BE_6
  378 00000196 E001            B                A_6
  379 00000198 486C    BE_6    LDR              R0,=E_6
  380 0000019A 4700            BX               R0
  381 0000019C BF00    A_6     NOP
  382 0000019E 7808            LDRB             R0,[R1,#0]
  383 000001A0 1E40            SUBS             R0,R0,#1
  384 000001A2 7008            STRB             R0,[R1,#0]
  385 000001A4 7808    W_7     LDRB             R0,[R1,#0]
  386 000001A6 2800            CMP              R0,#0
  387 000001A8 D000            BEQ              BE_7
  388 000001AA E001            B                A_7
  389 000001AC 4868    BE_7    LDR              R0,=E_7
  390 000001AE 4700            BX               R0
  391 000001B0 BF00    A_7     NOP
  392 000001B2 7808            LDRB             R0,[R1,#0]
  393 000001B4 1E40            SUBS             R0,R0,#1
  394 000001B6 7008            STRB             R0,[R1,#0]
  395 000001B8 7808    W_8     LDRB             R0,[R1,#0]
  396 000001BA 2800            CMP              R0,#0
  397 000001BC D000            BEQ              BE_8
  398 000001BE E001            B                A_8
  399 000001C0 4864    BE_8    LDR              R0,=E_8
  400 000001C2 4700            BX               R0



ARM Macro Assembler    Page 9 Lab 7 prelab


  401 000001C4 BF00    A_8     NOP
  402 000001C6 7808            LDRB             R0,[R1,#0]
  403 000001C8 1F00            SUBS             R0,R0,#4
  404 000001CA 7008            STRB             R0,[R1,#0]
  405 000001CC 7808    W_9     LDRB             R0,[R1,#0]
  406 000001CE 2800            CMP              R0,#0
  407 000001D0 D000            BEQ              BE_9
  408 000001D2 E001            B                A_9
  409 000001D4 4860    BE_9    LDR              R0,=E_9
  410 000001D6 4700            BX               R0
  411 000001D8 BF00    A_9     NOP
  412 000001DA 7808            LDRB             R0,[R1,#0]
  413 000001DC 1E40            SUBS             R0,R0,#1
  414 000001DE 7008            STRB             R0,[R1,#0]
  415 000001E0 7808    W_10    LDRB             R0,[R1,#0]
  416 000001E2 2800            CMP              R0,#0
  417 000001E4 D000            BEQ              BE_10
  418 000001E6 E001            B                A_10
  419 000001E8 485D    BE_10   LDR              R0,=E_10
  420 000001EA 4700            BX               R0
  421 000001EC BF00    A_10    NOP
  422 000001EE 7808            LDRB             R0,[R1,#0]
  423 000001F0 1E40            SUBS             R0,R0,#1
  424 000001F2 7008            STRB             R0,[R1,#0]
  425 000001F4 7808    W_11    LDRB             R0,[R1,#0]
  426 000001F6 2800            CMP              R0,#0
  427 000001F8 D000            BEQ              BE_11
  428 000001FA E001            B                A_11
  429 000001FC 4859    BE_11   LDR              R0,=E_11
  430 000001FE 4700            BX               R0
  431 00000200 BF00    A_11    NOP
  432 00000202 7808            LDRB             R0,[R1,#0]
  433 00000204 1E40            SUBS             R0,R0,#1
  434 00000206 7008            STRB             R0,[R1,#0]
  435 00000208 7808    W_12    LDRB             R0,[R1,#0]
  436 0000020A 2800            CMP              R0,#0
  437 0000020C D000            BEQ              BE_12
  438 0000020E E001            B                A_12
  439 00000210 4855    BE_12   LDR              R0,=E_12
  440 00000212 4700            BX               R0
  441 00000214 BF00    A_12    NOP
  442 00000216 7808            LDRB             R0,[R1,#0]
  443 00000218 1EC0            SUBS             R0,R0,#3
  444 0000021A 7008            STRB             R0,[R1,#0]
  445 0000021C 7808    W_13    LDRB             R0,[R1,#0]
  446 0000021E 2800            CMP              R0,#0
  447 00000220 D000            BEQ              BE_13
  448 00000222 E001            B                A_13
  449 00000224 4851    BE_13   LDR              R0,=E_13
  450 00000226 4700            BX               R0
  451 00000228 BF00    A_13    NOP
  452 0000022A 7808            LDRB             R0,[R1,#0]
  453 0000022C 1E40            SUBS             R0,R0,#1
  454 0000022E 7008            STRB             R0,[R1,#0]
  455 00000230 7808    W_14    LDRB             R0,[R1,#0]
  456 00000232 2800            CMP              R0,#0
  457 00000234 D000            BEQ              BE_14
  458 00000236 E001            B                A_14
  459 00000238 484D    BE_14   LDR              R0,=E_14



ARM Macro Assembler    Page 10 Lab 7 prelab


  460 0000023A 4700            BX               R0
  461 0000023C BF00    A_14    NOP
  462 0000023E 7808            LDRB             R0,[R1,#0]
  463 00000240 1E40            SUBS             R0,R0,#1
  464 00000242 7008            STRB             R0,[R1,#0]
  465 00000244 7808    W_15    LDRB             R0,[R1,#0]
  466 00000246 2800            CMP              R0,#0
  467 00000248 D000            BEQ              BE_15
  468 0000024A E001            B                A_15
  469 0000024C 4849    BE_15   LDR              R0,=E_15
  470 0000024E 4700            BX               R0
  471 00000250 BF00    A_15    NOP
  472 00000252 7808            LDRB             R0,[R1,#0]
  473 00000254 1E40            SUBS             R0,R0,#1
  474 00000256 7008            STRB             R0,[R1,#0]
  475 00000258 7808    W_16    LDRB             R0,[R1,#0]
  476 0000025A 2800            CMP              R0,#0
  477 0000025C D000            BEQ              BE_16
  478 0000025E E001            B                A_16
  479 00000260 4845    BE_16   LDR              R0,=E_16
  480 00000262 4700            BX               R0
  481 00000264 BF00    A_16    NOP
  482 00000266 7808            LDRB             R0,[R1,#0]
  483 00000268 1E40            SUBS             R0,R0,#1
  484 0000026A 7008            STRB             R0,[R1,#0]
  485 0000026C 7808    W_17    LDRB             R0,[R1,#0]
  486 0000026E 2800            CMP              R0,#0
  487 00000270 D000            BEQ              BE_17
  488 00000272 E001            B                A_17
  489 00000274 4841    BE_17   LDR              R0,=E_17
  490 00000276 4700            BX               R0
  491 00000278 BF00    A_17    NOP
  492 0000027A 7808            LDRB             R0,[R1,#0]
  493 0000027C 1E40            SUBS             R0,R0,#1
  494 0000027E 7008            STRB             R0,[R1,#0]
  495 00000280 7808    W_18    LDRB             R0,[R1,#0]
  496 00000282 2800            CMP              R0,#0
  497 00000284 D000            BEQ              BE_18
  498 00000286 E001            B                A_18
  499 00000288 483D    BE_18   LDR              R0,=E_18
  500 0000028A 4700            BX               R0
  501 0000028C BF00    A_18    NOP
  502 0000028E 7808            LDRB             R0,[R1,#0]
  503 00000290 1E40            SUBS             R0,R0,#1
  504 00000292 7008            STRB             R0,[R1,#0]
  505 00000294 7808    W_19    LDRB             R0,[R1,#0]
  506 00000296 2800            CMP              R0,#0
  507 00000298 D000            BEQ              BE_19
  508 0000029A E001            B                A_19
  509 0000029C 4839    BE_19   LDR              R0,=E_19
  510 0000029E 4700            BX               R0
  511 000002A0 BF00    A_19    NOP
  512 000002A2 7808            LDRB             R0,[R1,#0]
  513 000002A4 1E40            SUBS             R0,R0,#1
  514 000002A6 7008            STRB             R0,[R1,#0]
  515 000002A8 7808    W_20    LDRB             R0,[R1,#0]
  516 000002AA 2800            CMP              R0,#0
  517 000002AC D000            BEQ              BE_20
  518 000002AE E001            B                A_20



ARM Macro Assembler    Page 11 Lab 7 prelab


  519 000002B0 4835    BE_20   LDR              R0,=E_20
  520 000002B2 4700            BX               R0
  521 000002B4 BF00    A_20    NOP
  522 000002B6 7808            LDRB             R0,[R1,#0]
  523 000002B8 1E40            SUBS             R0,R0,#1
  524 000002BA 7008            STRB             R0,[R1,#0]
  525 000002BC 7808    W_21    LDRB             R0,[R1,#0]
  526 000002BE 2800            CMP              R0,#0
  527 000002C0 D000            BEQ              BE_21
  528 000002C2 E001            B                A_21
  529 000002C4 4831    BE_21   LDR              R0,=E_21
  530 000002C6 4700            BX               R0
  531 000002C8 BF00    A_21    NOP
  532 000002CA 7808            LDRB             R0,[R1,#0]
  533 000002CC 1E40            SUBS             R0,R0,#1
  534 000002CE 7008            STRB             R0,[R1,#0]
  535 000002D0 7808    W_22    LDRB             R0,[R1,#0]
  536 000002D2 2800            CMP              R0,#0
  537 000002D4 D000            BEQ              BE_22
  538 000002D6 E001            B                A_22
  539 000002D8 482D    BE_22   LDR              R0,=E_22
  540 000002DA 4700            BX               R0
  541 000002DC BF00    A_22    NOP
  542 000002DE 7808            LDRB             R0,[R1,#0]
  543 000002E0 1E40            SUBS             R0,R0,#1
  544 000002E2 7008            STRB             R0,[R1,#0]
  545 000002E4 7808    W_23    LDRB             R0,[R1,#0]
  546 000002E6 2800            CMP              R0,#0
  547 000002E8 D000            BEQ              BE_23
  548 000002EA E001            B                A_23
  549 000002EC 4829    BE_23   LDR              R0,=E_23
  550 000002EE 4700            BX               R0
  551 000002F0 BF00    A_23    NOP
  552 000002F2 7808            LDRB             R0,[R1,#0]
  553 000002F4 1E40            SUBS             R0,R0,#1
  554 000002F6 7008            STRB             R0,[R1,#0]
  555 000002F8 7808    W_24    LDRB             R0,[R1,#0]
  556 000002FA 2800            CMP              R0,#0
  557 000002FC D000            BEQ              BE_24
  558 000002FE E001            B                A_24
  559 00000300 4825    BE_24   LDR              R0,=E_24
  560 00000302 4700            BX               R0
  561 00000304 BF00    A_24    NOP
  562 00000306 7808            LDRB             R0,[R1,#0]
  563 00000308 1E40            SUBS             R0,R0,#1
  564 0000030A 7008            STRB             R0,[R1,#0]
  565 0000030C 7808    W_25    LDRB             R0,[R1,#0]
  566 0000030E 2800            CMP              R0,#0
  567 00000310 D000            BEQ              BE_25
  568 00000312 E001            B                A_25
  569 00000314 4821    BE_25   LDR              R0,=E_25
  570 00000316 4700            BX               R0
  571 00000318 BF00    A_25    NOP
  572 0000031A E059            B                L_0
  573 0000031C 00000000 
              00000000 
              00000000 
              00000000 
              00000000 



ARM Macro Assembler    Page 12 Lab 7 prelab


              00000000 
              00000000 
              00000000 
              00000000 
              00000000 
              00000000 
              00000000 
              00000000 
              00000000 
              00000000 
              00000000 
              00000000 
              00000000 
              00000000 
              00000000 
              00000000 
              00000000 
              00000000 
              00000000 
              00000000 
              00000000 
              00000000 
              00000000 
              00000000 
              00000000 
              00000000 
              00000000 
              00000000 
              00000000 
              00000000 
              00000000 
              00000000 
              00000000 
              00000000 
              00000000 
              00000000 
              00000000 
              00000000 
              00000000 
              00000000         LTORG
  574 000003D0 BF00    L_0     NOP
  575 000003D2 7808            LDRB             R0,[R1,#0]
  576 000003D4 1E40            SUBS             R0,R0,#1
  577 000003D6 7008            STRB             R0,[R1,#0]
  578 000003D8 7808    W_26    LDRB             R0,[R1,#0]
  579 000003DA 2800            CMP              R0,#0
  580 000003DC D000            BEQ              BE_26
  581 000003DE E001            B                A_26
  582 000003E0 48BC    BE_26   LDR              R0,=E_26
  583 000003E2 4700            BX               R0
  584 000003E4 BF00    A_26    NOP
  585 000003E6 7808            LDRB             R0,[R1,#0]
  586 000003E8 1E40            SUBS             R0,R0,#1
  587 000003EA 7008            STRB             R0,[R1,#0]
  588 000003EC 7808    W_27    LDRB             R0,[R1,#0]
  589 000003EE 2800            CMP              R0,#0
  590 000003F0 D000            BEQ              BE_27
  591 000003F2 E001            B                A_27
  592 000003F4 48B8    BE_27   LDR              R0,=E_27



ARM Macro Assembler    Page 13 Lab 7 prelab


  593 000003F6 4700            BX               R0
  594 000003F8 BF00    A_27    NOP
  595 000003FA 7808            LDRB             R0,[R1,#0]
  596 000003FC 1E40            SUBS             R0,R0,#1
  597 000003FE 7008            STRB             R0,[R1,#0]
  598 00000400 7808    W_28    LDRB             R0,[R1,#0]
  599 00000402 2800            CMP              R0,#0
  600 00000404 D000            BEQ              BE_28
  601 00000406 E001            B                A_28
  602 00000408 48B4    BE_28   LDR              R0,=E_28
  603 0000040A 4700            BX               R0
  604 0000040C BF00    A_28    NOP
  605 0000040E 7808            LDRB             R0,[R1,#0]
  606 00000410 1E80            SUBS             R0,R0,#2
  607 00000412 7008            STRB             R0,[R1,#0]
  608 00000414 7808    W_29    LDRB             R0,[R1,#0]
  609 00000416 2800            CMP              R0,#0
  610 00000418 D000            BEQ              BE_29
  611 0000041A E001            B                A_29
  612 0000041C 48B0    BE_29   LDR              R0,=E_29
  613 0000041E 4700            BX               R0
  614 00000420 BF00    A_29    NOP
  615 00000422 7808            LDRB             R0,[R1,#0]
  616 00000424 1E80            SUBS             R0,R0,#2
  617 00000426 7008            STRB             R0,[R1,#0]
  618 00000428 7808    W_30    LDRB             R0,[R1,#0]
  619 0000042A 2800            CMP              R0,#0
  620 0000042C D000            BEQ              BE_30
  621 0000042E E001            B                A_30
  622 00000430 48AC    BE_30   LDR              R0,=E_30
  623 00000432 4700            BX               R0
  624 00000434 BF00    A_30    NOP
  625 00000436 7808            LDRB             R0,[R1,#0]
  626 00000438 1E40            SUBS             R0,R0,#1
  627 0000043A 7008            STRB             R0,[R1,#0]
  628 0000043C 7808    W_31    LDRB             R0,[R1,#0]
  629 0000043E 2800            CMP              R0,#0
  630 00000440 D000            BEQ              BE_31
  631 00000442 E001            B                A_31
  632 00000444 48A8    BE_31   LDR              R0,=E_31
  633 00000446 4700            BX               R0
  634 00000448 BF00    A_31    NOP
  635 0000044A 7808            LDRB             R0,[R1,#0]
  636 0000044C 1E40            SUBS             R0,R0,#1
  637 0000044E 7008            STRB             R0,[R1,#0]
  638 00000450 7808    W_32    LDRB             R0,[R1,#0]
  639 00000452 2800            CMP              R0,#0
  640 00000454 D000            BEQ              BE_32
  641 00000456 E001            B                A_32
  642 00000458 48A4    BE_32   LDR              R0,=E_32
  643 0000045A 4700            BX               R0
  644 0000045C BF00    A_32    NOP
  645 0000045E 7808            LDRB             R0,[R1,#0]
  646 00000460 1E40            SUBS             R0,R0,#1
  647 00000462 7008            STRB             R0,[R1,#0]
  648 00000464 7808    W_33    LDRB             R0,[R1,#0]
  649 00000466 2800            CMP              R0,#0
  650 00000468 D000            BEQ              BE_33
  651 0000046A E001            B                A_33



ARM Macro Assembler    Page 14 Lab 7 prelab


  652 0000046C 48A0    BE_33   LDR              R0,=E_33
  653 0000046E 4700            BX               R0
  654 00000470 BF00    A_33    NOP
  655 00000472 7808            LDRB             R0,[R1,#0]
  656 00000474 1E40            SUBS             R0,R0,#1
  657 00000476 7008            STRB             R0,[R1,#0]
  658 00000478 7808    W_34    LDRB             R0,[R1,#0]
  659 0000047A 2800            CMP              R0,#0
  660 0000047C D000            BEQ              BE_34
  661 0000047E E001            B                A_34
  662 00000480 489C    BE_34   LDR              R0,=E_34
  663 00000482 4700            BX               R0
  664 00000484 BF00    A_34    NOP
  665 00000486 7808            LDRB             R0,[R1,#0]
  666 00000488 1E40            SUBS             R0,R0,#1
  667 0000048A 7008            STRB             R0,[R1,#0]
  668 0000048C 7808    W_35    LDRB             R0,[R1,#0]
  669 0000048E 2800            CMP              R0,#0
  670 00000490 D000            BEQ              BE_35
  671 00000492 E001            B                A_35
  672 00000494 4898    BE_35   LDR              R0,=E_35
  673 00000496 4700            BX               R0
  674 00000498 BF00    A_35    NOP
  675 0000049A 7808            LDRB             R0,[R1,#0]
  676 0000049C 1E40            SUBS             R0,R0,#1
  677 0000049E 7008            STRB             R0,[R1,#0]
  678 000004A0 7808    W_36    LDRB             R0,[R1,#0]
  679 000004A2 2800            CMP              R0,#0
  680 000004A4 D000            BEQ              BE_36
  681 000004A6 E001            B                A_36
  682 000004A8 4894    BE_36   LDR              R0,=E_36
  683 000004AA 4700            BX               R0
  684 000004AC BF00    A_36    NOP
  685 000004AE 7808            LDRB             R0,[R1,#0]
  686 000004B0 1E40            SUBS             R0,R0,#1
  687 000004B2 7008            STRB             R0,[R1,#0]
  688 000004B4 7808    W_37    LDRB             R0,[R1,#0]
  689 000004B6 2800            CMP              R0,#0
  690 000004B8 D000            BEQ              BE_37
  691 000004BA E001            B                A_37
  692 000004BC 4890    BE_37   LDR              R0,=E_37
  693 000004BE 4700            BX               R0
  694 000004C0 BF00    A_37    NOP
  695 000004C2 7808            LDRB             R0,[R1,#0]
  696 000004C4 1E40            SUBS             R0,R0,#1
  697 000004C6 7008            STRB             R0,[R1,#0]
  698 000004C8 7808    W_38    LDRB             R0,[R1,#0]
  699 000004CA 2800            CMP              R0,#0
  700 000004CC D000            BEQ              BE_38
  701 000004CE E001            B                A_38
  702 000004D0 488C    BE_38   LDR              R0,=E_38
  703 000004D2 4700            BX               R0
  704 000004D4 BF00    A_38    NOP
  705 000004D6 7808            LDRB             R0,[R1,#0]
  706 000004D8 1E40            SUBS             R0,R0,#1
  707 000004DA 7008            STRB             R0,[R1,#0]
  708 000004DC 7808    W_39    LDRB             R0,[R1,#0]
  709 000004DE 2800            CMP              R0,#0
  710 000004E0 D000            BEQ              BE_39



ARM Macro Assembler    Page 15 Lab 7 prelab


  711 000004E2 E001            B                A_39
  712 000004E4 4888    BE_39   LDR              R0,=E_39
  713 000004E6 4700            BX               R0
  714 000004E8 BF00    A_39    NOP
  715 000004EA 7808            LDRB             R0,[R1,#0]
  716 000004EC 1E40            SUBS             R0,R0,#1
  717 000004EE 7008            STRB             R0,[R1,#0]
  718 000004F0 7808    W_40    LDRB             R0,[R1,#0]
  719 000004F2 2800            CMP              R0,#0
  720 000004F4 D000            BEQ              BE_40
  721 000004F6 E001            B                A_40
  722 000004F8 4884    BE_40   LDR              R0,=E_40
  723 000004FA 4700            BX               R0
  724 000004FC BF00    A_40    NOP
  725 000004FE 7808            LDRB             R0,[R1,#0]
  726 00000500 1E40            SUBS             R0,R0,#1
  727 00000502 7008            STRB             R0,[R1,#0]
  728 00000504 7808    W_41    LDRB             R0,[R1,#0]
  729 00000506 2800            CMP              R0,#0
  730 00000508 D000            BEQ              BE_41
  731 0000050A E001            B                A_41
  732 0000050C 4880    BE_41   LDR              R0,=E_41
  733 0000050E 4700            BX               R0
  734 00000510 BF00    A_41    NOP
  735 00000512 7808            LDRB             R0,[R1,#0]
  736 00000514 1E40            SUBS             R0,R0,#1
  737 00000516 7008            STRB             R0,[R1,#0]
  738 00000518 7808    W_42    LDRB             R0,[R1,#0]
  739 0000051A 2800            CMP              R0,#0
  740 0000051C D000            BEQ              BE_42
  741 0000051E E001            B                A_42
  742 00000520 487C    BE_42   LDR              R0,=E_42
  743 00000522 4700            BX               R0
  744 00000524 BF00    A_42    NOP
  745 00000526 7808            LDRB             R0,[R1,#0]
  746 00000528 1E40            SUBS             R0,R0,#1
  747 0000052A 7008            STRB             R0,[R1,#0]
  748 0000052C 7808    W_43    LDRB             R0,[R1,#0]
  749 0000052E 2800            CMP              R0,#0
  750 00000530 D000            BEQ              BE_43
  751 00000532 E001            B                A_43
  752 00000534 4878    BE_43   LDR              R0,=E_43
  753 00000536 4700            BX               R0
  754 00000538 BF00    A_43    NOP
  755 0000053A 7808            LDRB             R0,[R1,#0]
  756 0000053C 1E40            SUBS             R0,R0,#1
  757 0000053E 7008            STRB             R0,[R1,#0]
  758 00000540 7808    W_44    LDRB             R0,[R1,#0]
  759 00000542 2800            CMP              R0,#0
  760 00000544 D000            BEQ              BE_44
  761 00000546 E001            B                A_44
  762 00000548 4874    BE_44   LDR              R0,=E_44
  763 0000054A 4700            BX               R0
  764 0000054C BF00    A_44    NOP
  765 0000054E 7808            LDRB             R0,[R1,#0]
  766 00000550 1E40            SUBS             R0,R0,#1
  767 00000552 7008            STRB             R0,[R1,#0]
  768 00000554 7808    W_45    LDRB             R0,[R1,#0]
  769 00000556 2800            CMP              R0,#0



ARM Macro Assembler    Page 16 Lab 7 prelab


  770 00000558 D000            BEQ              BE_45
  771 0000055A E001            B                A_45
  772 0000055C 4870    BE_45   LDR              R0,=E_45
  773 0000055E 4700            BX               R0
  774 00000560 BF00    A_45    NOP
  775 00000562 7808            LDRB             R0,[R1,#0]
  776 00000564 1E40            SUBS             R0,R0,#1
  777 00000566 7008            STRB             R0,[R1,#0]
  778 00000568 7808    W_46    LDRB             R0,[R1,#0]
  779 0000056A 2800            CMP              R0,#0
  780 0000056C D000            BEQ              BE_46
  781 0000056E E001            B                A_46
  782 00000570 486C    BE_46   LDR              R0,=E_46
  783 00000572 4700            BX               R0
  784 00000574 BF00    A_46    NOP
  785 00000576 7808            LDRB             R0,[R1,#0]
  786 00000578 1E40            SUBS             R0,R0,#1
  787 0000057A 7008            STRB             R0,[R1,#0]
  788 0000057C 7808    W_47    LDRB             R0,[R1,#0]
  789 0000057E 2800            CMP              R0,#0
  790 00000580 D000            BEQ              BE_47
  791 00000582 E001            B                A_47
  792 00000584 4868    BE_47   LDR              R0,=E_47
  793 00000586 4700            BX               R0
  794 00000588 BF00    A_47    NOP
  795 0000058A 7808            LDRB             R0,[R1,#0]
  796 0000058C 1E40            SUBS             R0,R0,#1
  797 0000058E 7008            STRB             R0,[R1,#0]
  798 00000590 7808    W_48    LDRB             R0,[R1,#0]
  799 00000592 2800            CMP              R0,#0
  800 00000594 D000            BEQ              BE_48
  801 00000596 E001            B                A_48
  802 00000598 4864    BE_48   LDR              R0,=E_48
  803 0000059A 4700            BX               R0
  804 0000059C BF00    A_48    NOP
  805 0000059E 7808            LDRB             R0,[R1,#0]
  806 000005A0 1E40            SUBS             R0,R0,#1
  807 000005A2 7008            STRB             R0,[R1,#0]
  808 000005A4 7808    W_49    LDRB             R0,[R1,#0]
  809 000005A6 2800            CMP              R0,#0
  810 000005A8 D000            BEQ              BE_49
  811 000005AA E001            B                A_49
  812 000005AC 4860    BE_49   LDR              R0,=E_49
  813 000005AE 4700            BX               R0
  814 000005B0 BF00    A_49    NOP
  815 000005B2 7808            LDRB             R0,[R1,#0]
  816 000005B4 1E40            SUBS             R0,R0,#1
  817 000005B6 7008            STRB             R0,[R1,#0]
  818 000005B8 7808    W_50    LDRB             R0,[R1,#0]
  819 000005BA 2800            CMP              R0,#0
  820 000005BC D000            BEQ              BE_50
  821 000005BE E001            B                A_50
  822 000005C0 485C    BE_50   LDR              R0,=E_50
  823 000005C2 4700            BX               R0
  824 000005C4 BF00    A_50    NOP
  825 000005C6 7808            LDRB             R0,[R1,#0]
  826 000005C8 1E40            SUBS             R0,R0,#1
  827 000005CA 7008            STRB             R0,[R1,#0]
  828 000005CC 7808    W_51    LDRB             R0,[R1,#0]



ARM Macro Assembler    Page 17 Lab 7 prelab


  829 000005CE 2800            CMP              R0,#0
  830 000005D0 D000            BEQ              BE_51
  831 000005D2 E001            B                A_51
  832 000005D4 4858    BE_51   LDR              R0,=E_51
  833 000005D6 4700            BX               R0
  834 000005D8 BF00    A_51    NOP
  835 000005DA 7808            LDRB             R0,[R1,#0]
  836 000005DC 1E40            SUBS             R0,R0,#1
  837 000005DE 7008            STRB             R0,[R1,#0]
  838 000005E0 7808    W_52    LDRB             R0,[R1,#0]
  839 000005E2 2800            CMP              R0,#0
  840 000005E4 D000            BEQ              BE_52
  841 000005E6 E001            B                A_52
  842 000005E8 4854    BE_52   LDR              R0,=E_52
  843 000005EA 4700            BX               R0
  844 000005EC BF00    A_52    NOP
  845 000005EE 7808            LDRB             R0,[R1,#0]
  846 000005F0 1E40            SUBS             R0,R0,#1
  847 000005F2 7008            STRB             R0,[R1,#0]
  848 000005F4 7808    W_53    LDRB             R0,[R1,#0]
  849 000005F6 2800            CMP              R0,#0
  850 000005F8 D000            BEQ              BE_53
  851 000005FA E001            B                A_53
  852 000005FC 4850    BE_53   LDR              R0,=E_53
  853 000005FE 4700            BX               R0
  854 00000600 BF00    A_53    NOP
  855 00000602 7808            LDRB             R0,[R1,#0]
  856 00000604 1E40            SUBS             R0,R0,#1
  857 00000606 7008            STRB             R0,[R1,#0]
  858 00000608 7808    W_54    LDRB             R0,[R1,#0]
  859 0000060A 2800            CMP              R0,#0
  860 0000060C D000            BEQ              BE_54
  861 0000060E E001            B                A_54
  862 00000610 484C    BE_54   LDR              R0,=E_54
  863 00000612 4700            BX               R0
  864 00000614 BF00    A_54    NOP
  865 00000616 7808            LDRB             R0,[R1,#0]
  866 00000618 1E40            SUBS             R0,R0,#1
  867 0000061A 7008            STRB             R0,[R1,#0]
  868 0000061C 7808    W_55    LDRB             R0,[R1,#0]
  869 0000061E 2800            CMP              R0,#0
  870 00000620 D000            BEQ              BE_55
  871 00000622 E001            B                A_55
  872 00000624 4848    BE_55   LDR              R0,=E_55
  873 00000626 4700            BX               R0
  874 00000628 BF00    A_55    NOP
  875 0000062A 7808            LDRB             R0,[R1,#0]
  876 0000062C 1E40            SUBS             R0,R0,#1
  877 0000062E 7008            STRB             R0,[R1,#0]
  878 00000630 7808    W_56    LDRB             R0,[R1,#0]
  879 00000632 2800            CMP              R0,#0
  880 00000634 D000            BEQ              BE_56
  881 00000636 E001            B                A_56
  882 00000638 4844    BE_56   LDR              R0,=E_56
  883 0000063A 4700            BX               R0
  884 0000063C BF00    A_56    NOP
  885 0000063E 7808            LDRB             R0,[R1,#0]
  886 00000640 1E40            SUBS             R0,R0,#1
  887 00000642 7008            STRB             R0,[R1,#0]



ARM Macro Assembler    Page 18 Lab 7 prelab


  888 00000644 7808    W_57    LDRB             R0,[R1,#0]
  889 00000646 2800            CMP              R0,#0
  890 00000648 D000            BEQ              BE_57
  891 0000064A E001            B                A_57
  892 0000064C 4840    BE_57   LDR              R0,=E_57
  893 0000064E 4700            BX               R0
  894 00000650 BF00    A_57    NOP
  895 00000652 7808            LDRB             R0,[R1,#0]
  896 00000654 1F40            SUBS             R0,R0,#5
  897 00000656 7008            STRB             R0,[R1,#0]
  898 00000658 2900            CMP              R1,#0
  899 0000065A D101            BNE              C_14
  900 0000065C 483D            LDR              R0,=End_UF
  901 0000065E 4700            BX               R0
  902 00000660 1E49    C_14    SUBS             R1,R1,#1
  903 00000662 7808    W_58    LDRB             R0,[R1,#0]
  904 00000664 2800            CMP              R0,#0
  905 00000666 D000            BEQ              BE_58
  906 00000668 E001            B                A_58
  907 0000066A 483B    BE_58   LDR              R0,=E_58
  908 0000066C 4700            BX               R0
  909 0000066E BF00    A_58    NOP
  910 00000670 2900            CMP              R1,#0
  911 00000672 D101            BNE              C_15
  912 00000674 4837            LDR              R0,=End_UF
  913 00000676 4700            BX               R0
  914 00000678 1E49    C_15    SUBS             R1,R1,#1
  915 0000067A 7808            LDRB             R0,[R1,#0]
  916 0000067C F7FF FFFE       BL               PutChar
  917 00000680 7808            LDRB             R0,[R1,#0]
  918 00000682 F7FF FFFE       BL               PutChar
  919 00000686 2900            CMP              R1,#0
  920 00000688 D101            BNE              C_16
  921 0000068A 4832            LDR              R0,=End_UF
  922 0000068C 4700            BX               R0
  923 0000068E 1E49    C_16    SUBS             R1,R1,#1
  924 00000690 7808            LDRB             R0,[R1,#0]
  925 00000692 F7FF FFFE       BL               PutChar
  926 00000696 7808            LDRB             R0,[R1,#0]
  927 00000698 F7FF FFFE       BL               PutChar
  928 0000069C 1C49            ADDS             R1,R1,#1
  929 0000069E 4291            CMP              R1,R2
  930 000006A0 D301            BLO              C_17
  931 000006A2 482E            LDR              R0,=End_OF
  932 000006A4 4700            BX               R0
  933 000006A6 BF00    C_17    NOP
  934 000006A8 7808            LDRB             R0,[R1,#0]
  935 000006AA F7FF FFFE       BL               PutChar
  936 000006AE 2900            CMP              R1,#0
  937 000006B0 D101            BNE              C_18
  938 000006B2 4828            LDR              R0,=End_UF
  939 000006B4 4700            BX               R0
  940 000006B6 1E49    C_18    SUBS             R1,R1,#1
  941 000006B8 7808            LDRB             R0,[R1,#0]
  942 000006BA F7FF FFFE       BL               PutChar
  943 000006BE 1C89            ADDS             R1,R1,#2
  944 000006C0 4291            CMP              R1,R2
  945 000006C2 D301            BLO              C_19
  946 000006C4 4825            LDR              R0,=End_OF



ARM Macro Assembler    Page 19 Lab 7 prelab


  947 000006C6 4700            BX               R0
  948 000006C8 BF00    C_19    NOP
  949 000006CA 7808            LDRB             R0,[R1,#0]
  950 000006CC 1E40            SUBS             R0,R0,#1
  951 000006CE 7008            STRB             R0,[R1,#0]
  952 000006D0 E04E            B                L_1
  953 000006D2 00 00 00000000 
              00000000 
              00000000 
              00000000 
              00000000 
              00000000 
              00000000 
              00000000 
              00000000 
              00000000 
              00000000 
              00000000 
              00000000 
              00000000 
              00000000 
              00000000 
              00000000 
              00000000 
              00000000 
              00000000 
              00000000 
              00000000 
              00000000 
              00000000 
              00000000 
              00000000 
              00000000 
              00000000 
              00000000 
              00000000 
              00000000 
              00000000 
              00000000 
              00000000 
              00000000 
              00000000 
              00000000 
              00000000 
              00000000         LTORG
  954 00000770 BF00    L_1     NOP
  955 00000772 48C9            LDR              R0,=W_58
  956 00000774 4700    B_58    BX               R0
  957 00000776 BF00    E_58    NOP
  958 00000778 1C49            ADDS             R1,R1,#1
  959 0000077A 4291            CMP              R1,R2
  960 0000077C D301            BLO              C_20
  961 0000077E 48C7            LDR              R0,=End_OF
  962 00000780 4700            BX               R0
  963 00000782 BF00    C_20    NOP
  964 00000784 48C6            LDR              R0,=W_57
  965 00000786 4700    B_57    BX               R0
  966 00000788 BF00    E_57    NOP
  967 0000078A 2900            CMP              R1,#0



ARM Macro Assembler    Page 20 Lab 7 prelab


  968 0000078C D101            BNE              C_21
  969 0000078E 48C5            LDR              R0,=End_UF
  970 00000790 4700            BX               R0
  971 00000792 1E49    C_21    SUBS             R1,R1,#1
  972 00000794 7808    W_59    LDRB             R0,[R1,#0]
  973 00000796 2800            CMP              R0,#0
  974 00000798 D000            BEQ              BE_59
  975 0000079A E001            B                A_59
  976 0000079C 48C2    BE_59   LDR              R0,=E_59
  977 0000079E 4700            BX               R0
  978 000007A0 BF00    A_59    NOP
  979 000007A2 2900            CMP              R1,#0
  980 000007A4 D101            BNE              C_22
  981 000007A6 48BF            LDR              R0,=End_UF
  982 000007A8 4700            BX               R0
  983 000007AA 1E89    C_22    SUBS             R1,R1,#2
  984 000007AC 7808            LDRB             R0,[R1,#0]
  985 000007AE F7FF FFFE       BL               PutChar
  986 000007B2 7808            LDRB             R0,[R1,#0]
  987 000007B4 F7FF FFFE       BL               PutChar
  988 000007B8 1C49            ADDS             R1,R1,#1
  989 000007BA 4291            CMP              R1,R2
  990 000007BC D301            BLO              C_23
  991 000007BE 48B7            LDR              R0,=End_OF
  992 000007C0 4700            BX               R0
  993 000007C2 BF00    C_23    NOP
  994 000007C4 7808            LDRB             R0,[R1,#0]
  995 000007C6 F7FF FFFE       BL               PutChar
  996 000007CA 7808            LDRB             R0,[R1,#0]
  997 000007CC F7FF FFFE       BL               PutChar
  998 000007D0 1C49            ADDS             R1,R1,#1
  999 000007D2 4291            CMP              R1,R2
 1000 000007D4 D301            BLO              C_24
 1001 000007D6 48B1            LDR              R0,=End_OF
 1002 000007D8 4700            BX               R0
 1003 000007DA BF00    C_24    NOP
 1004 000007DC 7808            LDRB             R0,[R1,#0]
 1005 000007DE 1E40            SUBS             R0,R0,#1
 1006 000007E0 7008            STRB             R0,[R1,#0]
 1007 000007E2 48B5            LDR              R0,=W_59
 1008 000007E4 4700    B_59    BX               R0
 1009 000007E6 BF00    E_59    NOP
 1010 000007E8 1C49            ADDS             R1,R1,#1
 1011 000007EA 4291            CMP              R1,R2
 1012 000007EC D301            BLO              C_25
 1013 000007EE 48AB            LDR              R0,=End_OF
 1014 000007F0 4700            BX               R0
 1015 000007F2 BF00    C_25    NOP
 1016 000007F4 48B2            LDR              R0,=W_56
 1017 000007F6 4700    B_56    BX               R0
 1018 000007F8 BF00    E_56    NOP
 1019 000007FA 2900            CMP              R1,#0
 1020 000007FC D101            BNE              C_26
 1021 000007FE 48A9            LDR              R0,=End_UF
 1022 00000800 4700            BX               R0
 1023 00000802 1E49    C_26    SUBS             R1,R1,#1
 1024 00000804 7808    W_60    LDRB             R0,[R1,#0]
 1025 00000806 2800            CMP              R0,#0
 1026 00000808 D000            BEQ              BE_60



ARM Macro Assembler    Page 21 Lab 7 prelab


 1027 0000080A E001            B                A_60
 1028 0000080C 48A7    BE_60   LDR              R0,=E_60
 1029 0000080E 4700            BX               R0
 1030 00000810 BF00    A_60    NOP
 1031 00000812 2900            CMP              R1,#0
 1032 00000814 D101            BNE              C_27
 1033 00000816 48A3            LDR              R0,=End_UF
 1034 00000818 4700            BX               R0
 1035 0000081A 1E89    C_27    SUBS             R1,R1,#2
 1036 0000081C 7808            LDRB             R0,[R1,#0]
 1037 0000081E F7FF FFFE       BL               PutChar
 1038 00000822 1C49            ADDS             R1,R1,#1
 1039 00000824 4291            CMP              R1,R2
 1040 00000826 D301            BLO              C_28
 1041 00000828 489C            LDR              R0,=End_OF
 1042 0000082A 4700            BX               R0
 1043 0000082C BF00    C_28    NOP
 1044 0000082E 7808            LDRB             R0,[R1,#0]
 1045 00000830 F7FF FFFE       BL               PutChar
 1046 00000834 2900            CMP              R1,#0
 1047 00000836 D101            BNE              C_29
 1048 00000838 489A            LDR              R0,=End_UF
 1049 0000083A 4700            BX               R0
 1050 0000083C 1E49    C_29    SUBS             R1,R1,#1
 1051 0000083E 7808            LDRB             R0,[R1,#0]
 1052 00000840 F7FF FFFE       BL               PutChar
 1053 00000844 7808            LDRB             R0,[R1,#0]
 1054 00000846 F7FF FFFE       BL               PutChar
 1055 0000084A 1C89            ADDS             R1,R1,#2
 1056 0000084C 4291            CMP              R1,R2
 1057 0000084E D301            BLO              C_30
 1058 00000850 4892            LDR              R0,=End_OF
 1059 00000852 4700            BX               R0
 1060 00000854 BF00    C_30    NOP
 1061 00000856 7808            LDRB             R0,[R1,#0]
 1062 00000858 1E40            SUBS             R0,R0,#1
 1063 0000085A 7008            STRB             R0,[R1,#0]
 1064 0000085C 489F            LDR              R0,=W_60
 1065 0000085E 4700    B_60    BX               R0
 1066 00000860 BF00    E_60    NOP
 1067 00000862 1C49            ADDS             R1,R1,#1
 1068 00000864 4291            CMP              R1,R2
 1069 00000866 D301            BLO              C_31
 1070 00000868 488C            LDR              R0,=End_OF
 1071 0000086A 4700            BX               R0
 1072 0000086C BF00    C_31    NOP
 1073 0000086E 489D            LDR              R0,=W_55
 1074 00000870 4700    B_55    BX               R0
 1075 00000872 BF00    E_55    NOP
 1076 00000874 2900            CMP              R1,#0
 1077 00000876 D101            BNE              C_32
 1078 00000878 488A            LDR              R0,=End_UF
 1079 0000087A 4700            BX               R0
 1080 0000087C 1E49    C_32    SUBS             R1,R1,#1
 1081 0000087E 7808    W_61    LDRB             R0,[R1,#0]
 1082 00000880 2800            CMP              R0,#0
 1083 00000882 D000            BEQ              BE_61
 1084 00000884 E001            B                A_61
 1085 00000886 488A    BE_61   LDR              R0,=E_61



ARM Macro Assembler    Page 22 Lab 7 prelab


 1086 00000888 4700            BX               R0
 1087 0000088A BF00    A_61    NOP
 1088 0000088C 2900            CMP              R1,#0
 1089 0000088E D101            BNE              C_33
 1090 00000890 4884            LDR              R0,=End_UF
 1091 00000892 4700            BX               R0
 1092 00000894 1E89    C_33    SUBS             R1,R1,#2
 1093 00000896 7808            LDRB             R0,[R1,#0]
 1094 00000898 F7FF FFFE       BL               PutChar
 1095 0000089C 1C49            ADDS             R1,R1,#1
 1096 0000089E 4291            CMP              R1,R2
 1097 000008A0 D301            BLO              C_34
 1098 000008A2 487E            LDR              R0,=End_OF
 1099 000008A4 4700            BX               R0
 1100 000008A6 BF00    C_34    NOP
 1101 000008A8 7808            LDRB             R0,[R1,#0]
 1102 000008AA F7FF FFFE       BL               PutChar
 1103 000008AE 7808            LDRB             R0,[R1,#0]
 1104 000008B0 F7FF FFFE       BL               PutChar
 1105 000008B4 2900            CMP              R1,#0
 1106 000008B6 D101            BNE              C_35
 1107 000008B8 487A            LDR              R0,=End_UF
 1108 000008BA 4700            BX               R0
 1109 000008BC 1E49    C_35    SUBS             R1,R1,#1
 1110 000008BE 7808            LDRB             R0,[R1,#0]
 1111 000008C0 F7FF FFFE       BL               PutChar
 1112 000008C4 1C89            ADDS             R1,R1,#2
 1113 000008C6 4291            CMP              R1,R2
 1114 000008C8 D301            BLO              C_36
 1115 000008CA 4874            LDR              R0,=End_OF
 1116 000008CC 4700            BX               R0
 1117 000008CE BF00    C_36    NOP
 1118 000008D0 7808            LDRB             R0,[R1,#0]
 1119 000008D2 1E40            SUBS             R0,R0,#1
 1120 000008D4 7008            STRB             R0,[R1,#0]
 1121 000008D6 488A            LDR              R0,=W_61
 1122 000008D8 4700    B_61    BX               R0
 1123 000008DA BF00    E_61    NOP
 1124 000008DC 1C49            ADDS             R1,R1,#1
 1125 000008DE 4291            CMP              R1,R2
 1126 000008E0 D301            BLO              C_37
 1127 000008E2 486E            LDR              R0,=End_OF
 1128 000008E4 4700            BX               R0
 1129 000008E6 BF00    C_37    NOP
 1130 000008E8 4887            LDR              R0,=W_54
 1131 000008EA 4700    B_54    BX               R0
 1132 000008EC BF00    E_54    NOP
 1133 000008EE 2900            CMP              R1,#0
 1134 000008F0 D101            BNE              C_38
 1135 000008F2 486C            LDR              R0,=End_UF
 1136 000008F4 4700            BX               R0
 1137 000008F6 1E49    C_38    SUBS             R1,R1,#1
 1138 000008F8 7808    W_62    LDRB             R0,[R1,#0]
 1139 000008FA 2800            CMP              R0,#0
 1140 000008FC D000            BEQ              BE_62
 1141 000008FE E001            B                A_62
 1142 00000900 486C    BE_62   LDR              R0,=E_62
 1143 00000902 4700            BX               R0
 1144 00000904 BF00    A_62    NOP



ARM Macro Assembler    Page 23 Lab 7 prelab


 1145 00000906 2900            CMP              R1,#0
 1146 00000908 D101            BNE              C_39
 1147 0000090A 4866            LDR              R0,=End_UF
 1148 0000090C 4700            BX               R0
 1149 0000090E 1E49    C_39    SUBS             R1,R1,#1
 1150 00000910 7808            LDRB             R0,[R1,#0]
 1151 00000912 F7FF FFFE       BL               PutChar
 1152 00000916 2900            CMP              R1,#0
 1153 00000918 D101            BNE              C_40
 1154 0000091A 4862            LDR              R0,=End_UF
 1155 0000091C 4700            BX               R0
 1156 0000091E 1E49    C_40    SUBS             R1,R1,#1
 1157 00000920 7808            LDRB             R0,[R1,#0]
 1158 00000922 F7FF FFFE       BL               PutChar
 1159 00000926 7808            LDRB             R0,[R1,#0]
 1160 00000928 F7FF FFFE       BL               PutChar
 1161 0000092C 1C89            ADDS             R1,R1,#2
 1162 0000092E 4291            CMP              R1,R2
 1163 00000930 D301            BLO              C_41
 1164 00000932 485A            LDR              R0,=End_OF
 1165 00000934 4700            BX               R0
 1166 00000936 BF00    C_41    NOP
 1167 00000938 7808            LDRB             R0,[R1,#0]
 1168 0000093A 1E40            SUBS             R0,R0,#1
 1169 0000093C 7008            STRB             R0,[R1,#0]
 1170 0000093E 4878            LDR              R0,=W_62
 1171 00000940 4700    B_62    BX               R0
 1172 00000942 BF00    E_62    NOP
 1173 00000944 1C49            ADDS             R1,R1,#1
 1174 00000946 4291            CMP              R1,R2
 1175 00000948 D301            BLO              C_42
 1176 0000094A 4854            LDR              R0,=End_OF
 1177 0000094C 4700            BX               R0
 1178 0000094E BF00    C_42    NOP
 1179 00000950 4875            LDR              R0,=W_53
 1180 00000952 4700    B_53    BX               R0
 1181 00000954 BF00    E_53    NOP
 1182 00000956 2900            CMP              R1,#0
 1183 00000958 D101            BNE              C_43
 1184 0000095A 4852            LDR              R0,=End_UF
 1185 0000095C 4700            BX               R0
 1186 0000095E 1E49    C_43    SUBS             R1,R1,#1
 1187 00000960 7808    W_63    LDRB             R0,[R1,#0]
 1188 00000962 2800            CMP              R0,#0
 1189 00000964 D000            BEQ              BE_63
 1190 00000966 E001            B                A_63
 1191 00000968 4854    BE_63   LDR              R0,=E_63
 1192 0000096A 4700            BX               R0
 1193 0000096C BF00    A_63    NOP
 1194 0000096E 2900            CMP              R1,#0
 1195 00000970 D101            BNE              C_44
 1196 00000972 484C            LDR              R0,=End_UF
 1197 00000974 4700            BX               R0
 1198 00000976 1E49    C_44    SUBS             R1,R1,#1
 1199 00000978 7808            LDRB             R0,[R1,#0]
 1200 0000097A F7FF FFFE       BL               PutChar
 1201 0000097E 7808            LDRB             R0,[R1,#0]
 1202 00000980 F7FF FFFE       BL               PutChar
 1203 00000984 7808            LDRB             R0,[R1,#0]



ARM Macro Assembler    Page 24 Lab 7 prelab


 1204 00000986 F7FF FFFE       BL               PutChar
 1205 0000098A 2900            CMP              R1,#0
 1206 0000098C D101            BNE              C_45
 1207 0000098E 4845            LDR              R0,=End_UF
 1208 00000990 4700            BX               R0
 1209 00000992 1E49    C_45    SUBS             R1,R1,#1
 1210 00000994 7808            LDRB             R0,[R1,#0]
 1211 00000996 F7FF FFFE       BL               PutChar
 1212 0000099A 1C89            ADDS             R1,R1,#2
 1213 0000099C 4291            CMP              R1,R2
 1214 0000099E D301            BLO              C_46
 1215 000009A0 483E            LDR              R0,=End_OF
 1216 000009A2 4700            BX               R0
 1217 000009A4 BF00    C_46    NOP
 1218 000009A6 7808            LDRB             R0,[R1,#0]
 1219 000009A8 1E40            SUBS             R0,R0,#1
 1220 000009AA 7008            STRB             R0,[R1,#0]
 1221 000009AC 4864            LDR              R0,=W_63
 1222 000009AE 4700    B_63    BX               R0
 1223 000009B0 BF00    E_63    NOP
 1224 000009B2 1C49            ADDS             R1,R1,#1
 1225 000009B4 4291            CMP              R1,R2
 1226 000009B6 D301            BLO              C_47
 1227 000009B8 4838            LDR              R0,=End_OF
 1228 000009BA 4700            BX               R0
 1229 000009BC BF00    C_47    NOP
 1230 000009BE 4862            LDR              R0,=W_52
 1231 000009C0 4700    B_52    BX               R0
 1232 000009C2 BF00    E_52    NOP
 1233 000009C4 2900            CMP              R1,#0
 1234 000009C6 D101            BNE              C_48
 1235 000009C8 4836            LDR              R0,=End_UF
 1236 000009CA 4700            BX               R0
 1237 000009CC 1E49    C_48    SUBS             R1,R1,#1
 1238 000009CE 7808    W_64    LDRB             R0,[R1,#0]
 1239 000009D0 2800            CMP              R0,#0
 1240 000009D2 D000            BEQ              BE_64
 1241 000009D4 E001            B                A_64
 1242 000009D6 483B    BE_64   LDR              R0,=E_64
 1243 000009D8 4700            BX               R0
 1244 000009DA BF00    A_64    NOP
 1245 000009DC 2900            CMP              R1,#0
 1246 000009DE D101            BNE              C_49
 1247 000009E0 4830            LDR              R0,=End_UF
 1248 000009E2 4700            BX               R0
 1249 000009E4 1E49    C_49    SUBS             R1,R1,#1
 1250 000009E6 7808            LDRB             R0,[R1,#0]
 1251 000009E8 F7FF FFFE       BL               PutChar
 1252 000009EC 7808            LDRB             R0,[R1,#0]
 1253 000009EE F7FF FFFE       BL               PutChar
 1254 000009F2 2900            CMP              R1,#0
 1255 000009F4 D101            BNE              C_50
 1256 000009F6 482B            LDR              R0,=End_UF
 1257 000009F8 4700            BX               R0
 1258 000009FA 1E49    C_50    SUBS             R1,R1,#1
 1259 000009FC 7808            LDRB             R0,[R1,#0]
 1260 000009FE F7FF FFFE       BL               PutChar
 1261 00000A02 1C89            ADDS             R1,R1,#2
 1262 00000A04 4291            CMP              R1,R2



ARM Macro Assembler    Page 25 Lab 7 prelab


 1263 00000A06 D301            BLO              C_51
 1264 00000A08 4824            LDR              R0,=End_OF
 1265 00000A0A 4700            BX               R0
 1266 00000A0C BF00    C_51    NOP
 1267 00000A0E 7808            LDRB             R0,[R1,#0]
 1268 00000A10 1E40            SUBS             R0,R0,#1
 1269 00000A12 7008            STRB             R0,[R1,#0]
 1270 00000A14 4852            LDR              R0,=W_64
 1271 00000A16 4700    B_64    BX               R0
 1272 00000A18 BF00    E_64    NOP
 1273 00000A1A 1C49            ADDS             R1,R1,#1
 1274 00000A1C 4291            CMP              R1,R2
 1275 00000A1E D301            BLO              C_52
 1276 00000A20 481E            LDR              R0,=End_OF
 1277 00000A22 4700            BX               R0
 1278 00000A24 BF00    C_52    NOP
 1279 00000A26 4850            LDR              R0,=W_51
 1280 00000A28 4700    B_51    BX               R0
 1281 00000A2A BF00    E_51    NOP
 1282 00000A2C 2900            CMP              R1,#0
 1283 00000A2E D101            BNE              C_53
 1284 00000A30 481C            LDR              R0,=End_UF
 1285 00000A32 4700            BX               R0
 1286 00000A34 1E49    C_53    SUBS             R1,R1,#1
 1287 00000A36 7808    W_65    LDRB             R0,[R1,#0]
 1288 00000A38 2800            CMP              R0,#0
 1289 00000A3A D000            BEQ              BE_65
 1290 00000A3C E001            B                A_65
 1291 00000A3E 4822    BE_65   LDR              R0,=E_65
 1292 00000A40 4700            BX               R0
 1293 00000A42 BF00    A_65    NOP
 1294 00000A44 2900            CMP              R1,#0
 1295 00000A46 D101            BNE              C_54
 1296 00000A48 4816            LDR              R0,=End_UF
 1297 00000A4A 4700            BX               R0
 1298 00000A4C 1E89    C_54    SUBS             R1,R1,#2
 1299 00000A4E 7808            LDRB             R0,[R1,#0]
 1300 00000A50 F7FF FFFE       BL               PutChar
 1301 00000A54 1C89            ADDS             R1,R1,#2
 1302 00000A56 4291            CMP              R1,R2
 1303 00000A58 D301            BLO              C_55
 1304 00000A5A 4810            LDR              R0,=End_OF
 1305 00000A5C 4700            BX               R0
 1306 00000A5E BF00    C_55    NOP
 1307 00000A60 7808            LDRB             R0,[R1,#0]
 1308 00000A62 1E40            SUBS             R0,R0,#1
 1309 00000A64 7008            STRB             R0,[R1,#0]
 1310 00000A66 4845            LDR              R0,=W_65
 1311 00000A68 4700    B_65    BX               R0
 1312 00000A6A BF00    E_65    NOP
 1313 00000A6C 1C49            ADDS             R1,R1,#1
 1314 00000A6E 4291            CMP              R1,R2
 1315 00000A70 D301            BLO              C_56
 1316 00000A72 480A            LDR              R0,=End_OF
 1317 00000A74 4700            BX               R0
 1318 00000A76 BF00    C_56    NOP
 1319 00000A78 4842            LDR              R0,=W_50
 1320 00000A7A 4700    B_50    BX               R0
 1321 00000A7C BF00    E_50    NOP



ARM Macro Assembler    Page 26 Lab 7 prelab


 1322 00000A7E 2900            CMP              R1,#0
 1323 00000A80 D101            BNE              C_57
 1324 00000A82 4808            LDR              R0,=End_UF
 1325 00000A84 4700            BX               R0
 1326 00000A86 1E49    C_57    SUBS             R1,R1,#1
 1327 00000A88 7808    W_66    LDRB             R0,[R1,#0]
 1328 00000A8A 2800            CMP              R0,#0
 1329 00000A8C D000            BEQ              BE_66
 1330 00000A8E E001            B                A_66
 1331 00000A90 480E    BE_66   LDR              R0,=E_66
 1332 00000A92 4700            BX               R0
 1333 00000A94 BF00    A_66    NOP
 1334 00000A96 E07B            B                L_2
 1335 00000A98 00000000 
              00000000 
              00000000 
              00000000 
              00000000 
              00000000 
              00000000 
              00000000 
              00000000 
              00000000 
              00000000 
              00000000 
              00000000 
              00000000 
              00000000 
              00000000 
              00000000 
              00000000 
              00000000 
              00000000 
              00000000 
              00000000 
              00000000 
              00000000 
              00000000 
              00000000 
              00000000 
              00000000 
              00000000 
              00000000 
              00000000 
              00000000 
              00000000 
              00000000 
              00000000 
              00000000 
              00000000 
              00000000 
              00000000 
              00000000 
              00000000 
              00000000 
              00000000 
              00000000 
              00000000 
              00000000 



ARM Macro Assembler    Page 27 Lab 7 prelab


              00000000 
              00000000 
              00000000 
              00000000 
              00000000 
              00000000 
              00000000 
              00000000 
              00000000 
              00000000 
              00000000 
              00000000 
              00000000 
              00000000 
              00000000 
              00000000         LTORG
 1336 00000B90 BF00    L_2     NOP
 1337 00000B92 2900            CMP              R1,#0
 1338 00000B94 D101            BNE              C_58
 1339 00000B96 48C8            LDR              R0,=End_UF
 1340 00000B98 4700            BX               R0
 1341 00000B9A 1E49    C_58    SUBS             R1,R1,#1
 1342 00000B9C 7808            LDRB             R0,[R1,#0]
 1343 00000B9E F7FF FFFE       BL               PutChar
 1344 00000BA2 7808            LDRB             R0,[R1,#0]
 1345 00000BA4 F7FF FFFE       BL               PutChar
 1346 00000BA8 7808            LDRB             R0,[R1,#0]
 1347 00000BAA F7FF FFFE       BL               PutChar
 1348 00000BAE 1C49            ADDS             R1,R1,#1
 1349 00000BB0 4291            CMP              R1,R2
 1350 00000BB2 D301            BLO              C_59
 1351 00000BB4 48C1            LDR              R0,=End_OF
 1352 00000BB6 4700            BX               R0
 1353 00000BB8 BF00    C_59    NOP
 1354 00000BBA 7808            LDRB             R0,[R1,#0]
 1355 00000BBC 1E40            SUBS             R0,R0,#1
 1356 00000BBE 7008            STRB             R0,[R1,#0]
 1357 00000BC0 48BF            LDR              R0,=W_66
 1358 00000BC2 4700    B_66    BX               R0
 1359 00000BC4 BF00    E_66    NOP
 1360 00000BC6 1C49            ADDS             R1,R1,#1
 1361 00000BC8 4291            CMP              R1,R2
 1362 00000BCA D301            BLO              C_60
 1363 00000BCC 48BB            LDR              R0,=End_OF
 1364 00000BCE 4700            BX               R0
 1365 00000BD0 BF00    C_60    NOP
 1366 00000BD2 48BD            LDR              R0,=W_49
 1367 00000BD4 4700    B_49    BX               R0
 1368 00000BD6 BF00    E_49    NOP
 1369 00000BD8 2900            CMP              R1,#0
 1370 00000BDA D101            BNE              C_61
 1371 00000BDC 48B6            LDR              R0,=End_UF
 1372 00000BDE 4700            BX               R0
 1373 00000BE0 1E49    C_61    SUBS             R1,R1,#1
 1374 00000BE2 7808    W_67    LDRB             R0,[R1,#0]
 1375 00000BE4 2800            CMP              R0,#0
 1376 00000BE6 D000            BEQ              BE_67
 1377 00000BE8 E001            B                A_67
 1378 00000BEA 48B6    BE_67   LDR              R0,=E_67



ARM Macro Assembler    Page 28 Lab 7 prelab


 1379 00000BEC 4700            BX               R0
 1380 00000BEE BF00    A_67    NOP
 1381 00000BF0 2900            CMP              R1,#0
 1382 00000BF2 D101            BNE              C_62
 1383 00000BF4 48B0            LDR              R0,=End_UF
 1384 00000BF6 4700            BX               R0
 1385 00000BF8 1E49    C_62    SUBS             R1,R1,#1
 1386 00000BFA 7808            LDRB             R0,[R1,#0]
 1387 00000BFC F7FF FFFE       BL               PutChar
 1388 00000C00 2900            CMP              R1,#0
 1389 00000C02 D101            BNE              C_63
 1390 00000C04 48AC            LDR              R0,=End_UF
 1391 00000C06 4700            BX               R0
 1392 00000C08 1E49    C_63    SUBS             R1,R1,#1
 1393 00000C0A 7808            LDRB             R0,[R1,#0]
 1394 00000C0C F7FF FFFE       BL               PutChar
 1395 00000C10 1C49            ADDS             R1,R1,#1
 1396 00000C12 4291            CMP              R1,R2
 1397 00000C14 D301            BLO              C_64
 1398 00000C16 48A9            LDR              R0,=End_OF
 1399 00000C18 4700            BX               R0
 1400 00000C1A BF00    C_64    NOP
 1401 00000C1C 7808            LDRB             R0,[R1,#0]
 1402 00000C1E F7FF FFFE       BL               PutChar
 1403 00000C22 1C49            ADDS             R1,R1,#1
 1404 00000C24 4291            CMP              R1,R2
 1405 00000C26 D301            BLO              C_65
 1406 00000C28 48A4            LDR              R0,=End_OF
 1407 00000C2A 4700            BX               R0
 1408 00000C2C BF00    C_65    NOP
 1409 00000C2E 7808            LDRB             R0,[R1,#0]
 1410 00000C30 1E40            SUBS             R0,R0,#1
 1411 00000C32 7008            STRB             R0,[R1,#0]
 1412 00000C34 48AB            LDR              R0,=W_67
 1413 00000C36 4700    B_67    BX               R0
 1414 00000C38 BF00    E_67    NOP
 1415 00000C3A 1C49            ADDS             R1,R1,#1
 1416 00000C3C 4291            CMP              R1,R2
 1417 00000C3E D301            BLO              C_66
 1418 00000C40 489E            LDR              R0,=End_OF
 1419 00000C42 4700            BX               R0
 1420 00000C44 BF00    C_66    NOP
 1421 00000C46 48A9            LDR              R0,=W_48
 1422 00000C48 4700    B_48    BX               R0
 1423 00000C4A BF00    E_48    NOP
 1424 00000C4C 2900            CMP              R1,#0
 1425 00000C4E D101            BNE              C_67
 1426 00000C50 4899            LDR              R0,=End_UF
 1427 00000C52 4700            BX               R0
 1428 00000C54 1E49    C_67    SUBS             R1,R1,#1
 1429 00000C56 7808    W_68    LDRB             R0,[R1,#0]
 1430 00000C58 2800            CMP              R0,#0
 1431 00000C5A D000            BEQ              BE_68
 1432 00000C5C E001            B                A_68
 1433 00000C5E 489B    BE_68   LDR              R0,=E_68
 1434 00000C60 4700            BX               R0
 1435 00000C62 BF00    A_68    NOP
 1436 00000C64 2900            CMP              R1,#0
 1437 00000C66 D101            BNE              C_68



ARM Macro Assembler    Page 29 Lab 7 prelab


 1438 00000C68 4893            LDR              R0,=End_UF
 1439 00000C6A 4700            BX               R0
 1440 00000C6C 1E89    C_68    SUBS             R1,R1,#2
 1441 00000C6E 7808            LDRB             R0,[R1,#0]
 1442 00000C70 F7FF FFFE       BL               PutChar
 1443 00000C74 7808            LDRB             R0,[R1,#0]
 1444 00000C76 F7FF FFFE       BL               PutChar
 1445 00000C7A 1C49            ADDS             R1,R1,#1
 1446 00000C7C 4291            CMP              R1,R2
 1447 00000C7E D301            BLO              C_69
 1448 00000C80 488E            LDR              R0,=End_OF
 1449 00000C82 4700            BX               R0
 1450 00000C84 BF00    C_69    NOP
 1451 00000C86 7808            LDRB             R0,[R1,#0]
 1452 00000C88 F7FF FFFE       BL               PutChar
 1453 00000C8C 2900            CMP              R1,#0
 1454 00000C8E D101            BNE              C_70
 1455 00000C90 4889            LDR              R0,=End_UF
 1456 00000C92 4700            BX               R0
 1457 00000C94 1E49    C_70    SUBS             R1,R1,#1
 1458 00000C96 7808            LDRB             R0,[R1,#0]
 1459 00000C98 F7FF FFFE       BL               PutChar
 1460 00000C9C 1C89            ADDS             R1,R1,#2
 1461 00000C9E 4291            CMP              R1,R2
 1462 00000CA0 D301            BLO              C_71
 1463 00000CA2 4886            LDR              R0,=End_OF
 1464 00000CA4 4700            BX               R0
 1465 00000CA6 BF00    C_71    NOP
 1466 00000CA8 7808            LDRB             R0,[R1,#0]
 1467 00000CAA 1E40            SUBS             R0,R0,#1
 1468 00000CAC 7008            STRB             R0,[R1,#0]
 1469 00000CAE 4896            LDR              R0,=W_68
 1470 00000CB0 4700    B_68    BX               R0
 1471 00000CB2 BF00    E_68    NOP
 1472 00000CB4 1C49            ADDS             R1,R1,#1
 1473 00000CB6 4291            CMP              R1,R2
 1474 00000CB8 D301            BLO              C_72
 1475 00000CBA 4880            LDR              R0,=End_OF
 1476 00000CBC 4700            BX               R0
 1477 00000CBE BF00    C_72    NOP
 1478 00000CC0 4893            LDR              R0,=W_47
 1479 00000CC2 4700    B_47    BX               R0
 1480 00000CC4 BF00    E_47    NOP
 1481 00000CC6 2900            CMP              R1,#0
 1482 00000CC8 D101            BNE              C_73
 1483 00000CCA 487B            LDR              R0,=End_UF
 1484 00000CCC 4700            BX               R0
 1485 00000CCE 1E49    C_73    SUBS             R1,R1,#1
 1486 00000CD0 7808    W_69    LDRB             R0,[R1,#0]
 1487 00000CD2 2800            CMP              R0,#0
 1488 00000CD4 D000            BEQ              BE_69
 1489 00000CD6 E001            B                A_69
 1490 00000CD8 487D    BE_69   LDR              R0,=E_69
 1491 00000CDA 4700            BX               R0
 1492 00000CDC BF00    A_69    NOP
 1493 00000CDE 2900            CMP              R1,#0
 1494 00000CE0 D101            BNE              C_74
 1495 00000CE2 4875            LDR              R0,=End_UF
 1496 00000CE4 4700            BX               R0



ARM Macro Assembler    Page 30 Lab 7 prelab


 1497 00000CE6 1E49    C_74    SUBS             R1,R1,#1
 1498 00000CE8 7808            LDRB             R0,[R1,#0]
 1499 00000CEA F7FF FFFE       BL               PutChar
 1500 00000CEE 2900            CMP              R1,#0
 1501 00000CF0 D101            BNE              C_75
 1502 00000CF2 4871            LDR              R0,=End_UF
 1503 00000CF4 4700            BX               R0
 1504 00000CF6 1E49    C_75    SUBS             R1,R1,#1
 1505 00000CF8 7808            LDRB             R0,[R1,#0]
 1506 00000CFA F7FF FFFE       BL               PutChar
 1507 00000CFE 7808            LDRB             R0,[R1,#0]
 1508 00000D00 F7FF FFFE       BL               PutChar
 1509 00000D04 1C49            ADDS             R1,R1,#1
 1510 00000D06 4291            CMP              R1,R2
 1511 00000D08 D301            BLO              C_76
 1512 00000D0A 486C            LDR              R0,=End_OF
 1513 00000D0C 4700            BX               R0
 1514 00000D0E BF00    C_76    NOP
 1515 00000D10 7808            LDRB             R0,[R1,#0]
 1516 00000D12 F7FF FFFE       BL               PutChar
 1517 00000D16 1C49            ADDS             R1,R1,#1
 1518 00000D18 4291            CMP              R1,R2
 1519 00000D1A D301            BLO              C_77
 1520 00000D1C 4867            LDR              R0,=End_OF
 1521 00000D1E 4700            BX               R0
 1522 00000D20 BF00    C_77    NOP
 1523 00000D22 7808            LDRB             R0,[R1,#0]
 1524 00000D24 1E40            SUBS             R0,R0,#1
 1525 00000D26 7008            STRB             R0,[R1,#0]
 1526 00000D28 4880            LDR              R0,=W_69
 1527 00000D2A 4700    B_69    BX               R0
 1528 00000D2C BF00    E_69    NOP
 1529 00000D2E 1C49            ADDS             R1,R1,#1
 1530 00000D30 4291            CMP              R1,R2
 1531 00000D32 D301            BLO              C_78
 1532 00000D34 4861            LDR              R0,=End_OF
 1533 00000D36 4700            BX               R0
 1534 00000D38 BF00    C_78    NOP
 1535 00000D3A 487E            LDR              R0,=W_46
 1536 00000D3C 4700    B_46    BX               R0
 1537 00000D3E BF00    E_46    NOP
 1538 00000D40 2900            CMP              R1,#0
 1539 00000D42 D101            BNE              C_79
 1540 00000D44 485C            LDR              R0,=End_UF
 1541 00000D46 4700            BX               R0
 1542 00000D48 1E49    C_79    SUBS             R1,R1,#1
 1543 00000D4A 7808    W_70    LDRB             R0,[R1,#0]
 1544 00000D4C 2800            CMP              R0,#0
 1545 00000D4E D000            BEQ              BE_70
 1546 00000D50 E001            B                A_70
 1547 00000D52 4860    BE_70   LDR              R0,=E_70
 1548 00000D54 4700            BX               R0
 1549 00000D56 BF00    A_70    NOP
 1550 00000D58 2900            CMP              R1,#0
 1551 00000D5A D101            BNE              C_80
 1552 00000D5C 4856            LDR              R0,=End_UF
 1553 00000D5E 4700            BX               R0
 1554 00000D60 1E89    C_80    SUBS             R1,R1,#2
 1555 00000D62 7808            LDRB             R0,[R1,#0]



ARM Macro Assembler    Page 31 Lab 7 prelab


 1556 00000D64 F7FF FFFE       BL               PutChar
 1557 00000D68 7808            LDRB             R0,[R1,#0]
 1558 00000D6A F7FF FFFE       BL               PutChar
 1559 00000D6E 7808            LDRB             R0,[R1,#0]
 1560 00000D70 F7FF FFFE       BL               PutChar
 1561 00000D74 1C89            ADDS             R1,R1,#2
 1562 00000D76 4291            CMP              R1,R2
 1563 00000D78 D301            BLO              C_81
 1564 00000D7A 4850            LDR              R0,=End_OF
 1565 00000D7C 4700            BX               R0
 1566 00000D7E BF00    C_81    NOP
 1567 00000D80 7808            LDRB             R0,[R1,#0]
 1568 00000D82 1E40            SUBS             R0,R0,#1
 1569 00000D84 7008            STRB             R0,[R1,#0]
 1570 00000D86 4870            LDR              R0,=W_70
 1571 00000D88 4700    B_70    BX               R0
 1572 00000D8A BF00    E_70    NOP
 1573 00000D8C 1C49            ADDS             R1,R1,#1
 1574 00000D8E 4291            CMP              R1,R2
 1575 00000D90 D301            BLO              C_82
 1576 00000D92 484A            LDR              R0,=End_OF
 1577 00000D94 4700            BX               R0
 1578 00000D96 BF00    C_82    NOP
 1579 00000D98 486D            LDR              R0,=W_45
 1580 00000D9A 4700    B_45    BX               R0
 1581 00000D9C BF00    E_45    NOP
 1582 00000D9E 2900            CMP              R1,#0
 1583 00000DA0 D101            BNE              C_83
 1584 00000DA2 4845            LDR              R0,=End_UF
 1585 00000DA4 4700            BX               R0
 1586 00000DA6 1E49    C_83    SUBS             R1,R1,#1
 1587 00000DA8 7808    W_71    LDRB             R0,[R1,#0]
 1588 00000DAA 2800            CMP              R0,#0
 1589 00000DAC D000            BEQ              BE_71
 1590 00000DAE E001            B                A_71
 1591 00000DB0 4849    BE_71   LDR              R0,=E_71
 1592 00000DB2 4700            BX               R0
 1593 00000DB4 BF00    A_71    NOP
 1594 00000DB6 2900            CMP              R1,#0
 1595 00000DB8 D101            BNE              C_84
 1596 00000DBA 483F            LDR              R0,=End_UF
 1597 00000DBC 4700            BX               R0
 1598 00000DBE 1E89    C_84    SUBS             R1,R1,#2
 1599 00000DC0 7808            LDRB             R0,[R1,#0]
 1600 00000DC2 F7FF FFFE       BL               PutChar
 1601 00000DC6 1C49            ADDS             R1,R1,#1
 1602 00000DC8 4291            CMP              R1,R2
 1603 00000DCA D301            BLO              C_85
 1604 00000DCC 483B            LDR              R0,=End_OF
 1605 00000DCE 4700            BX               R0
 1606 00000DD0 BF00    C_85    NOP
 1607 00000DD2 7808            LDRB             R0,[R1,#0]
 1608 00000DD4 F7FF FFFE       BL               PutChar
 1609 00000DD8 1C49            ADDS             R1,R1,#1
 1610 00000DDA 4291            CMP              R1,R2
 1611 00000DDC D301            BLO              C_86
 1612 00000DDE 4837            LDR              R0,=End_OF
 1613 00000DE0 4700            BX               R0
 1614 00000DE2 BF00    C_86    NOP



ARM Macro Assembler    Page 32 Lab 7 prelab


 1615 00000DE4 7808            LDRB             R0,[R1,#0]
 1616 00000DE6 1E40            SUBS             R0,R0,#1
 1617 00000DE8 7008            STRB             R0,[R1,#0]
 1618 00000DEA 485F            LDR              R0,=W_71
 1619 00000DEC 4700    B_71    BX               R0
 1620 00000DEE BF00    E_71    NOP
 1621 00000DF0 1C49            ADDS             R1,R1,#1
 1622 00000DF2 4291            CMP              R1,R2
 1623 00000DF4 D301            BLO              C_87
 1624 00000DF6 4831            LDR              R0,=End_OF
 1625 00000DF8 4700            BX               R0
 1626 00000DFA BF00    C_87    NOP
 1627 00000DFC 485C            LDR              R0,=W_44
 1628 00000DFE 4700    B_44    BX               R0
 1629 00000E00 BF00    E_44    NOP
 1630 00000E02 2900            CMP              R1,#0
 1631 00000E04 D101            BNE              C_88
 1632 00000E06 482C            LDR              R0,=End_UF
 1633 00000E08 4700            BX               R0
 1634 00000E0A 1E49    C_88    SUBS             R1,R1,#1
 1635 00000E0C 7808    W_72    LDRB             R0,[R1,#0]
 1636 00000E0E 2800            CMP              R0,#0
 1637 00000E10 D000            BEQ              BE_72
 1638 00000E12 E001            B                A_72
 1639 00000E14 4831    BE_72   LDR              R0,=E_72
 1640 00000E16 4700            BX               R0
 1641 00000E18 BF00    A_72    NOP
 1642 00000E1A 2900            CMP              R1,#0
 1643 00000E1C D101            BNE              C_89
 1644 00000E1E 4826            LDR              R0,=End_UF
 1645 00000E20 4700            BX               R0
 1646 00000E22 1E89    C_89    SUBS             R1,R1,#2
 1647 00000E24 7808            LDRB             R0,[R1,#0]
 1648 00000E26 F7FF FFFE       BL               PutChar
 1649 00000E2A 7808            LDRB             R0,[R1,#0]
 1650 00000E2C F7FF FFFE       BL               PutChar
 1651 00000E30 1C89            ADDS             R1,R1,#2
 1652 00000E32 4291            CMP              R1,R2
 1653 00000E34 D301            BLO              C_90
 1654 00000E36 4821            LDR              R0,=End_OF
 1655 00000E38 4700            BX               R0
 1656 00000E3A BF00    C_90    NOP
 1657 00000E3C 7808            LDRB             R0,[R1,#0]
 1658 00000E3E 1E40            SUBS             R0,R0,#1
 1659 00000E40 7008            STRB             R0,[R1,#0]
 1660 00000E42 4850            LDR              R0,=W_72
 1661 00000E44 4700    B_72    BX               R0
 1662 00000E46 BF00    E_72    NOP
 1663 00000E48 1C49            ADDS             R1,R1,#1
 1664 00000E4A 4291            CMP              R1,R2
 1665 00000E4C D301            BLO              C_91
 1666 00000E4E 481B            LDR              R0,=End_OF
 1667 00000E50 4700            BX               R0
 1668 00000E52 BF00    C_91    NOP
 1669 00000E54 484D            LDR              R0,=W_43
 1670 00000E56 4700    B_43    BX               R0
 1671 00000E58 BF00    E_43    NOP
 1672 00000E5A 2900            CMP              R1,#0
 1673 00000E5C D101            BNE              C_92



ARM Macro Assembler    Page 33 Lab 7 prelab


 1674 00000E5E 4816            LDR              R0,=End_UF
 1675 00000E60 4700            BX               R0
 1676 00000E62 1E49    C_92    SUBS             R1,R1,#1
 1677 00000E64 7808    W_73    LDRB             R0,[R1,#0]
 1678 00000E66 2800            CMP              R0,#0
 1679 00000E68 D000            BEQ              BE_73
 1680 00000E6A E001            B                A_73
 1681 00000E6C 481C    BE_73   LDR              R0,=E_73
 1682 00000E6E 4700            BX               R0
 1683 00000E70 BF00    A_73    NOP
 1684 00000E72 2900            CMP              R1,#0
 1685 00000E74 D101            BNE              C_93
 1686 00000E76 4810            LDR              R0,=End_UF
 1687 00000E78 4700            BX               R0
 1688 00000E7A 1E49    C_93    SUBS             R1,R1,#1
 1689 00000E7C 7808            LDRB             R0,[R1,#0]
 1690 00000E7E F7FF FFFE       BL               PutChar
 1691 00000E82 2900            CMP              R1,#0
 1692 00000E84 D101            BNE              C_94
 1693 00000E86 480C            LDR              R0,=End_UF
 1694 00000E88 4700            BX               R0
 1695 00000E8A 1E49    C_94    SUBS             R1,R1,#1
 1696 00000E8C 7808            LDRB             R0,[R1,#0]
 1697 00000E8E F7FF FFFE       BL               PutChar
 1698 00000E92 1C49            ADDS             R1,R1,#1
 1699 00000E94 4291            CMP              R1,R2
 1700 00000E96 D301            BLO              C_95
 1701 00000E98 4808            LDR              R0,=End_OF
 1702 00000E9A 4700            BX               R0
 1703 00000E9C BF00    C_95    NOP
 1704 00000E9E 7808            LDRB             R0,[R1,#0]
 1705 00000EA0 F7FF FFFE       BL               PutChar
 1706 00000EA4 7808            LDRB             R0,[R1,#0]
 1707 00000EA6 F7FF FFFE       BL               PutChar
 1708 00000EAA 1C49            ADDS             R1,R1,#1
 1709 00000EAC 4291            CMP              R1,R2
 1710 00000EAE D301            BLO              C_96
 1711 00000EB0 4802            LDR              R0,=End_OF
 1712 00000EB2 4700            BX               R0
 1713 00000EB4 BF00    C_96    NOP
 1714 00000EB6 E077            B                L_3
 1715 00000EB8 00000000 
              00000000 
              00000000 
              00000000 
              00000000 
              00000000 
              00000000 
              00000000 
              00000000 
              00000000 
              00000000 
              00000000 
              00000000 
              00000000 
              00000000 
              00000000 
              00000000 
              00000000 



ARM Macro Assembler    Page 34 Lab 7 prelab


              00000000 
              00000000 
              00000000 
              00000000 
              00000000 
              00000000 
              00000000 
              00000000 
              00000000 
              00000000 
              00000000 
              00000000 
              00000000 
              00000000 
              00000000 
              00000000 
              00000000 
              00000000 
              00000000 
              00000000 
              00000000 
              00000000 
              00000000 
              00000000 
              00000000 
              00000000 
              00000000 
              00000000 
              00000000 
              00000000 
              00000000 
              00000000 
              00000000 
              00000000 
              00000000 
              00000000 
              00000000 
              00000000 
              00000000 
              00000000 
              00000000 
              00000000         LTORG
 1716 00000FA8 BF00    L_3     NOP
 1717 00000FAA 7808            LDRB             R0,[R1,#0]
 1718 00000FAC 1E40            SUBS             R0,R0,#1
 1719 00000FAE 7008            STRB             R0,[R1,#0]
 1720 00000FB0 48C8            LDR              R0,=W_73
 1721 00000FB2 4700    B_73    BX               R0
 1722 00000FB4 BF00    E_73    NOP
 1723 00000FB6 1C49            ADDS             R1,R1,#1
 1724 00000FB8 4291            CMP              R1,R2
 1725 00000FBA D301            BLO              C_97
 1726 00000FBC 48C6            LDR              R0,=End_OF
 1727 00000FBE 4700            BX               R0
 1728 00000FC0 BF00    C_97    NOP
 1729 00000FC2 48C6            LDR              R0,=W_42
 1730 00000FC4 4700    B_42    BX               R0
 1731 00000FC6 BF00    E_42    NOP
 1732 00000FC8 2900            CMP              R1,#0



ARM Macro Assembler    Page 35 Lab 7 prelab


 1733 00000FCA D101            BNE              C_98
 1734 00000FCC 48C4            LDR              R0,=End_UF
 1735 00000FCE 4700            BX               R0
 1736 00000FD0 1E49    C_98    SUBS             R1,R1,#1
 1737 00000FD2 7808    W_74    LDRB             R0,[R1,#0]
 1738 00000FD4 2800            CMP              R0,#0
 1739 00000FD6 D000            BEQ              BE_74
 1740 00000FD8 E001            B                A_74
 1741 00000FDA 48C2    BE_74   LDR              R0,=E_74
 1742 00000FDC 4700            BX               R0
 1743 00000FDE BF00    A_74    NOP
 1744 00000FE0 2900            CMP              R1,#0
 1745 00000FE2 D101            BNE              C_99
 1746 00000FE4 48BE            LDR              R0,=End_UF
 1747 00000FE6 4700            BX               R0
 1748 00000FE8 1E89    C_99    SUBS             R1,R1,#2
 1749 00000FEA 7808            LDRB             R0,[R1,#0]
 1750 00000FEC F7FF FFFE       BL               PutChar
 1751 00000FF0 1C49            ADDS             R1,R1,#1
 1752 00000FF2 4291            CMP              R1,R2
 1753 00000FF4 D301            BLO              C_100
 1754 00000FF6 48B8            LDR              R0,=End_OF
 1755 00000FF8 4700            BX               R0
 1756 00000FFA BF00    C_100   NOP
 1757 00000FFC 7808            LDRB             R0,[R1,#0]
 1758 00000FFE F7FF FFFE       BL               PutChar
 1759 00001002 2900            CMP              R1,#0
 1760 00001004 D101            BNE              C_101
 1761 00001006 48B6            LDR              R0,=End_UF
 1762 00001008 4700            BX               R0
 1763 0000100A 1E49    C_101   SUBS             R1,R1,#1
 1764 0000100C 7808            LDRB             R0,[R1,#0]
 1765 0000100E F7FF FFFE       BL               PutChar
 1766 00001012 1C89            ADDS             R1,R1,#2
 1767 00001014 4291            CMP              R1,R2
 1768 00001016 D301            BLO              C_102
 1769 00001018 48AF            LDR              R0,=End_OF
 1770 0000101A 4700            BX               R0
 1771 0000101C BF00    C_102   NOP
 1772 0000101E 7808            LDRB             R0,[R1,#0]
 1773 00001020 1E40            SUBS             R0,R0,#1
 1774 00001022 7008            STRB             R0,[R1,#0]
 1775 00001024 48B4            LDR              R0,=W_74
 1776 00001026 4700    B_74    BX               R0
 1777 00001028 BF00    E_74    NOP
 1778 0000102A 1C49            ADDS             R1,R1,#1
 1779 0000102C 4291            CMP              R1,R2
 1780 0000102E D301            BLO              C_103
 1781 00001030 48A9            LDR              R0,=End_OF
 1782 00001032 4700            BX               R0
 1783 00001034 BF00    C_103   NOP
 1784 00001036 48B2            LDR              R0,=W_41
 1785 00001038 4700    B_41    BX               R0
 1786 0000103A BF00    E_41    NOP
 1787 0000103C 2900            CMP              R1,#0
 1788 0000103E D101            BNE              C_104
 1789 00001040 48A7            LDR              R0,=End_UF
 1790 00001042 4700            BX               R0
 1791 00001044 1E49    C_104   SUBS             R1,R1,#1



ARM Macro Assembler    Page 36 Lab 7 prelab


 1792 00001046 7808    W_75    LDRB             R0,[R1,#0]
 1793 00001048 2800            CMP              R0,#0
 1794 0000104A D000            BEQ              BE_75
 1795 0000104C E001            B                A_75
 1796 0000104E 48A6    BE_75   LDR              R0,=E_75
 1797 00001050 4700            BX               R0
 1798 00001052 BF00    A_75    NOP
 1799 00001054 2900            CMP              R1,#0
 1800 00001056 D101            BNE              C_105
 1801 00001058 48A1            LDR              R0,=End_UF
 1802 0000105A 4700            BX               R0
 1803 0000105C 1E49    C_105   SUBS             R1,R1,#1
 1804 0000105E 7808            LDRB             R0,[R1,#0]
 1805 00001060 F7FF FFFE       BL               PutChar
 1806 00001064 2900            CMP              R1,#0
 1807 00001066 D101            BNE              C_106
 1808 00001068 489D            LDR              R0,=End_UF
 1809 0000106A 4700            BX               R0
 1810 0000106C 1E49    C_106   SUBS             R1,R1,#1
 1811 0000106E 7808            LDRB             R0,[R1,#0]
 1812 00001070 F7FF FFFE       BL               PutChar
 1813 00001074 7808            LDRB             R0,[R1,#0]
 1814 00001076 F7FF FFFE       BL               PutChar
 1815 0000107A 7808            LDRB             R0,[R1,#0]
 1816 0000107C F7FF FFFE       BL               PutChar
 1817 00001080 1C89            ADDS             R1,R1,#2
 1818 00001082 4291            CMP              R1,R2
 1819 00001084 D301            BLO              C_107
 1820 00001086 4894            LDR              R0,=End_OF
 1821 00001088 4700            BX               R0
 1822 0000108A BF00    C_107   NOP
 1823 0000108C 7808            LDRB             R0,[R1,#0]
 1824 0000108E 1E40            SUBS             R0,R0,#1
 1825 00001090 7008            STRB             R0,[R1,#0]
 1826 00001092 48A1            LDR              R0,=W_75
 1827 00001094 4700    B_75    BX               R0
 1828 00001096 BF00    E_75    NOP
 1829 00001098 1C49            ADDS             R1,R1,#1
 1830 0000109A 4291            CMP              R1,R2
 1831 0000109C D301            BLO              C_108
 1832 0000109E 488E            LDR              R0,=End_OF
 1833 000010A0 4700            BX               R0
 1834 000010A2 BF00    C_108   NOP
 1835 000010A4 489E            LDR              R0,=W_40
 1836 000010A6 4700    B_40    BX               R0
 1837 000010A8 BF00    E_40    NOP
 1838 000010AA 2900            CMP              R1,#0
 1839 000010AC D101            BNE              C_109
 1840 000010AE 488C            LDR              R0,=End_UF
 1841 000010B0 4700            BX               R0
 1842 000010B2 1E49    C_109   SUBS             R1,R1,#1
 1843 000010B4 7808    W_76    LDRB             R0,[R1,#0]
 1844 000010B6 2800            CMP              R0,#0
 1845 000010B8 D000            BEQ              BE_76
 1846 000010BA E001            B                A_76
 1847 000010BC 488B    BE_76   LDR              R0,=E_76
 1848 000010BE 4700            BX               R0
 1849 000010C0 BF00    A_76    NOP
 1850 000010C2 2900            CMP              R1,#0



ARM Macro Assembler    Page 37 Lab 7 prelab


 1851 000010C4 D101            BNE              C_110
 1852 000010C6 4886            LDR              R0,=End_UF
 1853 000010C8 4700            BX               R0
 1854 000010CA 1E49    C_110   SUBS             R1,R1,#1
 1855 000010CC 7808            LDRB             R0,[R1,#0]
 1856 000010CE F7FF FFFE       BL               PutChar
 1857 000010D2 7808            LDRB             R0,[R1,#0]
 1858 000010D4 F7FF FFFE       BL               PutChar
 1859 000010D8 1C49            ADDS             R1,R1,#1
 1860 000010DA 4291            CMP              R1,R2
 1861 000010DC D301            BLO              C_111
 1862 000010DE 487E            LDR              R0,=End_OF
 1863 000010E0 4700            BX               R0
 1864 000010E2 BF00    C_111   NOP
 1865 000010E4 7808            LDRB             R0,[R1,#0]
 1866 000010E6 1E40            SUBS             R0,R0,#1
 1867 000010E8 7008            STRB             R0,[R1,#0]
 1868 000010EA 4892            LDR              R0,=W_76
 1869 000010EC 4700    B_76    BX               R0
 1870 000010EE BF00    E_76    NOP
 1871 000010F0 1C49            ADDS             R1,R1,#1
 1872 000010F2 4291            CMP              R1,R2
 1873 000010F4 D301            BLO              C_112
 1874 000010F6 4878            LDR              R0,=End_OF
 1875 000010F8 4700            BX               R0
 1876 000010FA BF00    C_112   NOP
 1877 000010FC 488F            LDR              R0,=W_39
 1878 000010FE 4700    B_39    BX               R0
 1879 00001100 BF00    E_39    NOP
 1880 00001102 2900            CMP              R1,#0
 1881 00001104 D101            BNE              C_113
 1882 00001106 4876            LDR              R0,=End_UF
 1883 00001108 4700            BX               R0
 1884 0000110A 1E49    C_113   SUBS             R1,R1,#1
 1885 0000110C 7808    W_77    LDRB             R0,[R1,#0]
 1886 0000110E 2800            CMP              R0,#0
 1887 00001110 D000            BEQ              BE_77
 1888 00001112 E001            B                A_77
 1889 00001114 4876    BE_77   LDR              R0,=E_77
 1890 00001116 4700            BX               R0
 1891 00001118 BF00    A_77    NOP
 1892 0000111A 2900            CMP              R1,#0
 1893 0000111C D101            BNE              C_114
 1894 0000111E 4870            LDR              R0,=End_UF
 1895 00001120 4700            BX               R0
 1896 00001122 1E49    C_114   SUBS             R1,R1,#1
 1897 00001124 7808            LDRB             R0,[R1,#0]
 1898 00001126 F7FF FFFE       BL               PutChar
 1899 0000112A 7808            LDRB             R0,[R1,#0]
 1900 0000112C F7FF FFFE       BL               PutChar
 1901 00001130 7808            LDRB             R0,[R1,#0]
 1902 00001132 F7FF FFFE       BL               PutChar
 1903 00001136 7808            LDRB             R0,[R1,#0]
 1904 00001138 F7FF FFFE       BL               PutChar
 1905 0000113C 1C49            ADDS             R1,R1,#1
 1906 0000113E 4291            CMP              R1,R2
 1907 00001140 D301            BLO              C_115
 1908 00001142 4865            LDR              R0,=End_OF
 1909 00001144 4700            BX               R0



ARM Macro Assembler    Page 38 Lab 7 prelab


 1910 00001146 BF00    C_115   NOP
 1911 00001148 7808            LDRB             R0,[R1,#0]
 1912 0000114A 1E40            SUBS             R0,R0,#1
 1913 0000114C 7008            STRB             R0,[R1,#0]
 1914 0000114E 4880            LDR              R0,=W_77
 1915 00001150 4700    B_77    BX               R0
 1916 00001152 BF00    E_77    NOP
 1917 00001154 1C49            ADDS             R1,R1,#1
 1918 00001156 4291            CMP              R1,R2
 1919 00001158 D301            BLO              C_116
 1920 0000115A 485F            LDR              R0,=End_OF
 1921 0000115C 4700            BX               R0
 1922 0000115E BF00    C_116   NOP
 1923 00001160 487D            LDR              R0,=W_38
 1924 00001162 4700    B_38    BX               R0
 1925 00001164 BF00    E_38    NOP
 1926 00001166 2900            CMP              R1,#0
 1927 00001168 D101            BNE              C_117
 1928 0000116A 485D            LDR              R0,=End_UF
 1929 0000116C 4700            BX               R0
 1930 0000116E 1E49    C_117   SUBS             R1,R1,#1
 1931 00001170 7808    W_78    LDRB             R0,[R1,#0]
 1932 00001172 2800            CMP              R0,#0
 1933 00001174 D000            BEQ              BE_78
 1934 00001176 E001            B                A_78
 1935 00001178 485E    BE_78   LDR              R0,=E_78
 1936 0000117A 4700            BX               R0
 1937 0000117C BF00    A_78    NOP
 1938 0000117E 2900            CMP              R1,#0
 1939 00001180 D101            BNE              C_118
 1940 00001182 4857            LDR              R0,=End_UF
 1941 00001184 4700            BX               R0
 1942 00001186 1E89    C_118   SUBS             R1,R1,#2
 1943 00001188 7808            LDRB             R0,[R1,#0]
 1944 0000118A F7FF FFFE       BL               PutChar
 1945 0000118E 7808            LDRB             R0,[R1,#0]
 1946 00001190 F7FF FFFE       BL               PutChar
 1947 00001194 1C49            ADDS             R1,R1,#1
 1948 00001196 4291            CMP              R1,R2
 1949 00001198 D301            BLO              C_119
 1950 0000119A 484F            LDR              R0,=End_OF
 1951 0000119C 4700            BX               R0
 1952 0000119E BF00    C_119   NOP
 1953 000011A0 7808            LDRB             R0,[R1,#0]
 1954 000011A2 F7FF FFFE       BL               PutChar
 1955 000011A6 1C49            ADDS             R1,R1,#1
 1956 000011A8 4291            CMP              R1,R2
 1957 000011AA D301            BLO              C_120
 1958 000011AC 484A            LDR              R0,=End_OF
 1959 000011AE 4700            BX               R0
 1960 000011B0 BF00    C_120   NOP
 1961 000011B2 7808            LDRB             R0,[R1,#0]
 1962 000011B4 1E40            SUBS             R0,R0,#1
 1963 000011B6 7008            STRB             R0,[R1,#0]
 1964 000011B8 486D            LDR              R0,=W_78
 1965 000011BA 4700    B_78    BX               R0
 1966 000011BC BF00    E_78    NOP
 1967 000011BE 1C49            ADDS             R1,R1,#1
 1968 000011C0 4291            CMP              R1,R2



ARM Macro Assembler    Page 39 Lab 7 prelab


 1969 000011C2 D301            BLO              C_121
 1970 000011C4 4844            LDR              R0,=End_OF
 1971 000011C6 4700            BX               R0
 1972 000011C8 BF00    C_121   NOP
 1973 000011CA 486B            LDR              R0,=W_37
 1974 000011CC 4700    B_37    BX               R0
 1975 000011CE BF00    E_37    NOP
 1976 000011D0 2900            CMP              R1,#0
 1977 000011D2 D101            BNE              C_122
 1978 000011D4 4842            LDR              R0,=End_UF
 1979 000011D6 4700            BX               R0
 1980 000011D8 1E49    C_122   SUBS             R1,R1,#1
 1981 000011DA 7808    W_79    LDRB             R0,[R1,#0]
 1982 000011DC 2800            CMP              R0,#0
 1983 000011DE D000            BEQ              BE_79
 1984 000011E0 E001            B                A_79
 1985 000011E2 4846    BE_79   LDR              R0,=E_79
 1986 000011E4 4700            BX               R0
 1987 000011E6 BF00    A_79    NOP
 1988 000011E8 2900            CMP              R1,#0
 1989 000011EA D101            BNE              C_123
 1990 000011EC 483C            LDR              R0,=End_UF
 1991 000011EE 4700            BX               R0
 1992 000011F0 1E49    C_123   SUBS             R1,R1,#1
 1993 000011F2 7808            LDRB             R0,[R1,#0]
 1994 000011F4 F7FF FFFE       BL               PutChar
 1995 000011F8 7808            LDRB             R0,[R1,#0]
 1996 000011FA F7FF FFFE       BL               PutChar
 1997 000011FE 2900            CMP              R1,#0
 1998 00001200 D101            BNE              C_124
 1999 00001202 4837            LDR              R0,=End_UF
 2000 00001204 4700            BX               R0
 2001 00001206 1E49    C_124   SUBS             R1,R1,#1
 2002 00001208 7808            LDRB             R0,[R1,#0]
 2003 0000120A F7FF FFFE       BL               PutChar
 2004 0000120E 1C49            ADDS             R1,R1,#1
 2005 00001210 4291            CMP              R1,R2
 2006 00001212 D301            BLO              C_125
 2007 00001214 4830            LDR              R0,=End_OF
 2008 00001216 4700            BX               R0
 2009 00001218 BF00    C_125   NOP
 2010 0000121A 7808            LDRB             R0,[R1,#0]
 2011 0000121C F7FF FFFE       BL               PutChar
 2012 00001220 1C49            ADDS             R1,R1,#1
 2013 00001222 4291            CMP              R1,R2
 2014 00001224 D301            BLO              C_126
 2015 00001226 482C            LDR              R0,=End_OF
 2016 00001228 4700            BX               R0
 2017 0000122A BF00    C_126   NOP
 2018 0000122C 7808            LDRB             R0,[R1,#0]
 2019 0000122E 1E40            SUBS             R0,R0,#1
 2020 00001230 7008            STRB             R0,[R1,#0]
 2021 00001232 4858            LDR              R0,=W_79
 2022 00001234 4700    B_79    BX               R0
 2023 00001236 BF00    E_79    NOP
 2024 00001238 1C49            ADDS             R1,R1,#1
 2025 0000123A 4291            CMP              R1,R2
 2026 0000123C D301            BLO              C_127
 2027 0000123E 4826            LDR              R0,=End_OF



ARM Macro Assembler    Page 40 Lab 7 prelab


 2028 00001240 4700            BX               R0
 2029 00001242 BF00    C_127   NOP
 2030 00001244 4855            LDR              R0,=W_36
 2031 00001246 4700    B_36    BX               R0
 2032 00001248 BF00    E_36    NOP
 2033 0000124A 2900            CMP              R1,#0
 2034 0000124C D101            BNE              C_128
 2035 0000124E 4824            LDR              R0,=End_UF
 2036 00001250 4700            BX               R0
 2037 00001252 1E49    C_128   SUBS             R1,R1,#1
 2038 00001254 7808    W_80    LDRB             R0,[R1,#0]
 2039 00001256 2800            CMP              R0,#0
 2040 00001258 D000            BEQ              BE_80
 2041 0000125A E001            B                A_80
 2042 0000125C 4829    BE_80   LDR              R0,=E_80
 2043 0000125E 4700            BX               R0
 2044 00001260 BF00    A_80    NOP
 2045 00001262 2900            CMP              R1,#0
 2046 00001264 D101            BNE              C_129
 2047 00001266 481E            LDR              R0,=End_UF
 2048 00001268 4700            BX               R0
 2049 0000126A 1E49    C_129   SUBS             R1,R1,#1
 2050 0000126C 7808            LDRB             R0,[R1,#0]
 2051 0000126E F7FF FFFE       BL               PutChar
 2052 00001272 1C49            ADDS             R1,R1,#1
 2053 00001274 4291            CMP              R1,R2
 2054 00001276 D301            BLO              C_130
 2055 00001278 4817            LDR              R0,=End_OF
 2056 0000127A 4700            BX               R0
 2057 0000127C BF00    C_130   NOP
 2058 0000127E 7808            LDRB             R0,[R1,#0]
 2059 00001280 1E40            SUBS             R0,R0,#1
 2060 00001282 7008            STRB             R0,[R1,#0]
 2061 00001284 484A            LDR              R0,=W_80
 2062 00001286 4700    B_80    BX               R0
 2063 00001288 BF00    E_80    NOP
 2064 0000128A 1C49            ADDS             R1,R1,#1
 2065 0000128C 4291            CMP              R1,R2
 2066 0000128E D301            BLO              C_131
 2067 00001290 4811            LDR              R0,=End_OF
 2068 00001292 4700            BX               R0
 2069 00001294 BF00    C_131   NOP
 2070 00001296 4848            LDR              R0,=W_35
 2071 00001298 4700    B_35    BX               R0
 2072 0000129A BF00    E_35    NOP
 2073 0000129C 2900            CMP              R1,#0
 2074 0000129E D101            BNE              C_132
 2075 000012A0 480F            LDR              R0,=End_UF
 2076 000012A2 4700            BX               R0
 2077 000012A4 1E49    C_132   SUBS             R1,R1,#1
 2078 000012A6 7808    W_81    LDRB             R0,[R1,#0]
 2079 000012A8 2800            CMP              R0,#0
 2080 000012AA D000            BEQ              BE_81
 2081 000012AC E001            B                A_81
 2082 000012AE 4816    BE_81   LDR              R0,=E_81
 2083 000012B0 4700            BX               R0
 2084 000012B2 BF00    A_81    NOP
 2085 000012B4 2900            CMP              R1,#0
 2086 000012B6 D101            BNE              C_133



ARM Macro Assembler    Page 41 Lab 7 prelab


 2087 000012B8 4809            LDR              R0,=End_UF
 2088 000012BA 4700            BX               R0
 2089 000012BC 1E89    C_133   SUBS             R1,R1,#2
 2090 000012BE 7808            LDRB             R0,[R1,#0]
 2091 000012C0 F7FF FFFE       BL               PutChar
 2092 000012C4 1C49            ADDS             R1,R1,#1
 2093 000012C6 4291            CMP              R1,R2
 2094 000012C8 D301            BLO              C_134
 2095 000012CA 4803            LDR              R0,=End_OF
 2096 000012CC 4700            BX               R0
 2097 000012CE BF00    C_134   NOP
 2098 000012D0 E07C            B                L_4
 2099 000012D2 00 00 00000000 
              00000000 
              00000000 
              00000000 
              00000000 
              00000000 
              00000000 
              00000000 
              00000000 
              00000000 
              00000000 
              00000000 
              00000000 
              00000000 
              00000000 
              00000000 
              00000000 
              00000000 
              00000000 
              00000000 
              00000000 
              00000000 
              00000000 
              00000000 
              00000000 
              00000000 
              00000000 
              00000000 
              00000000 
              00000000 
              00000000 
              00000000 
              00000000 
              00000000 
              00000000 
              00000000 
              00000000 
              00000000 
              00000000 
              00000000 
              00000000 
              00000000 
              00000000 
              00000000 
              00000000 
              00000000 
              00000000 



ARM Macro Assembler    Page 42 Lab 7 prelab


              00000000 
              00000000 
              00000000 
              00000000 
              00000000 
              00000000 
              00000000 
              00000000 
              00000000 
              00000000 
              00000000 
              00000000 
              00000000 
              00000000 
              00000000         LTORG
 2100 000013CC BF00    L_4     NOP
 2101 000013CE 7808            LDRB             R0,[R1,#0]
 2102 000013D0 F7FF FFFE       BL               PutChar
 2103 000013D4 7808            LDRB             R0,[R1,#0]
 2104 000013D6 F7FF FFFE       BL               PutChar
 2105 000013DA 1C49            ADDS             R1,R1,#1
 2106 000013DC 4291            CMP              R1,R2
 2107 000013DE D301            BLO              C_135
 2108 000013E0 48C6            LDR              R0,=End_OF
 2109 000013E2 4700            BX               R0
 2110 000013E4 BF00    C_135   NOP
 2111 000013E6 7808            LDRB             R0,[R1,#0]
 2112 000013E8 1E40            SUBS             R0,R0,#1
 2113 000013EA 7008            STRB             R0,[R1,#0]
 2114 000013EC 48C4            LDR              R0,=W_81
 2115 000013EE 4700    B_81    BX               R0
 2116 000013F0 BF00    E_81    NOP
 2117 000013F2 1C49            ADDS             R1,R1,#1
 2118 000013F4 4291            CMP              R1,R2
 2119 000013F6 D301            BLO              C_136
 2120 000013F8 48C0            LDR              R0,=End_OF
 2121 000013FA 4700            BX               R0
 2122 000013FC BF00    C_136   NOP
 2123 000013FE 48C2            LDR              R0,=W_34
 2124 00001400 4700    B_34    BX               R0
 2125 00001402 BF00    E_34    NOP
 2126 00001404 2900            CMP              R1,#0
 2127 00001406 D101            BNE              C_137
 2128 00001408 48BE            LDR              R0,=End_UF
 2129 0000140A 4700            BX               R0
 2130 0000140C 1E49    C_137   SUBS             R1,R1,#1
 2131 0000140E 7808    W_82    LDRB             R0,[R1,#0]
 2132 00001410 2800            CMP              R0,#0
 2133 00001412 D000            BEQ              BE_82
 2134 00001414 E001            B                A_82
 2135 00001416 48BD    BE_82   LDR              R0,=E_82
 2136 00001418 4700            BX               R0
 2137 0000141A BF00    A_82    NOP
 2138 0000141C 2900            CMP              R1,#0
 2139 0000141E D101            BNE              C_138
 2140 00001420 48B8            LDR              R0,=End_UF
 2141 00001422 4700            BX               R0
 2142 00001424 1E89    C_138   SUBS             R1,R1,#2
 2143 00001426 7808            LDRB             R0,[R1,#0]



ARM Macro Assembler    Page 43 Lab 7 prelab


 2144 00001428 F7FF FFFE       BL               PutChar
 2145 0000142C 1C49            ADDS             R1,R1,#1
 2146 0000142E 4291            CMP              R1,R2
 2147 00001430 D301            BLO              C_139
 2148 00001432 48B2            LDR              R0,=End_OF
 2149 00001434 4700            BX               R0
 2150 00001436 BF00    C_139   NOP
 2151 00001438 7808            LDRB             R0,[R1,#0]
 2152 0000143A F7FF FFFE       BL               PutChar
 2153 0000143E 2900            CMP              R1,#0
 2154 00001440 D101            BNE              C_140
 2155 00001442 48B0            LDR              R0,=End_UF
 2156 00001444 4700            BX               R0
 2157 00001446 1E49    C_140   SUBS             R1,R1,#1
 2158 00001448 7808            LDRB             R0,[R1,#0]
 2159 0000144A F7FF FFFE       BL               PutChar
 2160 0000144E 1C49            ADDS             R1,R1,#1
 2161 00001450 4291            CMP              R1,R2
 2162 00001452 D301            BLO              C_141
 2163 00001454 48A9            LDR              R0,=End_OF
 2164 00001456 4700            BX               R0
 2165 00001458 BF00    C_141   NOP
 2166 0000145A 7808            LDRB             R0,[R1,#0]
 2167 0000145C F7FF FFFE       BL               PutChar
 2168 00001460 1C49            ADDS             R1,R1,#1
 2169 00001462 4291            CMP              R1,R2
 2170 00001464 D301            BLO              C_142
 2171 00001466 48A5            LDR              R0,=End_OF
 2172 00001468 4700            BX               R0
 2173 0000146A BF00    C_142   NOP
 2174 0000146C 7808            LDRB             R0,[R1,#0]
 2175 0000146E 1E40            SUBS             R0,R0,#1
 2176 00001470 7008            STRB             R0,[R1,#0]
 2177 00001472 48AD            LDR              R0,=W_82
 2178 00001474 4700    B_82    BX               R0
 2179 00001476 BF00    E_82    NOP
 2180 00001478 1C49            ADDS             R1,R1,#1
 2181 0000147A 4291            CMP              R1,R2
 2182 0000147C D301            BLO              C_143
 2183 0000147E 489F            LDR              R0,=End_OF
 2184 00001480 4700            BX               R0
 2185 00001482 BF00    C_143   NOP
 2186 00001484 48AA            LDR              R0,=W_33
 2187 00001486 4700    B_33    BX               R0
 2188 00001488 BF00    E_33    NOP
 2189 0000148A 2900            CMP              R1,#0
 2190 0000148C D101            BNE              C_144
 2191 0000148E 489D            LDR              R0,=End_UF
 2192 00001490 4700            BX               R0
 2193 00001492 1E49    C_144   SUBS             R1,R1,#1
 2194 00001494 7808    W_83    LDRB             R0,[R1,#0]
 2195 00001496 2800            CMP              R0,#0
 2196 00001498 D000            BEQ              BE_83
 2197 0000149A E001            B                A_83
 2198 0000149C 489C    BE_83   LDR              R0,=E_83
 2199 0000149E 4700            BX               R0
 2200 000014A0 BF00    A_83    NOP
 2201 000014A2 2900            CMP              R1,#0
 2202 000014A4 D101            BNE              C_145



ARM Macro Assembler    Page 44 Lab 7 prelab


 2203 000014A6 4897            LDR              R0,=End_UF
 2204 000014A8 4700            BX               R0
 2205 000014AA 1E89    C_145   SUBS             R1,R1,#2
 2206 000014AC 7808            LDRB             R0,[R1,#0]
 2207 000014AE F7FF FFFE       BL               PutChar
 2208 000014B2 1C49            ADDS             R1,R1,#1
 2209 000014B4 4291            CMP              R1,R2
 2210 000014B6 D301            BLO              C_146
 2211 000014B8 4890            LDR              R0,=End_OF
 2212 000014BA 4700            BX               R0
 2213 000014BC BF00    C_146   NOP
 2214 000014BE 7808            LDRB             R0,[R1,#0]
 2215 000014C0 F7FF FFFE       BL               PutChar
 2216 000014C4 7808            LDRB             R0,[R1,#0]
 2217 000014C6 F7FF FFFE       BL               PutChar
 2218 000014CA 7808            LDRB             R0,[R1,#0]
 2219 000014CC F7FF FFFE       BL               PutChar
 2220 000014D0 1C49            ADDS             R1,R1,#1
 2221 000014D2 4291            CMP              R1,R2
 2222 000014D4 D301            BLO              C_147
 2223 000014D6 4889            LDR              R0,=End_OF
 2224 000014D8 4700            BX               R0
 2225 000014DA BF00    C_147   NOP
 2226 000014DC 7808            LDRB             R0,[R1,#0]
 2227 000014DE 1E40            SUBS             R0,R0,#1
 2228 000014E0 7008            STRB             R0,[R1,#0]
 2229 000014E2 4899            LDR              R0,=W_83
 2230 000014E4 4700    B_83    BX               R0
 2231 000014E6 BF00    E_83    NOP
 2232 000014E8 1C49            ADDS             R1,R1,#1
 2233 000014EA 4291            CMP              R1,R2
 2234 000014EC D301            BLO              C_148
 2235 000014EE 4883            LDR              R0,=End_OF
 2236 000014F0 4700            BX               R0
 2237 000014F2 BF00    C_148   NOP
 2238 000014F4 4896            LDR              R0,=W_32
 2239 000014F6 4700    B_32    BX               R0
 2240 000014F8 BF00    E_32    NOP
 2241 000014FA 2900            CMP              R1,#0
 2242 000014FC D101            BNE              C_149
 2243 000014FE 4881            LDR              R0,=End_UF
 2244 00001500 4700            BX               R0
 2245 00001502 1E49    C_149   SUBS             R1,R1,#1
 2246 00001504 7808    W_84    LDRB             R0,[R1,#0]
 2247 00001506 2800            CMP              R0,#0
 2248 00001508 D000            BEQ              BE_84
 2249 0000150A E001            B                A_84
 2250 0000150C 4881    BE_84   LDR              R0,=E_84
 2251 0000150E 4700            BX               R0
 2252 00001510 BF00    A_84    NOP
 2253 00001512 2900            CMP              R1,#0
 2254 00001514 D101            BNE              C_150
 2255 00001516 487B            LDR              R0,=End_UF
 2256 00001518 4700            BX               R0
 2257 0000151A 1E49    C_150   SUBS             R1,R1,#1
 2258 0000151C 7808            LDRB             R0,[R1,#0]
 2259 0000151E F7FF FFFE       BL               PutChar
 2260 00001522 2900            CMP              R1,#0
 2261 00001524 D101            BNE              C_151



ARM Macro Assembler    Page 45 Lab 7 prelab


 2262 00001526 4877            LDR              R0,=End_UF
 2263 00001528 4700            BX               R0
 2264 0000152A 1E49    C_151   SUBS             R1,R1,#1
 2265 0000152C 7808            LDRB             R0,[R1,#0]
 2266 0000152E F7FF FFFE       BL               PutChar
 2267 00001532 1C89            ADDS             R1,R1,#2
 2268 00001534 4291            CMP              R1,R2
 2269 00001536 D301            BLO              C_152
 2270 00001538 4870            LDR              R0,=End_OF
 2271 0000153A 4700            BX               R0
 2272 0000153C BF00    C_152   NOP
 2273 0000153E 7808            LDRB             R0,[R1,#0]
 2274 00001540 1E40            SUBS             R0,R0,#1
 2275 00001542 7008            STRB             R0,[R1,#0]
 2276 00001544 4888            LDR              R0,=W_84
 2277 00001546 4700    B_84    BX               R0
 2278 00001548 BF00    E_84    NOP
 2279 0000154A 1C49            ADDS             R1,R1,#1
 2280 0000154C 4291            CMP              R1,R2
 2281 0000154E D301            BLO              C_153
 2282 00001550 486A            LDR              R0,=End_OF
 2283 00001552 4700            BX               R0
 2284 00001554 BF00    C_153   NOP
 2285 00001556 4886            LDR              R0,=W_31
 2286 00001558 4700    B_31    BX               R0
 2287 0000155A BF00    E_31    NOP
 2288 0000155C 2900            CMP              R1,#0
 2289 0000155E D101            BNE              C_154
 2290 00001560 4868            LDR              R0,=End_UF
 2291 00001562 4700            BX               R0
 2292 00001564 1E49    C_154   SUBS             R1,R1,#1
 2293 00001566 7808    W_85    LDRB             R0,[R1,#0]
 2294 00001568 2800            CMP              R0,#0
 2295 0000156A D000            BEQ              BE_85
 2296 0000156C E001            B                A_85
 2297 0000156E 486A    BE_85   LDR              R0,=E_85
 2298 00001570 4700            BX               R0
 2299 00001572 BF00    A_85    NOP
 2300 00001574 2900            CMP              R1,#0
 2301 00001576 D101            BNE              C_155
 2302 00001578 4862            LDR              R0,=End_UF
 2303 0000157A 4700            BX               R0
 2304 0000157C 1E49    C_155   SUBS             R1,R1,#1
 2305 0000157E 7808            LDRB             R0,[R1,#0]
 2306 00001580 F7FF FFFE       BL               PutChar
 2307 00001584 2900            CMP              R1,#0
 2308 00001586 D101            BNE              C_156
 2309 00001588 485E            LDR              R0,=End_UF
 2310 0000158A 4700            BX               R0
 2311 0000158C 1E49    C_156   SUBS             R1,R1,#1
 2312 0000158E 7808            LDRB             R0,[R1,#0]
 2313 00001590 F7FF FFFE       BL               PutChar
 2314 00001594 7808            LDRB             R0,[R1,#0]
 2315 00001596 F7FF FFFE       BL               PutChar
 2316 0000159A 1C49            ADDS             R1,R1,#1
 2317 0000159C 4291            CMP              R1,R2
 2318 0000159E D301            BLO              C_157
 2319 000015A0 4856            LDR              R0,=End_OF
 2320 000015A2 4700            BX               R0



ARM Macro Assembler    Page 46 Lab 7 prelab


 2321 000015A4 BF00    C_157   NOP
 2322 000015A6 7808            LDRB             R0,[R1,#0]
 2323 000015A8 F7FF FFFE       BL               PutChar
 2324 000015AC 2900            CMP              R1,#0
 2325 000015AE D101            BNE              C_158
 2326 000015B0 4854            LDR              R0,=End_UF
 2327 000015B2 4700            BX               R0
 2328 000015B4 1E49    C_158   SUBS             R1,R1,#1
 2329 000015B6 7808            LDRB             R0,[R1,#0]
 2330 000015B8 F7FF FFFE       BL               PutChar
 2331 000015BC 1C49            ADDS             R1,R1,#1
 2332 000015BE 4291            CMP              R1,R2
 2333 000015C0 D301            BLO              C_159
 2334 000015C2 484E            LDR              R0,=End_OF
 2335 000015C4 4700            BX               R0
 2336 000015C6 BF00    C_159   NOP
 2337 000015C8 7808            LDRB             R0,[R1,#0]
 2338 000015CA F7FF FFFE       BL               PutChar
 2339 000015CE 1C49            ADDS             R1,R1,#1
 2340 000015D0 4291            CMP              R1,R2
 2341 000015D2 D301            BLO              C_160
 2342 000015D4 4849            LDR              R0,=End_OF
 2343 000015D6 4700            BX               R0
 2344 000015D8 BF00    C_160   NOP
 2345 000015DA 7808            LDRB             R0,[R1,#0]
 2346 000015DC 1E40            SUBS             R0,R0,#1
 2347 000015DE 7008            STRB             R0,[R1,#0]
 2348 000015E0 486C            LDR              R0,=W_85
 2349 000015E2 4700    B_85    BX               R0
 2350 000015E4 BF00    E_85    NOP
 2351 000015E6 1C49            ADDS             R1,R1,#1
 2352 000015E8 4291            CMP              R1,R2
 2353 000015EA D301            BLO              C_161
 2354 000015EC 4843            LDR              R0,=End_OF
 2355 000015EE 4700            BX               R0
 2356 000015F0 BF00    C_161   NOP
 2357 000015F2 486A            LDR              R0,=W_30
 2358 000015F4 4700    B_30    BX               R0
 2359 000015F6 BF00    E_30    NOP
 2360 000015F8 2900            CMP              R1,#0
 2361 000015FA D101            BNE              C_162
 2362 000015FC 4841            LDR              R0,=End_UF
 2363 000015FE 4700            BX               R0
 2364 00001600 1E49    C_162   SUBS             R1,R1,#1
 2365 00001602 7808    W_86    LDRB             R0,[R1,#0]
 2366 00001604 2800            CMP              R0,#0
 2367 00001606 D000            BEQ              BE_86
 2368 00001608 E001            B                A_86
 2369 0000160A 4844    BE_86   LDR              R0,=E_86
 2370 0000160C 4700            BX               R0
 2371 0000160E BF00    A_86    NOP
 2372 00001610 2900            CMP              R1,#0
 2373 00001612 D101            BNE              C_163
 2374 00001614 483B            LDR              R0,=End_UF
 2375 00001616 4700            BX               R0
 2376 00001618 1E49    C_163   SUBS             R1,R1,#1
 2377 0000161A 7808            LDRB             R0,[R1,#0]
 2378 0000161C F7FF FFFE       BL               PutChar
 2379 00001620 7808            LDRB             R0,[R1,#0]



ARM Macro Assembler    Page 47 Lab 7 prelab


 2380 00001622 F7FF FFFE       BL               PutChar
 2381 00001626 2900            CMP              R1,#0
 2382 00001628 D101            BNE              C_164
 2383 0000162A 4836            LDR              R0,=End_UF
 2384 0000162C 4700            BX               R0
 2385 0000162E 1E49    C_164   SUBS             R1,R1,#1
 2386 00001630 7808            LDRB             R0,[R1,#0]
 2387 00001632 F7FF FFFE       BL               PutChar
 2388 00001636 7808            LDRB             R0,[R1,#0]
 2389 00001638 F7FF FFFE       BL               PutChar
 2390 0000163C 1C49            ADDS             R1,R1,#1
 2391 0000163E 4291            CMP              R1,R2
 2392 00001640 D301            BLO              C_165
 2393 00001642 482E            LDR              R0,=End_OF
 2394 00001644 4700            BX               R0
 2395 00001646 BF00    C_165   NOP
 2396 00001648 7808            LDRB             R0,[R1,#0]
 2397 0000164A F7FF FFFE       BL               PutChar
 2398 0000164E 7808            LDRB             R0,[R1,#0]
 2399 00001650 F7FF FFFE       BL               PutChar
 2400 00001654 1C49            ADDS             R1,R1,#1
 2401 00001656 4291            CMP              R1,R2
 2402 00001658 D301            BLO              C_166
 2403 0000165A 4828            LDR              R0,=End_OF
 2404 0000165C 4700            BX               R0
 2405 0000165E BF00    C_166   NOP
 2406 00001660 7808            LDRB             R0,[R1,#0]
 2407 00001662 1E40            SUBS             R0,R0,#1
 2408 00001664 7008            STRB             R0,[R1,#0]
 2409 00001666 4854            LDR              R0,=W_86
 2410 00001668 4700    B_86    BX               R0
 2411 0000166A BF00    E_86    NOP
 2412 0000166C 1C49            ADDS             R1,R1,#1
 2413 0000166E 4291            CMP              R1,R2
 2414 00001670 D301            BLO              C_167
 2415 00001672 4822            LDR              R0,=End_OF
 2416 00001674 4700            BX               R0
 2417 00001676 BF00    C_167   NOP
 2418 00001678 4851            LDR              R0,=W_29
 2419 0000167A 4700    B_29    BX               R0
 2420 0000167C BF00    E_29    NOP
 2421 0000167E 2900            CMP              R1,#0
 2422 00001680 D101            BNE              C_168
 2423 00001682 4820            LDR              R0,=End_UF
 2424 00001684 4700            BX               R0
 2425 00001686 1E49    C_168   SUBS             R1,R1,#1
 2426 00001688 7808    W_87    LDRB             R0,[R1,#0]
 2427 0000168A 2800            CMP              R0,#0
 2428 0000168C D000            BEQ              BE_87
 2429 0000168E E001            B                A_87
 2430 00001690 4823    BE_87   LDR              R0,=E_87
 2431 00001692 4700            BX               R0
 2432 00001694 BF00    A_87    NOP
 2433 00001696 2900            CMP              R1,#0
 2434 00001698 D101            BNE              C_169
 2435 0000169A 481A            LDR              R0,=End_UF
 2436 0000169C 4700            BX               R0
 2437 0000169E 1E89    C_169   SUBS             R1,R1,#2
 2438 000016A0 7808            LDRB             R0,[R1,#0]



ARM Macro Assembler    Page 48 Lab 7 prelab


 2439 000016A2 F7FF FFFE       BL               PutChar
 2440 000016A6 1C49            ADDS             R1,R1,#1
 2441 000016A8 4291            CMP              R1,R2
 2442 000016AA D301            BLO              C_170
 2443 000016AC 4813            LDR              R0,=End_OF
 2444 000016AE 4700            BX               R0
 2445 000016B0 BF00    C_170   NOP
 2446 000016B2 7808            LDRB             R0,[R1,#0]
 2447 000016B4 F7FF FFFE       BL               PutChar
 2448 000016B8 7808            LDRB             R0,[R1,#0]
 2449 000016BA F7FF FFFE       BL               PutChar
 2450 000016BE 7808            LDRB             R0,[R1,#0]
 2451 000016C0 F7FF FFFE       BL               PutChar
 2452 000016C4 2900            CMP              R1,#0
 2453 000016C6 D101            BNE              C_171
 2454 000016C8 480E            LDR              R0,=End_UF
 2455 000016CA 4700            BX               R0
 2456 000016CC 1E49    C_171   SUBS             R1,R1,#1
 2457 000016CE 7808            LDRB             R0,[R1,#0]
 2458 000016D0 F7FF FFFE       BL               PutChar
 2459 000016D4 1C89            ADDS             R1,R1,#2
 2460 000016D6 4291            CMP              R1,R2
 2461 000016D8 D301            BLO              C_172
 2462 000016DA 4808            LDR              R0,=End_OF
 2463 000016DC 4700            BX               R0
 2464 000016DE BF00    C_172   NOP
 2465 000016E0 7808            LDRB             R0,[R1,#0]
 2466 000016E2 1E40            SUBS             R0,R0,#1
 2467 000016E4 7008            STRB             R0,[R1,#0]
 2468 000016E6 483D            LDR              R0,=W_87
 2469 000016E8 4700    B_87    BX               R0
 2470 000016EA BF00    E_87    NOP
 2471 000016EC 1C49            ADDS             R1,R1,#1
 2472 000016EE 4291            CMP              R1,R2
 2473 000016F0 D301            BLO              C_173
 2474 000016F2 4802            LDR              R0,=End_OF
 2475 000016F4 4700            BX               R0
 2476 000016F6 BF00    C_173   NOP
 2477 000016F8 E074            B                L_5
 2478 000016FA 00 00 00000000 
              00000000 
              00000000 
              00000000 
              00000000 
              00000000 
              00000000 
              00000000 
              00000000 
              00000000 
              00000000 
              00000000 
              00000000 
              00000000 
              00000000 
              00000000 
              00000000 
              00000000 
              00000000 
              00000000 



ARM Macro Assembler    Page 49 Lab 7 prelab


              00000000 
              00000000 
              00000000 
              00000000 
              00000000 
              00000000 
              00000000 
              00000000 
              00000000 
              00000000 
              00000000 
              00000000 
              00000000 
              00000000 
              00000000 
              00000000 
              00000000 
              00000000 
              00000000 
              00000000 
              00000000 
              00000000 
              00000000 
              00000000 
              00000000 
              00000000 
              00000000 
              00000000 
              00000000 
              00000000 
              00000000 
              00000000 
              00000000 
              00000000 
              00000000 
              00000000 
              00000000 
              00000000         LTORG
 2479 000017E4 BF00    L_5     NOP
 2480 000017E6 48CE            LDR              R0,=W_28
 2481 000017E8 4700    B_28    BX               R0
 2482 000017EA BF00    E_28    NOP
 2483 000017EC 2900            CMP              R1,#0
 2484 000017EE D101            BNE              C_174
 2485 000017F0 48CC            LDR              R0,=End_UF
 2486 000017F2 4700            BX               R0
 2487 000017F4 1E49    C_174   SUBS             R1,R1,#1
 2488 000017F6 7808    W_88    LDRB             R0,[R1,#0]
 2489 000017F8 2800            CMP              R0,#0
 2490 000017FA D000            BEQ              BE_88
 2491 000017FC E001            B                A_88
 2492 000017FE 48CA    BE_88   LDR              R0,=E_88
 2493 00001800 4700            BX               R0
 2494 00001802 BF00    A_88    NOP
 2495 00001804 2900            CMP              R1,#0
 2496 00001806 D101            BNE              C_175
 2497 00001808 48C6            LDR              R0,=End_UF
 2498 0000180A 4700            BX               R0
 2499 0000180C 1E89    C_175   SUBS             R1,R1,#2



ARM Macro Assembler    Page 50 Lab 7 prelab


 2500 0000180E 7808            LDRB             R0,[R1,#0]
 2501 00001810 F7FF FFFE       BL               PutChar
 2502 00001814 1C49            ADDS             R1,R1,#1
 2503 00001816 4291            CMP              R1,R2
 2504 00001818 D301            BLO              C_176
 2505 0000181A 48C4            LDR              R0,=End_OF
 2506 0000181C 4700            BX               R0
 2507 0000181E BF00    C_176   NOP
 2508 00001820 7808            LDRB             R0,[R1,#0]
 2509 00001822 F7FF FFFE       BL               PutChar
 2510 00001826 2900            CMP              R1,#0
 2511 00001828 D101            BNE              C_177
 2512 0000182A 48BE            LDR              R0,=End_UF
 2513 0000182C 4700            BX               R0
 2514 0000182E 1E49    C_177   SUBS             R1,R1,#1
 2515 00001830 7808            LDRB             R0,[R1,#0]
 2516 00001832 F7FF FFFE       BL               PutChar
 2517 00001836 1C49            ADDS             R1,R1,#1
 2518 00001838 4291            CMP              R1,R2
 2519 0000183A D301            BLO              C_178
 2520 0000183C 48BB            LDR              R0,=End_OF
 2521 0000183E 4700            BX               R0
 2522 00001840 BF00    C_178   NOP
 2523 00001842 7808            LDRB             R0,[R1,#0]
 2524 00001844 F7FF FFFE       BL               PutChar
 2525 00001848 2900            CMP              R1,#0
 2526 0000184A D101            BNE              C_179
 2527 0000184C 48B5            LDR              R0,=End_UF
 2528 0000184E 4700            BX               R0
 2529 00001850 1E49    C_179   SUBS             R1,R1,#1
 2530 00001852 7808            LDRB             R0,[R1,#0]
 2531 00001854 F7FF FFFE       BL               PutChar
 2532 00001858 1C49            ADDS             R1,R1,#1
 2533 0000185A 4291            CMP              R1,R2
 2534 0000185C D301            BLO              C_180
 2535 0000185E 48B3            LDR              R0,=End_OF
 2536 00001860 4700            BX               R0
 2537 00001862 BF00    C_180   NOP
 2538 00001864 7808            LDRB             R0,[R1,#0]
 2539 00001866 F7FF FFFE       BL               PutChar
 2540 0000186A 1C49            ADDS             R1,R1,#1
 2541 0000186C 4291            CMP              R1,R2
 2542 0000186E D301            BLO              C_181
 2543 00001870 48AE            LDR              R0,=End_OF
 2544 00001872 4700            BX               R0
 2545 00001874 BF00    C_181   NOP
 2546 00001876 7808            LDRB             R0,[R1,#0]
 2547 00001878 1E40            SUBS             R0,R0,#1
 2548 0000187A 7008            STRB             R0,[R1,#0]
 2549 0000187C 48B2            LDR              R0,=W_88
 2550 0000187E 4700    B_88    BX               R0
 2551 00001880 BF00    E_88    NOP
 2552 00001882 1C49            ADDS             R1,R1,#1
 2553 00001884 4291            CMP              R1,R2
 2554 00001886 D301            BLO              C_182
 2555 00001888 48A8            LDR              R0,=End_OF
 2556 0000188A 4700            BX               R0
 2557 0000188C BF00    C_182   NOP
 2558 0000188E 48B0            LDR              R0,=W_27



ARM Macro Assembler    Page 51 Lab 7 prelab


 2559 00001890 4700    B_27    BX               R0
 2560 00001892 BF00    E_27    NOP
 2561 00001894 2900            CMP              R1,#0
 2562 00001896 D101            BNE              C_183
 2563 00001898 48A2            LDR              R0,=End_UF
 2564 0000189A 4700            BX               R0
 2565 0000189C 1E49    C_183   SUBS             R1,R1,#1
 2566 0000189E 7808    W_89    LDRB             R0,[R1,#0]
 2567 000018A0 2800            CMP              R0,#0
 2568 000018A2 D000            BEQ              BE_89
 2569 000018A4 E001            B                A_89
 2570 000018A6 48A2    BE_89   LDR              R0,=E_89
 2571 000018A8 4700            BX               R0
 2572 000018AA BF00    A_89    NOP
 2573 000018AC 2900            CMP              R1,#0
 2574 000018AE D101            BNE              C_184
 2575 000018B0 489C            LDR              R0,=End_UF
 2576 000018B2 4700            BX               R0
 2577 000018B4 1E89    C_184   SUBS             R1,R1,#2
 2578 000018B6 7808            LDRB             R0,[R1,#0]
 2579 000018B8 F7FF FFFE       BL               PutChar
 2580 000018BC 7808            LDRB             R0,[R1,#0]
 2581 000018BE F7FF FFFE       BL               PutChar
 2582 000018C2 7808            LDRB             R0,[R1,#0]
 2583 000018C4 F7FF FFFE       BL               PutChar
 2584 000018C8 1C49            ADDS             R1,R1,#1
 2585 000018CA 4291            CMP              R1,R2
 2586 000018CC D301            BLO              C_185
 2587 000018CE 4897            LDR              R0,=End_OF
 2588 000018D0 4700            BX               R0
 2589 000018D2 BF00    C_185   NOP
 2590 000018D4 7808            LDRB             R0,[R1,#0]
 2591 000018D6 F7FF FFFE       BL               PutChar
 2592 000018DA 7808            LDRB             R0,[R1,#0]
 2593 000018DC F7FF FFFE       BL               PutChar
 2594 000018E0 7808            LDRB             R0,[R1,#0]
 2595 000018E2 F7FF FFFE       BL               PutChar
 2596 000018E6 1C49            ADDS             R1,R1,#1
 2597 000018E8 4291            CMP              R1,R2
 2598 000018EA D301            BLO              C_186
 2599 000018EC 488F            LDR              R0,=End_OF
 2600 000018EE 4700            BX               R0
 2601 000018F0 BF00    C_186   NOP
 2602 000018F2 7808            LDRB             R0,[R1,#0]
 2603 000018F4 1E40            SUBS             R0,R0,#1
 2604 000018F6 7008            STRB             R0,[R1,#0]
 2605 000018F8 489B            LDR              R0,=W_89
 2606 000018FA 4700    B_89    BX               R0
 2607 000018FC BF00    E_89    NOP
 2608 000018FE 1C49            ADDS             R1,R1,#1
 2609 00001900 4291            CMP              R1,R2
 2610 00001902 D301            BLO              C_187
 2611 00001904 4889            LDR              R0,=End_OF
 2612 00001906 4700            BX               R0
 2613 00001908 BF00    C_187   NOP
 2614 0000190A 4899            LDR              R0,=W_26
 2615 0000190C 4700    B_26    BX               R0
 2616 0000190E BF00    E_26    NOP
 2617 00001910 2900            CMP              R1,#0



ARM Macro Assembler    Page 52 Lab 7 prelab


 2618 00001912 D101            BNE              C_188
 2619 00001914 4883            LDR              R0,=End_UF
 2620 00001916 4700            BX               R0
 2621 00001918 1E49    C_188   SUBS             R1,R1,#1
 2622 0000191A 7808    W_90    LDRB             R0,[R1,#0]
 2623 0000191C 2800            CMP              R0,#0
 2624 0000191E D000            BEQ              BE_90
 2625 00001920 E001            B                A_90
 2626 00001922 4884    BE_90   LDR              R0,=E_90
 2627 00001924 4700            BX               R0
 2628 00001926 BF00    A_90    NOP
 2629 00001928 2900            CMP              R1,#0
 2630 0000192A D101            BNE              C_189
 2631 0000192C 487D            LDR              R0,=End_UF
 2632 0000192E 4700            BX               R0
 2633 00001930 1E89    C_189   SUBS             R1,R1,#2
 2634 00001932 7808            LDRB             R0,[R1,#0]
 2635 00001934 F7FF FFFE       BL               PutChar
 2636 00001938 7808            LDRB             R0,[R1,#0]
 2637 0000193A F7FF FFFE       BL               PutChar
 2638 0000193E 7808            LDRB             R0,[R1,#0]
 2639 00001940 F7FF FFFE       BL               PutChar
 2640 00001944 7808            LDRB             R0,[R1,#0]
 2641 00001946 F7FF FFFE       BL               PutChar
 2642 0000194A 1C49            ADDS             R1,R1,#1
 2643 0000194C 4291            CMP              R1,R2
 2644 0000194E D301            BLO              C_190
 2645 00001950 4876            LDR              R0,=End_OF
 2646 00001952 4700            BX               R0
 2647 00001954 BF00    C_190   NOP
 2648 00001956 7808            LDRB             R0,[R1,#0]
 2649 00001958 F7FF FFFE       BL               PutChar
 2650 0000195C 1C49            ADDS             R1,R1,#1
 2651 0000195E 4291            CMP              R1,R2
 2652 00001960 D301            BLO              C_191
 2653 00001962 4872            LDR              R0,=End_OF
 2654 00001964 4700            BX               R0
 2655 00001966 BF00    C_191   NOP
 2656 00001968 7808            LDRB             R0,[R1,#0]
 2657 0000196A 1E40            SUBS             R0,R0,#1
 2658 0000196C 7008            STRB             R0,[R1,#0]
 2659 0000196E 4886            LDR              R0,=W_90
 2660 00001970 4700    B_90    BX               R0
 2661 00001972 BF00    E_90    NOP
 2662 00001974 1C49            ADDS             R1,R1,#1
 2663 00001976 4291            CMP              R1,R2
 2664 00001978 D301            BLO              C_192
 2665 0000197A 486C            LDR              R0,=End_OF
 2666 0000197C 4700            BX               R0
 2667 0000197E BF00    C_192   NOP
 2668 00001980 4883            LDR              R0,=W_25
 2669 00001982 4700    B_25    BX               R0
 2670 00001984 BF00    E_25    NOP
 2671 00001986 2900            CMP              R1,#0
 2672 00001988 D101            BNE              C_193
 2673 0000198A 4866            LDR              R0,=End_UF
 2674 0000198C 4700            BX               R0
 2675 0000198E 1E49    C_193   SUBS             R1,R1,#1
 2676 00001990 7808    W_91    LDRB             R0,[R1,#0]



ARM Macro Assembler    Page 53 Lab 7 prelab


 2677 00001992 2800            CMP              R0,#0
 2678 00001994 D000            BEQ              BE_91
 2679 00001996 E001            B                A_91
 2680 00001998 4867    BE_91   LDR              R0,=E_91
 2681 0000199A 4700            BX               R0
 2682 0000199C BF00    A_91    NOP
 2683 0000199E 2900            CMP              R1,#0
 2684 000019A0 D101            BNE              C_194
 2685 000019A2 4860            LDR              R0,=End_UF
 2686 000019A4 4700            BX               R0
 2687 000019A6 1E89    C_194   SUBS             R1,R1,#2
 2688 000019A8 7808            LDRB             R0,[R1,#0]
 2689 000019AA F7FF FFFE       BL               PutChar
 2690 000019AE 7808            LDRB             R0,[R1,#0]
 2691 000019B0 F7FF FFFE       BL               PutChar
 2692 000019B4 7808            LDRB             R0,[R1,#0]
 2693 000019B6 F7FF FFFE       BL               PutChar
 2694 000019BA 1C49            ADDS             R1,R1,#1
 2695 000019BC 4291            CMP              R1,R2
 2696 000019BE D301            BLO              C_195
 2697 000019C0 485A            LDR              R0,=End_OF
 2698 000019C2 4700            BX               R0
 2699 000019C4 BF00    C_195   NOP
 2700 000019C6 7808            LDRB             R0,[R1,#0]
 2701 000019C8 F7FF FFFE       BL               PutChar
 2702 000019CC 7808            LDRB             R0,[R1,#0]
 2703 000019CE F7FF FFFE       BL               PutChar
 2704 000019D2 1C49            ADDS             R1,R1,#1
 2705 000019D4 4291            CMP              R1,R2
 2706 000019D6 D301            BLO              C_196
 2707 000019D8 4854            LDR              R0,=End_OF
 2708 000019DA 4700            BX               R0
 2709 000019DC BF00    C_196   NOP
 2710 000019DE 7808            LDRB             R0,[R1,#0]
 2711 000019E0 1E40            SUBS             R0,R0,#1
 2712 000019E2 7008            STRB             R0,[R1,#0]
 2713 000019E4 4870            LDR              R0,=W_91
 2714 000019E6 4700    B_91    BX               R0
 2715 000019E8 BF00    E_91    NOP
 2716 000019EA 1C49            ADDS             R1,R1,#1
 2717 000019EC 4291            CMP              R1,R2
 2718 000019EE D301            BLO              C_197
 2719 000019F0 484E            LDR              R0,=End_OF
 2720 000019F2 4700            BX               R0
 2721 000019F4 BF00    C_197   NOP
 2722 000019F6 486E            LDR              R0,=W_24
 2723 000019F8 4700    B_24    BX               R0
 2724 000019FA BF00    E_24    NOP
 2725 000019FC 2900            CMP              R1,#0
 2726 000019FE D101            BNE              C_198
 2727 00001A00 4848            LDR              R0,=End_UF
 2728 00001A02 4700            BX               R0
 2729 00001A04 1E49    C_198   SUBS             R1,R1,#1
 2730 00001A06 7808    W_92    LDRB             R0,[R1,#0]
 2731 00001A08 2800            CMP              R0,#0
 2732 00001A0A D000            BEQ              BE_92
 2733 00001A0C E001            B                A_92
 2734 00001A0E 484B    BE_92   LDR              R0,=E_92
 2735 00001A10 4700            BX               R0



ARM Macro Assembler    Page 54 Lab 7 prelab


 2736 00001A12 BF00    A_92    NOP
 2737 00001A14 2900            CMP              R1,#0
 2738 00001A16 D101            BNE              C_199
 2739 00001A18 4842            LDR              R0,=End_UF
 2740 00001A1A 4700            BX               R0
 2741 00001A1C 1E89    C_199   SUBS             R1,R1,#2
 2742 00001A1E 7808            LDRB             R0,[R1,#0]
 2743 00001A20 F7FF FFFE       BL               PutChar
 2744 00001A24 7808            LDRB             R0,[R1,#0]
 2745 00001A26 F7FF FFFE       BL               PutChar
 2746 00001A2A 1C49            ADDS             R1,R1,#1
 2747 00001A2C 4291            CMP              R1,R2
 2748 00001A2E D301            BLO              C_200
 2749 00001A30 483E            LDR              R0,=End_OF
 2750 00001A32 4700            BX               R0
 2751 00001A34 BF00    C_200   NOP
 2752 00001A36 7808            LDRB             R0,[R1,#0]
 2753 00001A38 F7FF FFFE       BL               PutChar
 2754 00001A3C 7808            LDRB             R0,[R1,#0]
 2755 00001A3E F7FF FFFE       BL               PutChar
 2756 00001A42 7808            LDRB             R0,[R1,#0]
 2757 00001A44 F7FF FFFE       BL               PutChar
 2758 00001A48 1C49            ADDS             R1,R1,#1
 2759 00001A4A 4291            CMP              R1,R2
 2760 00001A4C D301            BLO              C_201
 2761 00001A4E 4837            LDR              R0,=End_OF
 2762 00001A50 4700            BX               R0
 2763 00001A52 BF00    C_201   NOP
 2764 00001A54 7808            LDRB             R0,[R1,#0]
 2765 00001A56 1E40            SUBS             R0,R0,#1
 2766 00001A58 7008            STRB             R0,[R1,#0]
 2767 00001A5A 485B            LDR              R0,=W_92
 2768 00001A5C 4700    B_92    BX               R0
 2769 00001A5E BF00    E_92    NOP
 2770 00001A60 1C49            ADDS             R1,R1,#1
 2771 00001A62 4291            CMP              R1,R2
 2772 00001A64 D301            BLO              C_202
 2773 00001A66 4831            LDR              R0,=End_OF
 2774 00001A68 4700            BX               R0
 2775 00001A6A BF00    C_202   NOP
 2776 00001A6C 4858            LDR              R0,=W_23
 2777 00001A6E 4700    B_23    BX               R0
 2778 00001A70 BF00    E_23    NOP
 2779 00001A72 2900            CMP              R1,#0
 2780 00001A74 D101            BNE              C_203
 2781 00001A76 482B            LDR              R0,=End_UF
 2782 00001A78 4700            BX               R0
 2783 00001A7A 1E49    C_203   SUBS             R1,R1,#1
 2784 00001A7C 7808    W_93    LDRB             R0,[R1,#0]
 2785 00001A7E 2800            CMP              R0,#0
 2786 00001A80 D000            BEQ              BE_93
 2787 00001A82 E001            B                A_93
 2788 00001A84 482E    BE_93   LDR              R0,=E_93
 2789 00001A86 4700            BX               R0
 2790 00001A88 BF00    A_93    NOP
 2791 00001A8A 2900            CMP              R1,#0
 2792 00001A8C D101            BNE              C_204
 2793 00001A8E 4825            LDR              R0,=End_UF
 2794 00001A90 4700            BX               R0



ARM Macro Assembler    Page 55 Lab 7 prelab


 2795 00001A92 1E89    C_204   SUBS             R1,R1,#2
 2796 00001A94 7808            LDRB             R0,[R1,#0]
 2797 00001A96 F7FF FFFE       BL               PutChar
 2798 00001A9A 1C49            ADDS             R1,R1,#1
 2799 00001A9C 4291            CMP              R1,R2
 2800 00001A9E D301            BLO              C_205
 2801 00001AA0 4822            LDR              R0,=End_OF
 2802 00001AA2 4700            BX               R0
 2803 00001AA4 BF00    C_205   NOP
 2804 00001AA6 7808            LDRB             R0,[R1,#0]
 2805 00001AA8 F7FF FFFE       BL               PutChar
 2806 00001AAC 7808            LDRB             R0,[R1,#0]
 2807 00001AAE F7FF FFFE       BL               PutChar
 2808 00001AB2 7808            LDRB             R0,[R1,#0]
 2809 00001AB4 F7FF FFFE       BL               PutChar
 2810 00001AB8 7808            LDRB             R0,[R1,#0]
 2811 00001ABA F7FF FFFE       BL               PutChar
 2812 00001ABE 1C49            ADDS             R1,R1,#1
 2813 00001AC0 4291            CMP              R1,R2
 2814 00001AC2 D301            BLO              C_206
 2815 00001AC4 4819            LDR              R0,=End_OF
 2816 00001AC6 4700            BX               R0
 2817 00001AC8 BF00    C_206   NOP
 2818 00001ACA 7808            LDRB             R0,[R1,#0]
 2819 00001ACC 1E40            SUBS             R0,R0,#1
 2820 00001ACE 7008            STRB             R0,[R1,#0]
 2821 00001AD0 4845            LDR              R0,=W_93
 2822 00001AD2 4700    B_93    BX               R0
 2823 00001AD4 BF00    E_93    NOP
 2824 00001AD6 1C49            ADDS             R1,R1,#1
 2825 00001AD8 4291            CMP              R1,R2
 2826 00001ADA D301            BLO              C_207
 2827 00001ADC 4813            LDR              R0,=End_OF
 2828 00001ADE 4700            BX               R0
 2829 00001AE0 BF00    C_207   NOP
 2830 00001AE2 4843            LDR              R0,=W_22
 2831 00001AE4 4700    B_22    BX               R0
 2832 00001AE6 BF00    E_22    NOP
 2833 00001AE8 2900            CMP              R1,#0
 2834 00001AEA D101            BNE              C_208
 2835 00001AEC 480D            LDR              R0,=End_UF
 2836 00001AEE 4700            BX               R0
 2837 00001AF0 1E49    C_208   SUBS             R1,R1,#1
 2838 00001AF2 7808    W_94    LDRB             R0,[R1,#0]
 2839 00001AF4 2800            CMP              R0,#0
 2840 00001AF6 D000            BEQ              BE_94
 2841 00001AF8 E001            B                A_94
 2842 00001AFA 4812    BE_94   LDR              R0,=E_94
 2843 00001AFC 4700            BX               R0
 2844 00001AFE BF00    A_94    NOP
 2845 00001B00 2900            CMP              R1,#0
 2846 00001B02 D101            BNE              C_209
 2847 00001B04 4807            LDR              R0,=End_UF
 2848 00001B06 4700            BX               R0
 2849 00001B08 1E49    C_209   SUBS             R1,R1,#1
 2850 00001B0A 7808            LDRB             R0,[R1,#0]
 2851 00001B0C F7FF FFFE       BL               PutChar
 2852 00001B10 7808            LDRB             R0,[R1,#0]
 2853 00001B12 F7FF FFFE       BL               PutChar



ARM Macro Assembler    Page 56 Lab 7 prelab


 2854 00001B16 7808            LDRB             R0,[R1,#0]
 2855 00001B18 F7FF FFFE       BL               PutChar
 2856 00001B1C E070            B                L_6
 2857 00001B1E 00 00 00000000 
              00000000 
              00000000 
              00000000 
              00000000 
              00000000 
              00000000 
              00000000 
              00000000 
              00000000 
              00000000 
              00000000 
              00000000 
              00000000 
              00000000 
              00000000 
              00000000 
              00000000 
              00000000 
              00000000 
              00000000 
              00000000 
              00000000 
              00000000 
              00000000 
              00000000 
              00000000 
              00000000 
              00000000 
              00000000 
              00000000 
              00000000 
              00000000 
              00000000 
              00000000 
              00000000 
              00000000 
              00000000 
              00000000 
              00000000 
              00000000 
              00000000 
              00000000 
              00000000 
              00000000 
              00000000 
              00000000 
              00000000 
              00000000 
              00000000 
              00000000 
              00000000 
              00000000 
              00000000 
              00000000 
              00000000         LTORG



ARM Macro Assembler    Page 57 Lab 7 prelab


 2858 00001C00 BF00    L_6     NOP
 2859 00001C02 7808            LDRB             R0,[R1,#0]
 2860 00001C04 F7FF FFFE       BL               PutChar
 2861 00001C08 7808            LDRB             R0,[R1,#0]
 2862 00001C0A F7FF FFFE       BL               PutChar
 2863 00001C0E 1C49            ADDS             R1,R1,#1
 2864 00001C10 4291            CMP              R1,R2
 2865 00001C12 D301            BLO              C_210
 2866 00001C14 48C8            LDR              R0,=End_OF
 2867 00001C16 4700            BX               R0
 2868 00001C18 BF00    C_210   NOP
 2869 00001C1A 7808            LDRB             R0,[R1,#0]
 2870 00001C1C 1E40            SUBS             R0,R0,#1
 2871 00001C1E 7008            STRB             R0,[R1,#0]
 2872 00001C20 48C6            LDR              R0,=W_94
 2873 00001C22 4700    B_94    BX               R0
 2874 00001C24 BF00    E_94    NOP
 2875 00001C26 1C49            ADDS             R1,R1,#1
 2876 00001C28 4291            CMP              R1,R2
 2877 00001C2A D301            BLO              C_211
 2878 00001C2C 48C2            LDR              R0,=End_OF
 2879 00001C2E 4700            BX               R0
 2880 00001C30 BF00    C_211   NOP
 2881 00001C32 48C4            LDR              R0,=W_21
 2882 00001C34 4700    B_21    BX               R0
 2883 00001C36 BF00    E_21    NOP
 2884 00001C38 2900            CMP              R1,#0
 2885 00001C3A D101            BNE              C_212
 2886 00001C3C 48C0            LDR              R0,=End_UF
 2887 00001C3E 4700            BX               R0
 2888 00001C40 1E49    C_212   SUBS             R1,R1,#1
 2889 00001C42 7808    W_95    LDRB             R0,[R1,#0]
 2890 00001C44 2800            CMP              R0,#0
 2891 00001C46 D000            BEQ              BE_95
 2892 00001C48 E001            B                A_95
 2893 00001C4A 48BF    BE_95   LDR              R0,=E_95
 2894 00001C4C 4700            BX               R0
 2895 00001C4E BF00    A_95    NOP
 2896 00001C50 2900            CMP              R1,#0
 2897 00001C52 D101            BNE              C_213
 2898 00001C54 48BA            LDR              R0,=End_UF
 2899 00001C56 4700            BX               R0
 2900 00001C58 1E49    C_213   SUBS             R1,R1,#1
 2901 00001C5A 7808            LDRB             R0,[R1,#0]
 2902 00001C5C F7FF FFFE       BL               PutChar
 2903 00001C60 7808            LDRB             R0,[R1,#0]
 2904 00001C62 F7FF FFFE       BL               PutChar
 2905 00001C66 7808            LDRB             R0,[R1,#0]
 2906 00001C68 F7FF FFFE       BL               PutChar
 2907 00001C6C 7808            LDRB             R0,[R1,#0]
 2908 00001C6E F7FF FFFE       BL               PutChar
 2909 00001C72 2900            CMP              R1,#0
 2910 00001C74 D101            BNE              C_214
 2911 00001C76 48B2            LDR              R0,=End_UF
 2912 00001C78 4700            BX               R0
 2913 00001C7A 1E49    C_214   SUBS             R1,R1,#1
 2914 00001C7C 7808            LDRB             R0,[R1,#0]
 2915 00001C7E F7FF FFFE       BL               PutChar
 2916 00001C82 1C89            ADDS             R1,R1,#2



ARM Macro Assembler    Page 58 Lab 7 prelab


 2917 00001C84 4291            CMP              R1,R2
 2918 00001C86 D301            BLO              C_215
 2919 00001C88 48AB            LDR              R0,=End_OF
 2920 00001C8A 4700            BX               R0
 2921 00001C8C BF00    C_215   NOP
 2922 00001C8E 7808            LDRB             R0,[R1,#0]
 2923 00001C90 1E40            SUBS             R0,R0,#1
 2924 00001C92 7008            STRB             R0,[R1,#0]
 2925 00001C94 48B1            LDR              R0,=W_95
 2926 00001C96 4700    B_95    BX               R0
 2927 00001C98 BF00    E_95    NOP
 2928 00001C9A 1C49            ADDS             R1,R1,#1
 2929 00001C9C 4291            CMP              R1,R2
 2930 00001C9E D301            BLO              C_216
 2931 00001CA0 48A5            LDR              R0,=End_OF
 2932 00001CA2 4700            BX               R0
 2933 00001CA4 BF00    C_216   NOP
 2934 00001CA6 48AF            LDR              R0,=W_20
 2935 00001CA8 4700    B_20    BX               R0
 2936 00001CAA BF00    E_20    NOP
 2937 00001CAC 2900            CMP              R1,#0
 2938 00001CAE D101            BNE              C_217
 2939 00001CB0 48A3            LDR              R0,=End_UF
 2940 00001CB2 4700            BX               R0
 2941 00001CB4 1E49    C_217   SUBS             R1,R1,#1
 2942 00001CB6 7808    W_96    LDRB             R0,[R1,#0]
 2943 00001CB8 2800            CMP              R0,#0
 2944 00001CBA D000            BEQ              BE_96
 2945 00001CBC E001            B                A_96
 2946 00001CBE 48A3    BE_96   LDR              R0,=E_96
 2947 00001CC0 4700            BX               R0
 2948 00001CC2 BF00    A_96    NOP
 2949 00001CC4 2900            CMP              R1,#0
 2950 00001CC6 D101            BNE              C_218
 2951 00001CC8 489D            LDR              R0,=End_UF
 2952 00001CCA 4700            BX               R0
 2953 00001CCC 1E49    C_218   SUBS             R1,R1,#1
 2954 00001CCE 7808            LDRB             R0,[R1,#0]
 2955 00001CD0 F7FF FFFE       BL               PutChar
 2956 00001CD4 7808            LDRB             R0,[R1,#0]
 2957 00001CD6 F7FF FFFE       BL               PutChar
 2958 00001CDA 7808            LDRB             R0,[R1,#0]
 2959 00001CDC F7FF FFFE       BL               PutChar
 2960 00001CE0 2900            CMP              R1,#0
 2961 00001CE2 D101            BNE              C_219
 2962 00001CE4 4896            LDR              R0,=End_UF
 2963 00001CE6 4700            BX               R0
 2964 00001CE8 1E49    C_219   SUBS             R1,R1,#1
 2965 00001CEA 7808            LDRB             R0,[R1,#0]
 2966 00001CEC F7FF FFFE       BL               PutChar
 2967 00001CF0 7808            LDRB             R0,[R1,#0]
 2968 00001CF2 F7FF FFFE       BL               PutChar
 2969 00001CF6 1C89            ADDS             R1,R1,#2
 2970 00001CF8 4291            CMP              R1,R2
 2971 00001CFA D301            BLO              C_220
 2972 00001CFC 488E            LDR              R0,=End_OF
 2973 00001CFE 4700            BX               R0
 2974 00001D00 BF00    C_220   NOP
 2975 00001D02 7808            LDRB             R0,[R1,#0]



ARM Macro Assembler    Page 59 Lab 7 prelab


 2976 00001D04 1E40            SUBS             R0,R0,#1
 2977 00001D06 7008            STRB             R0,[R1,#0]
 2978 00001D08 489C            LDR              R0,=W_96
 2979 00001D0A 4700    B_96    BX               R0
 2980 00001D0C BF00    E_96    NOP
 2981 00001D0E 1C49            ADDS             R1,R1,#1
 2982 00001D10 4291            CMP              R1,R2
 2983 00001D12 D301            BLO              C_221
 2984 00001D14 4888            LDR              R0,=End_OF
 2985 00001D16 4700            BX               R0
 2986 00001D18 BF00    C_221   NOP
 2987 00001D1A 489A            LDR              R0,=W_19
 2988 00001D1C 4700    B_19    BX               R0
 2989 00001D1E BF00    E_19    NOP
 2990 00001D20 2900            CMP              R1,#0
 2991 00001D22 D101            BNE              C_222
 2992 00001D24 4886            LDR              R0,=End_UF
 2993 00001D26 4700            BX               R0
 2994 00001D28 1E49    C_222   SUBS             R1,R1,#1
 2995 00001D2A 7808    W_97    LDRB             R0,[R1,#0]
 2996 00001D2C 2800            CMP              R0,#0
 2997 00001D2E D000            BEQ              BE_97
 2998 00001D30 E001            B                A_97
 2999 00001D32 4887    BE_97   LDR              R0,=E_97
 3000 00001D34 4700            BX               R0
 3001 00001D36 BF00    A_97    NOP
 3002 00001D38 2900            CMP              R1,#0
 3003 00001D3A D101            BNE              C_223
 3004 00001D3C 4880            LDR              R0,=End_UF
 3005 00001D3E 4700            BX               R0
 3006 00001D40 1E49    C_223   SUBS             R1,R1,#1
 3007 00001D42 7808            LDRB             R0,[R1,#0]
 3008 00001D44 F7FF FFFE       BL               PutChar
 3009 00001D48 7808            LDRB             R0,[R1,#0]
 3010 00001D4A F7FF FFFE       BL               PutChar
 3011 00001D4E 2900            CMP              R1,#0
 3012 00001D50 D101            BNE              C_224
 3013 00001D52 487B            LDR              R0,=End_UF
 3014 00001D54 4700            BX               R0
 3015 00001D56 1E49    C_224   SUBS             R1,R1,#1
 3016 00001D58 7808            LDRB             R0,[R1,#0]
 3017 00001D5A F7FF FFFE       BL               PutChar
 3018 00001D5E 7808            LDRB             R0,[R1,#0]
 3019 00001D60 F7FF FFFE       BL               PutChar
 3020 00001D64 7808            LDRB             R0,[R1,#0]
 3021 00001D66 F7FF FFFE       BL               PutChar
 3022 00001D6A 1C89            ADDS             R1,R1,#2
 3023 00001D6C 4291            CMP              R1,R2
 3024 00001D6E D301            BLO              C_225
 3025 00001D70 4871            LDR              R0,=End_OF
 3026 00001D72 4700            BX               R0
 3027 00001D74 BF00    C_225   NOP
 3028 00001D76 7808            LDRB             R0,[R1,#0]
 3029 00001D78 1E40            SUBS             R0,R0,#1
 3030 00001D7A 7008            STRB             R0,[R1,#0]
 3031 00001D7C 4887            LDR              R0,=W_97
 3032 00001D7E 4700    B_97    BX               R0
 3033 00001D80 BF00    E_97    NOP
 3034 00001D82 1C49            ADDS             R1,R1,#1



ARM Macro Assembler    Page 60 Lab 7 prelab


 3035 00001D84 4291            CMP              R1,R2
 3036 00001D86 D301            BLO              C_226
 3037 00001D88 486B            LDR              R0,=End_OF
 3038 00001D8A 4700            BX               R0
 3039 00001D8C BF00    C_226   NOP
 3040 00001D8E 4885            LDR              R0,=W_18
 3041 00001D90 4700    B_18    BX               R0
 3042 00001D92 BF00    E_18    NOP
 3043 00001D94 2900            CMP              R1,#0
 3044 00001D96 D101            BNE              C_227
 3045 00001D98 4869            LDR              R0,=End_UF
 3046 00001D9A 4700            BX               R0
 3047 00001D9C 1E49    C_227   SUBS             R1,R1,#1
 3048 00001D9E 7808    W_98    LDRB             R0,[R1,#0]
 3049 00001DA0 2800            CMP              R0,#0
 3050 00001DA2 D000            BEQ              BE_98
 3051 00001DA4 E001            B                A_98
 3052 00001DA6 486B    BE_98   LDR              R0,=E_98
 3053 00001DA8 4700            BX               R0
 3054 00001DAA BF00    A_98    NOP
 3055 00001DAC 2900            CMP              R1,#0
 3056 00001DAE D101            BNE              C_228
 3057 00001DB0 4863            LDR              R0,=End_UF
 3058 00001DB2 4700            BX               R0
 3059 00001DB4 1E49    C_228   SUBS             R1,R1,#1
 3060 00001DB6 7808            LDRB             R0,[R1,#0]
 3061 00001DB8 F7FF FFFE       BL               PutChar
 3062 00001DBC 2900            CMP              R1,#0
 3063 00001DBE D101            BNE              C_229
 3064 00001DC0 485F            LDR              R0,=End_UF
 3065 00001DC2 4700            BX               R0
 3066 00001DC4 1E49    C_229   SUBS             R1,R1,#1
 3067 00001DC6 7808            LDRB             R0,[R1,#0]
 3068 00001DC8 F7FF FFFE       BL               PutChar
 3069 00001DCC 7808            LDRB             R0,[R1,#0]
 3070 00001DCE F7FF FFFE       BL               PutChar
 3071 00001DD2 7808            LDRB             R0,[R1,#0]
 3072 00001DD4 F7FF FFFE       BL               PutChar
 3073 00001DD8 7808            LDRB             R0,[R1,#0]
 3074 00001DDA F7FF FFFE       BL               PutChar
 3075 00001DDE 1C89            ADDS             R1,R1,#2
 3076 00001DE0 4291            CMP              R1,R2
 3077 00001DE2 D301            BLO              C_230
 3078 00001DE4 4854            LDR              R0,=End_OF
 3079 00001DE6 4700            BX               R0
 3080 00001DE8 BF00    C_230   NOP
 3081 00001DEA 7808            LDRB             R0,[R1,#0]
 3082 00001DEC 1E40            SUBS             R0,R0,#1
 3083 00001DEE 7008            STRB             R0,[R1,#0]
 3084 00001DF0 4872            LDR              R0,=W_98
 3085 00001DF2 4700    B_98    BX               R0
 3086 00001DF4 BF00    E_98    NOP
 3087 00001DF6 1C49            ADDS             R1,R1,#1
 3088 00001DF8 4291            CMP              R1,R2
 3089 00001DFA D301            BLO              C_231
 3090 00001DFC 484E            LDR              R0,=End_OF
 3091 00001DFE 4700            BX               R0
 3092 00001E00 BF00    C_231   NOP
 3093 00001E02 4870            LDR              R0,=W_17



ARM Macro Assembler    Page 61 Lab 7 prelab


 3094 00001E04 4700    B_17    BX               R0
 3095 00001E06 BF00    E_17    NOP
 3096 00001E08 2900            CMP              R1,#0
 3097 00001E0A D101            BNE              C_232
 3098 00001E0C 484C            LDR              R0,=End_UF
 3099 00001E0E 4700            BX               R0
 3100 00001E10 1E49    C_232   SUBS             R1,R1,#1
 3101 00001E12 7808    W_99    LDRB             R0,[R1,#0]
 3102 00001E14 2800            CMP              R0,#0
 3103 00001E16 D000            BEQ              BE_99
 3104 00001E18 E001            B                A_99
 3105 00001E1A 484F    BE_99   LDR              R0,=E_99
 3106 00001E1C 4700            BX               R0
 3107 00001E1E BF00    A_99    NOP
 3108 00001E20 2900            CMP              R1,#0
 3109 00001E22 D101            BNE              C_233
 3110 00001E24 4846            LDR              R0,=End_UF
 3111 00001E26 4700            BX               R0
 3112 00001E28 1E89    C_233   SUBS             R1,R1,#2
 3113 00001E2A 7808            LDRB             R0,[R1,#0]
 3114 00001E2C F7FF FFFE       BL               PutChar
 3115 00001E30 7808            LDRB             R0,[R1,#0]
 3116 00001E32 F7FF FFFE       BL               PutChar
 3117 00001E36 7808            LDRB             R0,[R1,#0]
 3118 00001E38 F7FF FFFE       BL               PutChar
 3119 00001E3C 7808            LDRB             R0,[R1,#0]
 3120 00001E3E F7FF FFFE       BL               PutChar
 3121 00001E42 7808            LDRB             R0,[R1,#0]
 3122 00001E44 F7FF FFFE       BL               PutChar
 3123 00001E48 1C89            ADDS             R1,R1,#2
 3124 00001E4A 4291            CMP              R1,R2
 3125 00001E4C D301            BLO              C_234
 3126 00001E4E 483A            LDR              R0,=End_OF
 3127 00001E50 4700            BX               R0
 3128 00001E52 BF00    C_234   NOP
 3129 00001E54 7808            LDRB             R0,[R1,#0]
 3130 00001E56 1E40            SUBS             R0,R0,#1
 3131 00001E58 7008            STRB             R0,[R1,#0]
 3132 00001E5A 485F            LDR              R0,=W_99
 3133 00001E5C 4700    B_99    BX               R0
 3134 00001E5E BF00    E_99    NOP
 3135 00001E60 1C49            ADDS             R1,R1,#1
 3136 00001E62 4291            CMP              R1,R2
 3137 00001E64 D301            BLO              C_235
 3138 00001E66 4834            LDR              R0,=End_OF
 3139 00001E68 4700            BX               R0
 3140 00001E6A BF00    C_235   NOP
 3141 00001E6C 485C            LDR              R0,=W_16
 3142 00001E6E 4700    B_16    BX               R0
 3143 00001E70 BF00    E_16    NOP
 3144 00001E72 2900            CMP              R1,#0
 3145 00001E74 D101            BNE              C_236
 3146 00001E76 4832            LDR              R0,=End_UF
 3147 00001E78 4700            BX               R0
 3148 00001E7A 1E49    C_236   SUBS             R1,R1,#1
 3149 00001E7C 7808    W_100   LDRB             R0,[R1,#0]
 3150 00001E7E 2800            CMP              R0,#0
 3151 00001E80 D000            BEQ              BE_100
 3152 00001E82 E001            B                A_100



ARM Macro Assembler    Page 62 Lab 7 prelab


 3153 00001E84 4836    BE_100  LDR              R0,=E_100
 3154 00001E86 4700            BX               R0
 3155 00001E88 BF00    A_100   NOP
 3156 00001E8A 2900            CMP              R1,#0
 3157 00001E8C D101            BNE              C_237
 3158 00001E8E 482C            LDR              R0,=End_UF
 3159 00001E90 4700            BX               R0
 3160 00001E92 1E89    C_237   SUBS             R1,R1,#2
 3161 00001E94 7808            LDRB             R0,[R1,#0]
 3162 00001E96 F7FF FFFE       BL               PutChar
 3163 00001E9A 1C49            ADDS             R1,R1,#1
 3164 00001E9C 4291            CMP              R1,R2
 3165 00001E9E D301            BLO              C_238
 3166 00001EA0 4825            LDR              R0,=End_OF
 3167 00001EA2 4700            BX               R0
 3168 00001EA4 BF00    C_238   NOP
 3169 00001EA6 7808            LDRB             R0,[R1,#0]
 3170 00001EA8 F7FF FFFE       BL               PutChar
 3171 00001EAC 7808            LDRB             R0,[R1,#0]
 3172 00001EAE F7FF FFFE       BL               PutChar
 3173 00001EB2 2900            CMP              R1,#0
 3174 00001EB4 D101            BNE              C_239
 3175 00001EB6 4822            LDR              R0,=End_UF
 3176 00001EB8 4700            BX               R0
 3177 00001EBA 1E49    C_239   SUBS             R1,R1,#1
 3178 00001EBC 7808            LDRB             R0,[R1,#0]
 3179 00001EBE F7FF FFFE       BL               PutChar
 3180 00001EC2 1C49            ADDS             R1,R1,#1
 3181 00001EC4 4291            CMP              R1,R2
 3182 00001EC6 D301            BLO              C_240
 3183 00001EC8 481B            LDR              R0,=End_OF
 3184 00001ECA 4700            BX               R0
 3185 00001ECC BF00    C_240   NOP
 3186 00001ECE 7808            LDRB             R0,[R1,#0]
 3187 00001ED0 F7FF FFFE       BL               PutChar
 3188 00001ED4 1C49            ADDS             R1,R1,#1
 3189 00001ED6 4291            CMP              R1,R2
 3190 00001ED8 D301            BLO              C_241
 3191 00001EDA 4817            LDR              R0,=End_OF
 3192 00001EDC 4700            BX               R0
 3193 00001EDE BF00    C_241   NOP
 3194 00001EE0 7808            LDRB             R0,[R1,#0]
 3195 00001EE2 1E40            SUBS             R0,R0,#1
 3196 00001EE4 7008            STRB             R0,[R1,#0]
 3197 00001EE6 4846            LDR              R0,=W_100
 3198 00001EE8 4700    B_100   BX               R0
 3199 00001EEA BF00    E_100   NOP
 3200 00001EEC 1C49            ADDS             R1,R1,#1
 3201 00001EEE 4291            CMP              R1,R2
 3202 00001EF0 D301            BLO              C_242
 3203 00001EF2 4811            LDR              R0,=End_OF
 3204 00001EF4 4700            BX               R0
 3205 00001EF6 BF00    C_242   NOP
 3206 00001EF8 4843            LDR              R0,=W_15
 3207 00001EFA 4700    B_15    BX               R0
 3208 00001EFC BF00    E_15    NOP
 3209 00001EFE 2900            CMP              R1,#0
 3210 00001F00 D101            BNE              C_243
 3211 00001F02 480F            LDR              R0,=End_UF



ARM Macro Assembler    Page 63 Lab 7 prelab


 3212 00001F04 4700            BX               R0
 3213 00001F06 1E49    C_243   SUBS             R1,R1,#1
 3214 00001F08 7808    W_101   LDRB             R0,[R1,#0]
 3215 00001F0A 2800            CMP              R0,#0
 3216 00001F0C D000            BEQ              BE_101
 3217 00001F0E E001            B                A_101
 3218 00001F10 4815    BE_101  LDR              R0,=E_101
 3219 00001F12 4700            BX               R0
 3220 00001F14 BF00    A_101   NOP
 3221 00001F16 2900            CMP              R1,#0
 3222 00001F18 D101            BNE              C_244
 3223 00001F1A 4809            LDR              R0,=End_UF
 3224 00001F1C 4700            BX               R0
 3225 00001F1E 1E49    C_244   SUBS             R1,R1,#1
 3226 00001F20 7808            LDRB             R0,[R1,#0]
 3227 00001F22 F7FF FFFE       BL               PutChar
 3228 00001F26 2900            CMP              R1,#0
 3229 00001F28 D101            BNE              C_245
 3230 00001F2A 4805            LDR              R0,=End_UF
 3231 00001F2C 4700            BX               R0
 3232 00001F2E 1E49    C_245   SUBS             R1,R1,#1
 3233 00001F30 7808            LDRB             R0,[R1,#0]
 3234 00001F32 F7FF FFFE       BL               PutChar
 3235 00001F36 E071            B                L_7
 3236 00001F38 00000000 
              00000000 
              00000000 
              00000000 
              00000000 
              00000000 
              00000000 
              00000000 
              00000000 
              00000000 
              00000000 
              00000000 
              00000000 
              00000000 
              00000000 
              00000000 
              00000000 
              00000000 
              00000000 
              00000000 
              00000000 
              00000000 
              00000000 
              00000000 
              00000000 
              00000000 
              00000000 
              00000000 
              00000000 
              00000000 
              00000000 
              00000000 
              00000000 
              00000000 
              00000000 



ARM Macro Assembler    Page 64 Lab 7 prelab


              00000000 
              00000000 
              00000000 
              00000000 
              00000000 
              00000000 
              00000000 
              00000000 
              00000000 
              00000000 
              00000000 
              00000000 
              00000000 
              00000000 
              00000000 
              00000000 
              00000000 
              00000000 
              00000000 
              00000000 
              00000000 
              00000000         LTORG
 3237 0000201C BF00    L_7     NOP
 3238 0000201E 1C49            ADDS             R1,R1,#1
 3239 00002020 4291            CMP              R1,R2
 3240 00002022 D301            BLO              C_246
 3241 00002024 48CC            LDR              R0,=End_OF
 3242 00002026 4700            BX               R0
 3243 00002028 BF00    C_246   NOP
 3244 0000202A 7808            LDRB             R0,[R1,#0]
 3245 0000202C F7FF FFFE       BL               PutChar
 3246 00002030 2900            CMP              R1,#0
 3247 00002032 D101            BNE              C_247
 3248 00002034 48C9            LDR              R0,=End_UF
 3249 00002036 4700            BX               R0
 3250 00002038 1E49    C_247   SUBS             R1,R1,#1
 3251 0000203A 7808            LDRB             R0,[R1,#0]
 3252 0000203C F7FF FFFE       BL               PutChar
 3253 00002040 1C49            ADDS             R1,R1,#1
 3254 00002042 4291            CMP              R1,R2
 3255 00002044 D301            BLO              C_248
 3256 00002046 48C4            LDR              R0,=End_OF
 3257 00002048 4700            BX               R0
 3258 0000204A BF00    C_248   NOP
 3259 0000204C 7808            LDRB             R0,[R1,#0]
 3260 0000204E F7FF FFFE       BL               PutChar
 3261 00002052 2900            CMP              R1,#0
 3262 00002054 D101            BNE              C_249
 3263 00002056 48C1            LDR              R0,=End_UF
 3264 00002058 4700            BX               R0
 3265 0000205A 1E49    C_249   SUBS             R1,R1,#1
 3266 0000205C 7808            LDRB             R0,[R1,#0]
 3267 0000205E F7FF FFFE       BL               PutChar
 3268 00002062 1C89            ADDS             R1,R1,#2
 3269 00002064 4291            CMP              R1,R2
 3270 00002066 D301            BLO              C_250
 3271 00002068 48BB            LDR              R0,=End_OF
 3272 0000206A 4700            BX               R0
 3273 0000206C BF00    C_250   NOP



ARM Macro Assembler    Page 65 Lab 7 prelab


 3274 0000206E 7808            LDRB             R0,[R1,#0]
 3275 00002070 1E40            SUBS             R0,R0,#1
 3276 00002072 7008            STRB             R0,[R1,#0]
 3277 00002074 48BD            LDR              R0,=W_101
 3278 00002076 4700    B_101   BX               R0
 3279 00002078 BF00    E_101   NOP
 3280 0000207A 1C49            ADDS             R1,R1,#1
 3281 0000207C 4291            CMP              R1,R2
 3282 0000207E D301            BLO              C_251
 3283 00002080 48B5            LDR              R0,=End_OF
 3284 00002082 4700            BX               R0
 3285 00002084 BF00    C_251   NOP
 3286 00002086 48BB            LDR              R0,=W_14
 3287 00002088 4700    B_14    BX               R0
 3288 0000208A BF00    E_14    NOP
 3289 0000208C 2900            CMP              R1,#0
 3290 0000208E D101            BNE              C_252
 3291 00002090 48B2            LDR              R0,=End_UF
 3292 00002092 4700            BX               R0
 3293 00002094 1E49    C_252   SUBS             R1,R1,#1
 3294 00002096 7808    W_102   LDRB             R0,[R1,#0]
 3295 00002098 2800            CMP              R0,#0
 3296 0000209A D000            BEQ              BE_102
 3297 0000209C E001            B                A_102
 3298 0000209E 48B0    BE_102  LDR              R0,=E_102
 3299 000020A0 4700            BX               R0
 3300 000020A2 BF00    A_102   NOP
 3301 000020A4 2900            CMP              R1,#0
 3302 000020A6 D101            BNE              C_253
 3303 000020A8 48AC            LDR              R0,=End_UF
 3304 000020AA 4700            BX               R0
 3305 000020AC 1E89    C_253   SUBS             R1,R1,#2
 3306 000020AE 7808            LDRB             R0,[R1,#0]
 3307 000020B0 F7FF FFFE       BL               PutChar
 3308 000020B4 1C49            ADDS             R1,R1,#1
 3309 000020B6 4291            CMP              R1,R2
 3310 000020B8 D301            BLO              C_254
 3311 000020BA 48A7            LDR              R0,=End_OF
 3312 000020BC 4700            BX               R0
 3313 000020BE BF00    C_254   NOP
 3314 000020C0 7808            LDRB             R0,[R1,#0]
 3315 000020C2 F7FF FFFE       BL               PutChar
 3316 000020C6 7808            LDRB             R0,[R1,#0]
 3317 000020C8 F7FF FFFE       BL               PutChar
 3318 000020CC 7808            LDRB             R0,[R1,#0]
 3319 000020CE F7FF FFFE       BL               PutChar
 3320 000020D2 7808            LDRB             R0,[R1,#0]
 3321 000020D4 F7FF FFFE       BL               PutChar
 3322 000020D8 2900            CMP              R1,#0
 3323 000020DA D101            BNE              C_255
 3324 000020DC 489F            LDR              R0,=End_UF
 3325 000020DE 4700            BX               R0
 3326 000020E0 1E49    C_255   SUBS             R1,R1,#1
 3327 000020E2 7808            LDRB             R0,[R1,#0]
 3328 000020E4 F7FF FFFE       BL               PutChar
 3329 000020E8 1C89            ADDS             R1,R1,#2
 3330 000020EA 4291            CMP              R1,R2
 3331 000020EC D301            BLO              C_256
 3332 000020EE 489A            LDR              R0,=End_OF



ARM Macro Assembler    Page 66 Lab 7 prelab


 3333 000020F0 4700            BX               R0
 3334 000020F2 BF00    C_256   NOP
 3335 000020F4 7808            LDRB             R0,[R1,#0]
 3336 000020F6 1E40            SUBS             R0,R0,#1
 3337 000020F8 7008            STRB             R0,[R1,#0]
 3338 000020FA 48A5            LDR              R0,=W_102
 3339 000020FC 4700    B_102   BX               R0
 3340 000020FE BF00    E_102   NOP
 3341 00002100 1C49            ADDS             R1,R1,#1
 3342 00002102 4291            CMP              R1,R2
 3343 00002104 D301            BLO              C_257
 3344 00002106 4894            LDR              R0,=End_OF
 3345 00002108 4700            BX               R0
 3346 0000210A BF00    C_257   NOP
 3347 0000210C 48A2            LDR              R0,=W_13
 3348 0000210E 4700    B_13    BX               R0
 3349 00002110 BF00    E_13    NOP
 3350 00002112 2900            CMP              R1,#0
 3351 00002114 D101            BNE              C_258
 3352 00002116 4891            LDR              R0,=End_UF
 3353 00002118 4700            BX               R0
 3354 0000211A 1E49    C_258   SUBS             R1,R1,#1
 3355 0000211C 7808    W_103   LDRB             R0,[R1,#0]
 3356 0000211E 2800            CMP              R0,#0
 3357 00002120 D000            BEQ              BE_103
 3358 00002122 E001            B                A_103
 3359 00002124 488F    BE_103  LDR              R0,=E_103
 3360 00002126 4700            BX               R0
 3361 00002128 BF00    A_103   NOP
 3362 0000212A 2900            CMP              R1,#0
 3363 0000212C D101            BNE              C_259
 3364 0000212E 488B            LDR              R0,=End_UF
 3365 00002130 4700            BX               R0
 3366 00002132 1E89    C_259   SUBS             R1,R1,#2
 3367 00002134 7808            LDRB             R0,[R1,#0]
 3368 00002136 F7FF FFFE       BL               PutChar
 3369 0000213A 7808            LDRB             R0,[R1,#0]
 3370 0000213C F7FF FFFE       BL               PutChar
 3371 00002140 1C49            ADDS             R1,R1,#1
 3372 00002142 4291            CMP              R1,R2
 3373 00002144 D301            BLO              C_260
 3374 00002146 4884            LDR              R0,=End_OF
 3375 00002148 4700            BX               R0
 3376 0000214A BF00    C_260   NOP
 3377 0000214C 7808            LDRB             R0,[R1,#0]
 3378 0000214E F7FF FFFE       BL               PutChar
 3379 00002152 7808            LDRB             R0,[R1,#0]
 3380 00002154 F7FF FFFE       BL               PutChar
 3381 00002158 2900            CMP              R1,#0
 3382 0000215A D101            BNE              C_261
 3383 0000215C 487F            LDR              R0,=End_UF
 3384 0000215E 4700            BX               R0
 3385 00002160 1E49    C_261   SUBS             R1,R1,#1
 3386 00002162 7808            LDRB             R0,[R1,#0]
 3387 00002164 F7FF FFFE       BL               PutChar
 3388 00002168 7808            LDRB             R0,[R1,#0]
 3389 0000216A F7FF FFFE       BL               PutChar
 3390 0000216E 1C89            ADDS             R1,R1,#2
 3391 00002170 4291            CMP              R1,R2



ARM Macro Assembler    Page 67 Lab 7 prelab


 3392 00002172 D301            BLO              C_262
 3393 00002174 4878            LDR              R0,=End_OF
 3394 00002176 4700            BX               R0
 3395 00002178 BF00    C_262   NOP
 3396 0000217A 7808            LDRB             R0,[R1,#0]
 3397 0000217C 1E40            SUBS             R0,R0,#1
 3398 0000217E 7008            STRB             R0,[R1,#0]
 3399 00002180 488C            LDR              R0,=W_103
 3400 00002182 4700    B_103   BX               R0
 3401 00002184 BF00    E_103   NOP
 3402 00002186 1C49            ADDS             R1,R1,#1
 3403 00002188 4291            CMP              R1,R2
 3404 0000218A D301            BLO              C_263
 3405 0000218C 4872            LDR              R0,=End_OF
 3406 0000218E 4700            BX               R0
 3407 00002190 BF00    C_263   NOP
 3408 00002192 488A            LDR              R0,=W_12
 3409 00002194 4700    B_12    BX               R0
 3410 00002196 BF00    E_12    NOP
 3411 00002198 2900            CMP              R1,#0
 3412 0000219A D101            BNE              C_264
 3413 0000219C 486F            LDR              R0,=End_UF
 3414 0000219E 4700            BX               R0
 3415 000021A0 1E49    C_264   SUBS             R1,R1,#1
 3416 000021A2 7808    W_104   LDRB             R0,[R1,#0]
 3417 000021A4 2800            CMP              R0,#0
 3418 000021A6 D000            BEQ              BE_104
 3419 000021A8 E001            B                A_104
 3420 000021AA 486F    BE_104  LDR              R0,=E_104
 3421 000021AC 4700            BX               R0
 3422 000021AE BF00    A_104   NOP
 3423 000021B0 2900            CMP              R1,#0
 3424 000021B2 D101            BNE              C_265
 3425 000021B4 4869            LDR              R0,=End_UF
 3426 000021B6 4700            BX               R0
 3427 000021B8 1E89    C_265   SUBS             R1,R1,#2
 3428 000021BA 7808            LDRB             R0,[R1,#0]
 3429 000021BC F7FF FFFE       BL               PutChar
 3430 000021C0 1C49            ADDS             R1,R1,#1
 3431 000021C2 4291            CMP              R1,R2
 3432 000021C4 D301            BLO              C_266
 3433 000021C6 4864            LDR              R0,=End_OF
 3434 000021C8 4700            BX               R0
 3435 000021CA BF00    C_266   NOP
 3436 000021CC 7808            LDRB             R0,[R1,#0]
 3437 000021CE F7FF FFFE       BL               PutChar
 3438 000021D2 2900            CMP              R1,#0
 3439 000021D4 D101            BNE              C_267
 3440 000021D6 4861            LDR              R0,=End_UF
 3441 000021D8 4700            BX               R0
 3442 000021DA 1E49    C_267   SUBS             R1,R1,#1
 3443 000021DC 7808            LDRB             R0,[R1,#0]
 3444 000021DE F7FF FFFE       BL               PutChar
 3445 000021E2 7808            LDRB             R0,[R1,#0]
 3446 000021E4 F7FF FFFE       BL               PutChar
 3447 000021E8 1C49            ADDS             R1,R1,#1
 3448 000021EA 4291            CMP              R1,R2
 3449 000021EC D301            BLO              C_268
 3450 000021EE 485A            LDR              R0,=End_OF



ARM Macro Assembler    Page 68 Lab 7 prelab


 3451 000021F0 4700            BX               R0
 3452 000021F2 BF00    C_268   NOP
 3453 000021F4 7808            LDRB             R0,[R1,#0]
 3454 000021F6 F7FF FFFE       BL               PutChar
 3455 000021FA 2900            CMP              R1,#0
 3456 000021FC D101            BNE              C_269
 3457 000021FE 4857            LDR              R0,=End_UF
 3458 00002200 4700            BX               R0
 3459 00002202 1E49    C_269   SUBS             R1,R1,#1
 3460 00002204 7808            LDRB             R0,[R1,#0]
 3461 00002206 F7FF FFFE       BL               PutChar
 3462 0000220A 1C89            ADDS             R1,R1,#2
 3463 0000220C 4291            CMP              R1,R2
 3464 0000220E D301            BLO              C_270
 3465 00002210 4851            LDR              R0,=End_OF
 3466 00002212 4700            BX               R0
 3467 00002214 BF00    C_270   NOP
 3468 00002216 7808            LDRB             R0,[R1,#0]
 3469 00002218 1E40            SUBS             R0,R0,#1
 3470 0000221A 7008            STRB             R0,[R1,#0]
 3471 0000221C 4870            LDR              R0,=W_104
 3472 0000221E 4700    B_104   BX               R0
 3473 00002220 BF00    E_104   NOP
 3474 00002222 1C49            ADDS             R1,R1,#1
 3475 00002224 4291            CMP              R1,R2
 3476 00002226 D301            BLO              C_271
 3477 00002228 484B            LDR              R0,=End_OF
 3478 0000222A 4700            BX               R0
 3479 0000222C BF00    C_271   NOP
 3480 0000222E 486E            LDR              R0,=W_11
 3481 00002230 4700    B_11    BX               R0
 3482 00002232 BF00    E_11    NOP
 3483 00002234 2900            CMP              R1,#0
 3484 00002236 D101            BNE              C_272
 3485 00002238 4848            LDR              R0,=End_UF
 3486 0000223A 4700            BX               R0
 3487 0000223C 1E49    C_272   SUBS             R1,R1,#1
 3488 0000223E 7808    W_105   LDRB             R0,[R1,#0]
 3489 00002240 2800            CMP              R0,#0
 3490 00002242 D000            BEQ              BE_105
 3491 00002244 E001            B                A_105
 3492 00002246 484A    BE_105  LDR              R0,=E_105
 3493 00002248 4700            BX               R0
 3494 0000224A BF00    A_105   NOP
 3495 0000224C 2900            CMP              R1,#0
 3496 0000224E D101            BNE              C_273
 3497 00002250 4842            LDR              R0,=End_UF
 3498 00002252 4700            BX               R0
 3499 00002254 1E89    C_273   SUBS             R1,R1,#2
 3500 00002256 7808            LDRB             R0,[R1,#0]
 3501 00002258 F7FF FFFE       BL               PutChar
 3502 0000225C 1C49            ADDS             R1,R1,#1
 3503 0000225E 4291            CMP              R1,R2
 3504 00002260 D301            BLO              C_274
 3505 00002262 483D            LDR              R0,=End_OF
 3506 00002264 4700            BX               R0
 3507 00002266 BF00    C_274   NOP
 3508 00002268 7808            LDRB             R0,[R1,#0]
 3509 0000226A F7FF FFFE       BL               PutChar



ARM Macro Assembler    Page 69 Lab 7 prelab


 3510 0000226E 2900            CMP              R1,#0
 3511 00002270 D101            BNE              C_275
 3512 00002272 483A            LDR              R0,=End_UF
 3513 00002274 4700            BX               R0
 3514 00002276 1E49    C_275   SUBS             R1,R1,#1
 3515 00002278 7808            LDRB             R0,[R1,#0]
 3516 0000227A F7FF FFFE       BL               PutChar
 3517 0000227E 7808            LDRB             R0,[R1,#0]
 3518 00002280 F7FF FFFE       BL               PutChar
 3519 00002284 1C49            ADDS             R1,R1,#1
 3520 00002286 4291            CMP              R1,R2
 3521 00002288 D301            BLO              C_276
 3522 0000228A 4833            LDR              R0,=End_OF
 3523 0000228C 4700            BX               R0
 3524 0000228E BF00    C_276   NOP
 3525 00002290 7808            LDRB             R0,[R1,#0]
 3526 00002292 F7FF FFFE       BL               PutChar
 3527 00002296 2900            CMP              R1,#0
 3528 00002298 D101            BNE              C_277
 3529 0000229A 4830            LDR              R0,=End_UF
 3530 0000229C 4700            BX               R0
 3531 0000229E 1E49    C_277   SUBS             R1,R1,#1
 3532 000022A0 7808            LDRB             R0,[R1,#0]
 3533 000022A2 F7FF FFFE       BL               PutChar
 3534 000022A6 1C89            ADDS             R1,R1,#2
 3535 000022A8 4291            CMP              R1,R2
 3536 000022AA D301            BLO              C_278
 3537 000022AC 482A            LDR              R0,=End_OF
 3538 000022AE 4700            BX               R0
 3539 000022B0 BF00    C_278   NOP
 3540 000022B2 7808            LDRB             R0,[R1,#0]
 3541 000022B4 1E40            SUBS             R0,R0,#1
 3542 000022B6 7008            STRB             R0,[R1,#0]
 3543 000022B8 4854            LDR              R0,=W_105
 3544 000022BA 4700    B_105   BX               R0
 3545 000022BC BF00    E_105   NOP
 3546 000022BE 1C49            ADDS             R1,R1,#1
 3547 000022C0 4291            CMP              R1,R2
 3548 000022C2 D301            BLO              C_279
 3549 000022C4 4824            LDR              R0,=End_OF
 3550 000022C6 4700            BX               R0
 3551 000022C8 BF00    C_279   NOP
 3552 000022CA 4852            LDR              R0,=W_10
 3553 000022CC 4700    B_10    BX               R0
 3554 000022CE BF00    E_10    NOP
 3555 000022D0 2900            CMP              R1,#0
 3556 000022D2 D101            BNE              C_280
 3557 000022D4 4821            LDR              R0,=End_UF
 3558 000022D6 4700            BX               R0
 3559 000022D8 1E49    C_280   SUBS             R1,R1,#1
 3560 000022DA 7808    W_106   LDRB             R0,[R1,#0]
 3561 000022DC 2800            CMP              R0,#0
 3562 000022DE D000            BEQ              BE_106
 3563 000022E0 E001            B                A_106
 3564 000022E2 4825    BE_106  LDR              R0,=E_106
 3565 000022E4 4700            BX               R0
 3566 000022E6 BF00    A_106   NOP
 3567 000022E8 2900            CMP              R1,#0
 3568 000022EA D101            BNE              C_281



ARM Macro Assembler    Page 70 Lab 7 prelab


 3569 000022EC 481B            LDR              R0,=End_UF
 3570 000022EE 4700            BX               R0
 3571 000022F0 1E49    C_281   SUBS             R1,R1,#1
 3572 000022F2 7808            LDRB             R0,[R1,#0]
 3573 000022F4 F7FF FFFE       BL               PutChar
 3574 000022F8 2900            CMP              R1,#0
 3575 000022FA D101            BNE              C_282
 3576 000022FC 4817            LDR              R0,=End_UF
 3577 000022FE 4700            BX               R0
 3578 00002300 1E49    C_282   SUBS             R1,R1,#1
 3579 00002302 7808            LDRB             R0,[R1,#0]
 3580 00002304 F7FF FFFE       BL               PutChar
 3581 00002308 7808            LDRB             R0,[R1,#0]
 3582 0000230A F7FF FFFE       BL               PutChar
 3583 0000230E 7808            LDRB             R0,[R1,#0]
 3584 00002310 F7FF FFFE       BL               PutChar
 3585 00002314 7808            LDRB             R0,[R1,#0]
 3586 00002316 F7FF FFFE       BL               PutChar
 3587 0000231A 1C49            ADDS             R1,R1,#1
 3588 0000231C 4291            CMP              R1,R2
 3589 0000231E D301            BLO              C_283
 3590 00002320 480D            LDR              R0,=End_OF
 3591 00002322 4700            BX               R0
 3592 00002324 BF00    C_283   NOP
 3593 00002326 7808            LDRB             R0,[R1,#0]
 3594 00002328 F7FF FFFE       BL               PutChar
 3595 0000232C 1C49            ADDS             R1,R1,#1
 3596 0000232E 4291            CMP              R1,R2
 3597 00002330 D301            BLO              C_284
 3598 00002332 4809            LDR              R0,=End_OF
 3599 00002334 4700            BX               R0
 3600 00002336 BF00    C_284   NOP
 3601 00002338 7808            LDRB             R0,[R1,#0]
 3602 0000233A 1E40            SUBS             R0,R0,#1
 3603 0000233C 7008            STRB             R0,[R1,#0]
 3604 0000233E 483C            LDR              R0,=W_106
 3605 00002340 4700    B_106   BX               R0
 3606 00002342 BF00    E_106   NOP
 3607 00002344 1C49            ADDS             R1,R1,#1
 3608 00002346 4291            CMP              R1,R2
 3609 00002348 D301            BLO              C_285
 3610 0000234A 4803            LDR              R0,=End_OF
 3611 0000234C 4700            BX               R0
 3612 0000234E BF00    C_285   NOP
 3613 00002350 4839            LDR              R0,=W_9
 3614 00002352 4700    B_9     BX               R0
 3615 00002354 BF00    E_9     NOP
 3616 00002356 E071            B                L_8
 3617 00002358 00000000 
              00000000 
              00000000 
              00000000 
              00000000 
              00000000 
              00000000 
              00000000 
              00000000 
              00000000 
              00000000 



ARM Macro Assembler    Page 71 Lab 7 prelab


              00000000 
              00000000 
              00000000 
              00000000 
              00000000 
              00000000 
              00000000 
              00000000 
              00000000 
              00000000 
              00000000 
              00000000 
              00000000 
              00000000 
              00000000 
              00000000 
              00000000 
              00000000 
              00000000 
              00000000 
              00000000 
              00000000 
              00000000 
              00000000 
              00000000 
              00000000 
              00000000 
              00000000 
              00000000 
              00000000 
              00000000 
              00000000 
              00000000 
              00000000 
              00000000 
              00000000 
              00000000 
              00000000 
              00000000 
              00000000 
              00000000 
              00000000 
              00000000 
              00000000 
              00000000 
              00000000         LTORG
 3618 0000243C BF00    L_8     NOP
 3619 0000243E 2900            CMP              R1,#0
 3620 00002440 D101            BNE              C_286
 3621 00002442 48FF            LDR              R0,=End_UF
 3622 00002444 4700            BX               R0
 3623 00002446 1E49    C_286   SUBS             R1,R1,#1
 3624 00002448 7808    W_107   LDRB             R0,[R1,#0]
 3625 0000244A 2800            CMP              R0,#0
 3626 0000244C D000            BEQ              BE_107
 3627 0000244E E001            B                A_107
 3628 00002450 48FC    BE_107  LDR              R0,=E_107
 3629 00002452 4700            BX               R0
 3630 00002454 BF00    A_107   NOP



ARM Macro Assembler    Page 72 Lab 7 prelab


 3631 00002456 2900            CMP              R1,#0
 3632 00002458 D101            BNE              C_287
 3633 0000245A 48F9            LDR              R0,=End_UF
 3634 0000245C 4700            BX               R0
 3635 0000245E 1E49    C_287   SUBS             R1,R1,#1
 3636 00002460 7808            LDRB             R0,[R1,#0]
 3637 00002462 F7FF FFFE       BL               PutChar
 3638 00002466 2900            CMP              R1,#0
 3639 00002468 D101            BNE              C_288
 3640 0000246A 48F5            LDR              R0,=End_UF
 3641 0000246C 4700            BX               R0
 3642 0000246E 1E89    C_288   SUBS             R1,R1,#2
 3643 00002470 7808            LDRB             R0,[R1,#0]
 3644 00002472 F7FF FFFE       BL               PutChar
 3645 00002476 1C89            ADDS             R1,R1,#2
 3646 00002478 4291            CMP              R1,R2
 3647 0000247A D301            BLO              C_289
 3648 0000247C 48F2            LDR              R0,=End_OF
 3649 0000247E 4700            BX               R0
 3650 00002480 BF00    C_289   NOP
 3651 00002482 7808            LDRB             R0,[R1,#0]
 3652 00002484 F7FF FFFE       BL               PutChar
 3653 00002488 7808            LDRB             R0,[R1,#0]
 3654 0000248A F7FF FFFE       BL               PutChar
 3655 0000248E 7808            LDRB             R0,[R1,#0]
 3656 00002490 F7FF FFFE       BL               PutChar
 3657 00002494 1C49            ADDS             R1,R1,#1
 3658 00002496 4291            CMP              R1,R2
 3659 00002498 D301            BLO              C_290
 3660 0000249A 48EB            LDR              R0,=End_OF
 3661 0000249C 4700            BX               R0
 3662 0000249E BF00    C_290   NOP
 3663 000024A0 7808            LDRB             R0,[R1,#0]
 3664 000024A2 1E40            SUBS             R0,R0,#1
 3665 000024A4 7008            STRB             R0,[R1,#0]
 3666 000024A6 48EC            LDR              R0,=W_107
 3667 000024A8 4700    B_107   BX               R0
 3668 000024AA BF00    E_107   NOP
 3669 000024AC 1C49            ADDS             R1,R1,#1
 3670 000024AE 4291            CMP              R1,R2
 3671 000024B0 D301            BLO              C_291
 3672 000024B2 48E5            LDR              R0,=End_OF
 3673 000024B4 4700            BX               R0
 3674 000024B6 BF00    C_291   NOP
 3675 000024B8 48E9            LDR              R0,=W_8
 3676 000024BA 4700    B_8     BX               R0
 3677 000024BC BF00    E_8     NOP
 3678 000024BE 2900            CMP              R1,#0
 3679 000024C0 D101            BNE              C_292
 3680 000024C2 48DF            LDR              R0,=End_UF
 3681 000024C4 4700            BX               R0
 3682 000024C6 1E49    C_292   SUBS             R1,R1,#1
 3683 000024C8 7808    W_108   LDRB             R0,[R1,#0]
 3684 000024CA 2800            CMP              R0,#0
 3685 000024CC D000            BEQ              BE_108
 3686 000024CE E001            B                A_108
 3687 000024D0 48DE    BE_108  LDR              R0,=E_108
 3688 000024D2 4700            BX               R0
 3689 000024D4 BF00    A_108   NOP



ARM Macro Assembler    Page 73 Lab 7 prelab


 3690 000024D6 2900            CMP              R1,#0
 3691 000024D8 D101            BNE              C_293
 3692 000024DA 48D9            LDR              R0,=End_UF
 3693 000024DC 4700            BX               R0
 3694 000024DE 1E49    C_293   SUBS             R1,R1,#1
 3695 000024E0 7808            LDRB             R0,[R1,#0]
 3696 000024E2 F7FF FFFE       BL               PutChar
 3697 000024E6 2900            CMP              R1,#0
 3698 000024E8 D101            BNE              C_294
 3699 000024EA 48D5            LDR              R0,=End_UF
 3700 000024EC 4700            BX               R0
 3701 000024EE 1E49    C_294   SUBS             R1,R1,#1
 3702 000024F0 7808            LDRB             R0,[R1,#0]
 3703 000024F2 F7FF FFFE       BL               PutChar
 3704 000024F6 1C49            ADDS             R1,R1,#1
 3705 000024F8 4291            CMP              R1,R2
 3706 000024FA D301            BLO              C_295
 3707 000024FC 48D2            LDR              R0,=End_OF
 3708 000024FE 4700            BX               R0
 3709 00002500 BF00    C_295   NOP
 3710 00002502 7808            LDRB             R0,[R1,#0]
 3711 00002504 F7FF FFFE       BL               PutChar
 3712 00002508 7808            LDRB             R0,[R1,#0]
 3713 0000250A F7FF FFFE       BL               PutChar
 3714 0000250E 2900            CMP              R1,#0
 3715 00002510 D101            BNE              C_296
 3716 00002512 48CB            LDR              R0,=End_UF
 3717 00002514 4700            BX               R0
 3718 00002516 1E49    C_296   SUBS             R1,R1,#1
 3719 00002518 7808            LDRB             R0,[R1,#0]
 3720 0000251A F7FF FFFE       BL               PutChar
 3721 0000251E 1C49            ADDS             R1,R1,#1
 3722 00002520 4291            CMP              R1,R2
 3723 00002522 D301            BLO              C_297
 3724 00002524 48C8            LDR              R0,=End_OF
 3725 00002526 4700            BX               R0
 3726 00002528 BF00    C_297   NOP
 3727 0000252A 7808            LDRB             R0,[R1,#0]
 3728 0000252C F7FF FFFE       BL               PutChar
 3729 00002530 1C49            ADDS             R1,R1,#1
 3730 00002532 4291            CMP              R1,R2
 3731 00002534 D301            BLO              C_298
 3732 00002536 48C4            LDR              R0,=End_OF
 3733 00002538 4700            BX               R0
 3734 0000253A BF00    C_298   NOP
 3735 0000253C 7808            LDRB             R0,[R1,#0]
 3736 0000253E 1E40            SUBS             R0,R0,#1
 3737 00002540 7008            STRB             R0,[R1,#0]
 3738 00002542 48D0            LDR              R0,=W_108
 3739 00002544 4700    B_108   BX               R0
 3740 00002546 BF00    E_108   NOP
 3741 00002548 1C49            ADDS             R1,R1,#1
 3742 0000254A 4291            CMP              R1,R2
 3743 0000254C D301            BLO              C_299
 3744 0000254E 48BE            LDR              R0,=End_OF
 3745 00002550 4700            BX               R0
 3746 00002552 BF00    C_299   NOP
 3747 00002554 48CD            LDR              R0,=W_7
 3748 00002556 4700    B_7     BX               R0



ARM Macro Assembler    Page 74 Lab 7 prelab


 3749 00002558 BF00    E_7     NOP
 3750 0000255A 2900            CMP              R1,#0
 3751 0000255C D101            BNE              C_300
 3752 0000255E 48B8            LDR              R0,=End_UF
 3753 00002560 4700            BX               R0
 3754 00002562 1E49    C_300   SUBS             R1,R1,#1
 3755 00002564 7808    W_109   LDRB             R0,[R1,#0]
 3756 00002566 2800            CMP              R0,#0
 3757 00002568 D000            BEQ              BE_109
 3758 0000256A E001            B                A_109
 3759 0000256C 48B8    BE_109  LDR              R0,=E_109
 3760 0000256E 4700            BX               R0
 3761 00002570 BF00    A_109   NOP
 3762 00002572 2900            CMP              R1,#0
 3763 00002574 D101            BNE              C_301
 3764 00002576 48B2            LDR              R0,=End_UF
 3765 00002578 4700            BX               R0
 3766 0000257A 1E89    C_301   SUBS             R1,R1,#2
 3767 0000257C 7808            LDRB             R0,[R1,#0]
 3768 0000257E F7FF FFFE       BL               PutChar
 3769 00002582 1C49            ADDS             R1,R1,#1
 3770 00002584 4291            CMP              R1,R2
 3771 00002586 D301            BLO              C_302
 3772 00002588 48AF            LDR              R0,=End_OF
 3773 0000258A 4700            BX               R0
 3774 0000258C BF00    C_302   NOP
 3775 0000258E 7808            LDRB             R0,[R1,#0]
 3776 00002590 F7FF FFFE       BL               PutChar
 3777 00002594 2900            CMP              R1,#0
 3778 00002596 D101            BNE              C_303
 3779 00002598 48A9            LDR              R0,=End_UF
 3780 0000259A 4700            BX               R0
 3781 0000259C 1E49    C_303   SUBS             R1,R1,#1
 3782 0000259E 7808            LDRB             R0,[R1,#0]
 3783 000025A0 F7FF FFFE       BL               PutChar
 3784 000025A4 1C49            ADDS             R1,R1,#1
 3785 000025A6 4291            CMP              R1,R2
 3786 000025A8 D301            BLO              C_304
 3787 000025AA 48A7            LDR              R0,=End_OF
 3788 000025AC 4700            BX               R0
 3789 000025AE BF00    C_304   NOP
 3790 000025B0 7808            LDRB             R0,[R1,#0]
 3791 000025B2 F7FF FFFE       BL               PutChar
 3792 000025B6 2900            CMP              R1,#0
 3793 000025B8 D101            BNE              C_305
 3794 000025BA 48A1            LDR              R0,=End_UF
 3795 000025BC 4700            BX               R0
 3796 000025BE 1E49    C_305   SUBS             R1,R1,#1
 3797 000025C0 7808            LDRB             R0,[R1,#0]
 3798 000025C2 F7FF FFFE       BL               PutChar
 3799 000025C6 7808            LDRB             R0,[R1,#0]
 3800 000025C8 F7FF FFFE       BL               PutChar
 3801 000025CC 1C89            ADDS             R1,R1,#2
 3802 000025CE 4291            CMP              R1,R2
 3803 000025D0 D301            BLO              C_306
 3804 000025D2 489D            LDR              R0,=End_OF
 3805 000025D4 4700            BX               R0
 3806 000025D6 BF00    C_306   NOP
 3807 000025D8 7808            LDRB             R0,[R1,#0]



ARM Macro Assembler    Page 75 Lab 7 prelab


 3808 000025DA 1E40            SUBS             R0,R0,#1
 3809 000025DC 7008            STRB             R0,[R1,#0]
 3810 000025DE 48B4            LDR              R0,=W_109
 3811 000025E0 4700    B_109   BX               R0
 3812 000025E2 BF00    E_109   NOP
 3813 000025E4 1C49            ADDS             R1,R1,#1
 3814 000025E6 4291            CMP              R1,R2
 3815 000025E8 D301            BLO              C_307
 3816 000025EA 4897            LDR              R0,=End_OF
 3817 000025EC 4700            BX               R0
 3818 000025EE BF00    C_307   NOP
 3819 000025F0 48B1            LDR              R0,=W_6
 3820 000025F2 4700    B_6     BX               R0
 3821 000025F4 BF00    E_6     NOP
 3822 000025F6 2900            CMP              R1,#0
 3823 000025F8 D101            BNE              C_308
 3824 000025FA 4891            LDR              R0,=End_UF
 3825 000025FC 4700            BX               R0
 3826 000025FE 1E49    C_308   SUBS             R1,R1,#1
 3827 00002600 7808    W_110   LDRB             R0,[R1,#0]
 3828 00002602 2800            CMP              R0,#0
 3829 00002604 D000            BEQ              BE_110
 3830 00002606 E001            B                A_110
 3831 00002608 4892    BE_110  LDR              R0,=E_110
 3832 0000260A 4700            BX               R0
 3833 0000260C BF00    A_110   NOP
 3834 0000260E 2900            CMP              R1,#0
 3835 00002610 D101            BNE              C_309
 3836 00002612 488B            LDR              R0,=End_UF
 3837 00002614 4700            BX               R0
 3838 00002616 1EC9    C_309   SUBS             R1,R1,#3
 3839 00002618 7808            LDRB             R0,[R1,#0]
 3840 0000261A F7FF FFFE       BL               PutChar
 3841 0000261E 7808            LDRB             R0,[R1,#0]
 3842 00002620 F7FF FFFE       BL               PutChar
 3843 00002624 7808            LDRB             R0,[R1,#0]
 3844 00002626 F7FF FFFE       BL               PutChar
 3845 0000262A 7808            LDRB             R0,[R1,#0]
 3846 0000262C F7FF FFFE       BL               PutChar
 3847 00002630 7808            LDRB             R0,[R1,#0]
 3848 00002632 F7FF FFFE       BL               PutChar
 3849 00002636 1CC9            ADDS             R1,R1,#3
 3850 00002638 4291            CMP              R1,R2
 3851 0000263A D301            BLO              C_310
 3852 0000263C 4882            LDR              R0,=End_OF
 3853 0000263E 4700            BX               R0
 3854 00002640 BF00    C_310   NOP
 3855 00002642 7808            LDRB             R0,[R1,#0]
 3856 00002644 1E40            SUBS             R0,R0,#1
 3857 00002646 7008            STRB             R0,[R1,#0]
 3858 00002648 48A0            LDR              R0,=W_110
 3859 0000264A 4700    B_110   BX               R0
 3860 0000264C BF00    E_110   NOP
 3861 0000264E 1C49            ADDS             R1,R1,#1
 3862 00002650 4291            CMP              R1,R2
 3863 00002652 D301            BLO              C_311
 3864 00002654 487C            LDR              R0,=End_OF
 3865 00002656 4700            BX               R0
 3866 00002658 BF00    C_311   NOP



ARM Macro Assembler    Page 76 Lab 7 prelab


 3867 0000265A 489E            LDR              R0,=W_5
 3868 0000265C 4700    B_5     BX               R0
 3869 0000265E BF00    E_5     NOP
 3870 00002660 2900            CMP              R1,#0
 3871 00002662 D101            BNE              C_312
 3872 00002664 4876            LDR              R0,=End_UF
 3873 00002666 4700            BX               R0
 3874 00002668 1E49    C_312   SUBS             R1,R1,#1
 3875 0000266A 7808    W_111   LDRB             R0,[R1,#0]
 3876 0000266C 2800            CMP              R0,#0
 3877 0000266E D000            BEQ              BE_111
 3878 00002670 E001            B                A_111
 3879 00002672 487A    BE_111  LDR              R0,=E_111
 3880 00002674 4700            BX               R0
 3881 00002676 BF00    A_111   NOP
 3882 00002678 2900            CMP              R1,#0
 3883 0000267A D101            BNE              C_313
 3884 0000267C 4870            LDR              R0,=End_UF
 3885 0000267E 4700            BX               R0
 3886 00002680 1E89    C_313   SUBS             R1,R1,#2
 3887 00002682 7808            LDRB             R0,[R1,#0]
 3888 00002684 F7FF FFFE       BL               PutChar
 3889 00002688 1C49            ADDS             R1,R1,#1
 3890 0000268A 4291            CMP              R1,R2
 3891 0000268C D301            BLO              C_314
 3892 0000268E 486E            LDR              R0,=End_OF
 3893 00002690 4700            BX               R0
 3894 00002692 BF00    C_314   NOP
 3895 00002694 7808            LDRB             R0,[R1,#0]
 3896 00002696 F7FF FFFE       BL               PutChar
 3897 0000269A 7808            LDRB             R0,[R1,#0]
 3898 0000269C F7FF FFFE       BL               PutChar
 3899 000026A0 7808            LDRB             R0,[R1,#0]
 3900 000026A2 F7FF FFFE       BL               PutChar
 3901 000026A6 2900            CMP              R1,#0
 3902 000026A8 D101            BNE              C_315
 3903 000026AA 4865            LDR              R0,=End_UF
 3904 000026AC 4700            BX               R0
 3905 000026AE 1E49    C_315   SUBS             R1,R1,#1
 3906 000026B0 7808            LDRB             R0,[R1,#0]
 3907 000026B2 F7FF FFFE       BL               PutChar
 3908 000026B6 1C89            ADDS             R1,R1,#2
 3909 000026B8 4291            CMP              R1,R2
 3910 000026BA D301            BLO              C_316
 3911 000026BC 4862            LDR              R0,=End_OF
 3912 000026BE 4700            BX               R0
 3913 000026C0 BF00    C_316   NOP
 3914 000026C2 7808            LDRB             R0,[R1,#0]
 3915 000026C4 1E40            SUBS             R0,R0,#1
 3916 000026C6 7008            STRB             R0,[R1,#0]
 3917 000026C8 4889            LDR              R0,=W_111
 3918 000026CA 4700    B_111   BX               R0
 3919 000026CC BF00    E_111   NOP
 3920 000026CE 1C49            ADDS             R1,R1,#1
 3921 000026D0 4291            CMP              R1,R2
 3922 000026D2 D301            BLO              C_317
 3923 000026D4 485C            LDR              R0,=End_OF
 3924 000026D6 4700            BX               R0
 3925 000026D8 BF00    C_317   NOP



ARM Macro Assembler    Page 77 Lab 7 prelab


 3926 000026DA 4887            LDR              R0,=W_4
 3927 000026DC 4700    B_4     BX               R0
 3928 000026DE BF00    E_4     NOP
 3929 000026E0 2900            CMP              R1,#0
 3930 000026E2 D101            BNE              C_318
 3931 000026E4 4856            LDR              R0,=End_UF
 3932 000026E6 4700            BX               R0
 3933 000026E8 1F09    C_318   SUBS             R1,R1,#4
 3934 000026EA 7808            LDRB             R0,[R1,#0]
 3935 000026EC F7FF FFFE       BL               PutChar
 3936 000026F0 1D09            ADDS             R1,R1,#4
 3937 000026F2 4291            CMP              R1,R2
 3938 000026F4 D301            BLO              C_319
 3939 000026F6 4854            LDR              R0,=End_OF
 3940 000026F8 4700            BX               R0
 3941 000026FA BF00    C_319   NOP
 3942 000026FC 4859            LDR              R0,=input_mes
 3943 000026FE F7FF FFFE       BL               PutStringSB
 3944 00002702 F7FF FFFE       BL               GetChar
 3945 00002706 F7FF FFFE       BL               PutChar
 3946 0000270A 7008            STRB             R0,[R1,#0]
 3947 0000270C 4856            LDR              R0,=CRLF
 3948 0000270E F7FF FFFE       BL               PutStringSB
 3949 00002712 487E            LDR              R0,=W_3
 3950 00002714 4700    B_3     BX               R0
 3951 00002716 BF00    E_3     NOP
 3952 00002718 2900            CMP              R1,#0
 3953 0000271A D101            BNE              C_320
 3954 0000271C 4848            LDR              R0,=End_UF
 3955 0000271E 4700            BX               R0
 3956 00002720 1E89    C_320   SUBS             R1,R1,#2
 3957 00002722 7808            LDRB             R0,[R1,#0]
 3958 00002724 F7FF FFFE       BL               PutChar
 3959 00002728 2900            CMP              R1,#0
 3960 0000272A D101            BNE              C_321
 3961 0000272C 4844            LDR              R0,=End_UF
 3962 0000272E 4700            BX               R0
 3963 00002730 1E49    C_321   SUBS             R1,R1,#1
 3964 00002732 7808            LDRB             R0,[R1,#0]
 3965 00002734 F7FF FFFE       BL               PutChar
 3966 00002738 1C49            ADDS             R1,R1,#1
 3967 0000273A 4291            CMP              R1,R2
 3968 0000273C D301            BLO              C_322
 3969 0000273E 4842            LDR              R0,=End_OF
 3970 00002740 4700            BX               R0
 3971 00002742 BF00    C_322   NOP
 3972 00002744 7808            LDRB             R0,[R1,#0]
 3973 00002746 F7FF FFFE       BL               PutChar
 3974 0000274A 2900            CMP              R1,#0
 3975 0000274C D101            BNE              C_323
 3976 0000274E 483C            LDR              R0,=End_UF
 3977 00002750 4700            BX               R0
 3978 00002752 1E49    C_323   SUBS             R1,R1,#1
 3979 00002754 7808            LDRB             R0,[R1,#0]
 3980 00002756 F7FF FFFE       BL               PutChar
 3981 0000275A 1C49            ADDS             R1,R1,#1
 3982 0000275C 4291            CMP              R1,R2
 3983 0000275E D301            BLO              C_324
 3984 00002760 4839            LDR              R0,=End_OF



ARM Macro Assembler    Page 78 Lab 7 prelab


 3985 00002762 4700            BX               R0
 3986 00002764 BF00    C_324   NOP
 3987 00002766 7808            LDRB             R0,[R1,#0]
 3988 00002768 F7FF FFFE       BL               PutChar
 3989 0000276C         
 3990 0000276C         
 3991 0000276C         ;Program ends here.
 3992 0000276C 483F    End_OF  LDR              R0,=OF_message
 3993 0000276E F7FF FFFE       BL               PutStringSB
 3994 00002772 E003            B                End_BF
 3995 00002774         
 3996 00002774 483E    End_UF  LDR              R0,=UF_message
 3997 00002776 F7FF FFFE       BL               PutStringSB
 3998 0000277A E7FF            B                End_BF
 3999 0000277C         
 4000 0000277C         ;>>>>>   end main program code <<<<<
 4001 0000277C         ;Stay here
 4002 0000277C E7FE    End_BF  B                .
 4003 0000277E                 ENDP
 4004 0000277E         ;>>>>> begin subroutine code <<<<<
 4005 0000277E         Clear_Mem
                               PROC             {R0-R14},{}
 4006 0000277E         ;takes i the pointer to memory in R1, and the size in R0
                       , clears dat shit.
 4007 0000277E B40F            PUSH             {R0-R3}
 4008 00002780         
 4009 00002780 2300            MOVS             R3,#0
 4010 00002782 2200            MOVS             R2,#0
 4011 00002784         
 4012 00002784 548B    cm_Loop STRB             R3,[R1,R2]
 4013 00002786 1C52            ADDS             R2,R2,#1
 4014 00002788 4282            CMP              R2,R0
 4015 0000278A D200            BHS              End_cm
 4016 0000278C E7FA            B                cm_Loop
 4017 0000278E         
 4018 0000278E BC0F    End_cm  POP              {R0-R3}
 4019 00002790 4770            BX               LR
 4020 00002792                 ENDP
 4021 00002792         
 4022 00002792         ;-------------------------------------------------------
                       ------------------------------
 4023 00002792         
 4024 00002792         Init_UART0_Polling
                               PROC             {R0-R14}, {}
 4025 00002792         ;This subroutine initializes UART0 for polling, 
 4026 00002792         ;at 9600 baud, 8 bits of parity and 1 stop bit.
 4027 00002792 B407            PUSH             {R0-R2}
 4028 00002794         
 4029 00002794         ;Select MCGPLLCLK / 2 as UART0 clock source     
 4030 00002794 4865            LDR              R0,=SIM_SOPT2
 4031 00002796 4966            LDR              R1,=SIM_SOPT2_UART0SRC_MASK
 4032 00002798 6802            LDR              R2,[R0,#0]
 4033 0000279A 438A            BICS             R2,R2,R1
 4034 0000279C 4965            LDR              R1,=SIM_SOPT2_UART0_MCGPLLCLK_D
IV2
 4035 0000279E 430A            ORRS             R2,R2,R1
 4036 000027A0 6002            STR              R2,[R0,#0]
 4037 000027A2         
 4038 000027A2         ;Enable external connection for UART0     



ARM Macro Assembler    Page 79 Lab 7 prelab


 4039 000027A2 4865            LDR              R0,=SIM_SOPT5
 4040 000027A4 4965            LDR              R1,=SIM_SOPT5_UART0_EXTERN_MASK
_CLEAR
 4041 000027A6 6802            LDR              R2,[R0,#0]
 4042 000027A8 438A            BICS             R2,R2,R1
 4043 000027AA 6002            STR              R2,[R0,#0]
 4044 000027AC         
 4045 000027AC         ;Enable clock for UART0 module     
 4046 000027AC 4864            LDR              R0,=SIM_SCGC4
 4047 000027AE 4965            LDR              R1,=SIM_SCGC4_UART0_MASK
 4048 000027B0 6802            LDR              R2,[R0,#0]
 4049 000027B2 430A            ORRS             R2,R2,R1
 4050 000027B4 6002            STR              R2,[R0,#0]
 4051 000027B6         
 4052 000027B6         ;Enable clock for Port A module     
 4053 000027B6 4864            LDR              R0,=SIM_SCGC5
 4054 000027B8 4964            LDR              R1,=SIM_SCGC5_PORTA_MASK
 4055 000027BA 6802            LDR              R2,[R0,#0]
 4056 000027BC 430A            ORRS             R2,R2,R1
 4057 000027BE 6002            STR              R2,[R0,#0]
 4058 000027C0         
 4059 000027C0         ;Connect PORT A Pin 1 (PTA1) to UART0 Rx (J1 Pin 02)    
                        
 4060 000027C0 4863            LDR              R0,=PORTA_PCR1
 4061 000027C2 4964            LDR              R1,=PORT_PCR_SET_PTA1_UART0_RX
 4062 000027C4 6001            STR              R1,[R0,#0]
 4063 000027C6         
 4064 000027C6         ;Connect PORT A Pin 2 (PTA2) to UART0 Tx (J1 Pin 04)    
                        
 4065 000027C6 4864            LDR              R0,=PORTA_PCR2
 4066 000027C8 4962            LDR              R1,=PORT_PCR_SET_PTA2_UART0_TX
 4067 000027CA 6001            STR              R1,[R0,#0]
 4068 000027CC         
 4069 000027CC         ;Disable UART0 receiver and transmitter     
 4070 000027CC 4863            LDR              R0,=UART0_BASE
 4071 000027CE 210C            MOVS             R1,#UART0_C2_T_R
 4072 000027D0 78C2            LDRB             R2,[R0,#UART0_C2_OFFSET]
 4073 000027D2 438A            BICS             R2,R2,R1    ;Bit clear for disa
                                                            bling   
 4074 000027D4 70C2            STRB             R2,[R0,#UART0_C2_OFFSET]
 4075 000027D6         
 4076 000027D6         ;Set UART0 for 9600 baud, 8N1 protocol     
 4077 000027D6 2101            MOVS             R1,#UART0_BDH_9600 ;constant fo
                                                            r setting BDH to 96
                                                            00
 4078 000027D8 7001            STRB             R1,[R0,#UART0_BDH_OFFSET]
 4079 000027DA 2138            MOVS             R1,#UART0_BDL_9600 ;constant fo
                                                            r setting BDL to 96
                                                            00
 4080 000027DC 7041            STRB             R1,[R0,#UART0_BDL_OFFSET]
 4081 000027DE 2100            MOVS             R1,#UART0_C1_8N1
 4082 000027E0 7081            STRB             R1,[R0,#UART0_C1_OFFSET]
 4083 000027E2 2100            MOVS             R1,#UART0_C3_NO_TXINV
 4084 000027E4 7181            STRB             R1,[R0,#UART0_C3_OFFSET]
 4085 000027E6 210F            MOVS             R1,#UART0_C4_NO_MATCH_OSR_16
 4086 000027E8 7281            STRB             R1,[R0,#UART0_C4_OFFSET]
 4087 000027EA 2100            MOVS             R1,#UART0_C5_NO_DMA_SSR_SYNC
 4088 000027EC 72C1            STRB             R1,[R0,#UART0_C5_OFFSET]
 4089 000027EE 211F            MOVS             R1,#UART0_S1_CLEAR_FLAGS



ARM Macro Assembler    Page 80 Lab 7 prelab


 4090 000027F0 7101            STRB             R1,[R0,#UART0_S1_OFFSET]
 4091 000027F2 21C0            MOVS             R1, #UART0_S2_NO_RXINV_BRK10_NO
_LBKDETECT_CLEAR_FLAGS
 4092 000027F4 7141            STRB             R1,[R0,#UART0_S2_OFFSET]
 4093 000027F6         
 4094 000027F6         ;Enable UART0 receiver and transmitter     
 4095 000027F6 210C            MOVS             R1,#UART0_C2_T_R
 4096 000027F8 70C1            STRB             R1,[R0,#UART0_C2_OFFSET]
 4097 000027FA         
 4098 000027FA BC07            POP              {R0-R2}
 4099 000027FC 4770            BX               LR
 4100 000027FE                 ENDP
 4101 000027FE         
 4102 000027FE         ;-------------------------------------------------------
                       ----- 
 4103 000027FE         
 4104 000027FE         PutChar PROC             {R0-R14}, {}
 4105 000027FE         ;Transmits a single character from the terminal keyboard
                        from R0
 4106 000027FE B40E            PUSH             {R1-R3}
 4107 00002800         
 4108 00002800         ;Poll TDRE until UART0 ready to transmit          
 4109 00002800 4956            LDR              R1,=UART0_BASE
 4110 00002802 2280            MOVS             R2,#UART0_S1_TDRE_MASK
 4111 00002804 790B    PollTx  LDRB             R3,[R1,#UART0_S1_OFFSET]
 4112 00002806 4013            ANDS             R3,R3,R2
 4113 00002808 D0FC            BEQ              PollTx
 4114 0000280A         
 4115 0000280A         ;Transmit character stored in R0         
 4116 0000280A 71C8            STRB             R0,[R1,#UART0_D_OFFSET]
 4117 0000280C         
 4118 0000280C BC0E            POP              {R1-R3}
 4119 0000280E 4770            BX               LR
 4120 00002810                 ENDP
 4121 00002810         
 4122 00002810         ;-------------------------------------------------------
                       -----
 4123 00002810         
 4124 00002810         GetChar PROC             {R1-R13}, {}
 4125 00002810         ;Reads a single character from the terminal keyboard int
                       o R0
 4126 00002810 B40E            PUSH             {R1-R3}
 4127 00002812         
 4128 00002812         ;Poll RDRF until UART0 ready to receive          
 4129 00002812 4952            LDR              R1,=UART0_BASE
 4130 00002814 2220            MOVS             R2,#UART0_S1_RDRF_MASK
 4131 00002816         
 4132 00002816 790B    PollRx  LDRB             R3,[R1,#UART0_S1_OFFSET]
 4133 00002818 4013            ANDS             R3,R3,R2
 4134 0000281A D0FC            BEQ              PollRx
 4135 0000281C         
 4136 0000281C         ;Receive character and store in R0         
 4137 0000281C 79C8            LDRB             R0,[R1,#UART0_D_OFFSET]
 4138 0000281E         
 4139 0000281E BC0E            POP              {R1-R3}
 4140 00002820 4770            BX               LR
 4141 00002822                 ENDP
 4142 00002822         
 4143 00002822         ;-------------------------------------------------------



ARM Macro Assembler    Page 81 Lab 7 prelab


                       -----
 4144 00002822         
 4145 00002822         PutStringSB
                               PROC             {R0-R13}, {}
 4146 00002822         ;Print a null terminated string at R0 pointer, preventin
                       g buffer overrun
 4147 00002822 B50F            PUSH             {R0-R3,LR}
 4148 00002824 0002            MOVS             R2,R0       ;move address into 
                                                            R2
 4149 00002826 2300            MOVS             R3,#0       ;counter is 0 at R3
                                                            
 4150 00002828 1E49            SUBS             R1,R1,#1    ;buffer = buffer - 
                                                            1
 4151 0000282A         
 4152 0000282A 5CD0    PutLoop LDRB             R0,[R2,R3]  ;load R0 with value
                                                             at R2 with R3 offs
                                                            et
 4153 0000282C 2800            CMP              R0,#0       ;If R0 is 0
 4154 0000282E D005            BEQ              EndPutS     ;break out
 4155 00002830         
 4156 00002830 F7FF FFFE       BL               PutChar     ;print character
 4157 00002834         
 4158 00002834 1C5B            ADDS             R3,R3,#1    ;increment counter
 4159 00002836 428B            CMP              R3,R1       ;if counter = buffe
                                                            r - 1
 4160 00002838 D000            BEQ              EndPutS     ;break out
 4161 0000283A         
 4162 0000283A E7F6            B                PutLoop     ;loop
 4163 0000283C         
 4164 0000283C BD0F    EndPutS POP              {R0-R3,PC}
 4165 0000283E         ; no bx lr since Popping PC does it for us
 4166 0000283E                 ENDP
 4167 0000283E         ;>>>>>   end subroutine code <<<<<
 4168 0000283E 00 00           ALIGN
 4169 00002840         ;*******************************************************
                       *********
 4170 00002840         ;Vector Table Mapped to Address 0 at Reset
 4171 00002840         ;Linker requires __Vectors to be exported
 4172 00002840 00000000 
              00000000 
              00000000 
              00000000 
              00000000 
              00000000 
              00000000 
              00000000 
              00000000 
              00000000 
              00000000 
              00000000 
              00000000 
              00000000 
              00000000 
              00000000 
              00000000 
              00000000 
              00000000 
              00000000 
              00000000 



ARM Macro Assembler    Page 82 Lab 7 prelab


              00000000 
              00000000 
              00000000 
              00000000 
              00000000 
              00000000 
              00000000 
              00000000 
              00000000 
              00000000 
              00000000 
              00000000 
              00000000 
              00000000 
              00000000 
              00000000 
              00000000 
              00000000 
              00000000 
              00000000 
              00000000 
              00000000 
              00000000 
              00000000 
              00000000 
              00000000 
              00000000 
              00000000 
              00000000 
              00000000 
              00000000 
              00000000 
              00000000 
              00000000 
              00000000 
              00000000 
              00000000 
              00000000 
              40048004 
              0C000000 
              04010000 
              40048010 
              00010007 
              40048034 
              00000400 
              40048038 
              00000200 
              40049004 
              01000200 
              40049008 
              4006A000         AREA             RESET, DATA, READONLY
 4173 00000000                 EXPORT           __Vectors
 4174 00000000                 EXPORT           __Vectors_End
 4175 00000000                 EXPORT           __Vectors_Size
 4176 00000000                 IMPORT           __initial_sp
 4177 00000000                 IMPORT           Dummy_Handler
 4178 00000000                 IMPORT           HardFault_Handler
 4179 00000000         __Vectors
 4180 00000000         ;ARM core vectors



ARM Macro Assembler    Page 83 Lab 7 prelab


 4181 00000000 00000000        DCD              __initial_sp ;00:end of stack
 4182 00000004 00000000        DCD              Reset_Handler ;01:reset vector
 4183 00000008 00000000        DCD              Dummy_Handler ;02:NMI
 4184 0000000C 00000000        DCD              HardFault_Handler 
                                                            ;03:hard fault
 4185 00000010 00000000        DCD              Dummy_Handler ;04:(reserved)
 4186 00000014 00000000        DCD              Dummy_Handler ;05:(reserved)
 4187 00000018 00000000        DCD              Dummy_Handler ;06:(reserved)
 4188 0000001C 00000000        DCD              Dummy_Handler ;07:(reserved)
 4189 00000020 00000000        DCD              Dummy_Handler ;08:(reserved)
 4190 00000024 00000000        DCD              Dummy_Handler ;09:(reserved)
 4191 00000028 00000000        DCD              Dummy_Handler ;10:(reserved)
 4192 0000002C 00000000        DCD              Dummy_Handler ;11:SVCall (super
                                                            visor call)
 4193 00000030 00000000        DCD              Dummy_Handler ;12:(reserved)
 4194 00000034 00000000        DCD              Dummy_Handler ;13:(reserved)
 4195 00000038 00000000        DCD              Dummy_Handler ;14:PendableSrvRe
                                                            q (pendable request
                                                             
 4196 0000003C         ;   for system service)
 4197 0000003C 00000000        DCD              Dummy_Handler ;15:SysTick (syst
                                                            em tick timer)
 4198 00000040 00000000        DCD              Dummy_Handler ;16:DMA channel 0
                                                             xfer complete/erro
                                                            r
 4199 00000044 00000000        DCD              Dummy_Handler ;17:DMA channel 1
                                                             xfer complete/erro
                                                            r
 4200 00000048 00000000        DCD              Dummy_Handler ;18:DMA channel 2
                                                             xfer complete/erro
                                                            r
 4201 0000004C 00000000        DCD              Dummy_Handler ;19:DMA channel 3
                                                             xfer complete/erro
                                                            r
 4202 00000050 00000000        DCD              Dummy_Handler ;20:(reserved)
 4203 00000054 00000000        DCD              Dummy_Handler ;21:command compl
                                                            ete; read collision
                                                            
 4204 00000058 00000000        DCD              Dummy_Handler ;22:low-voltage d
                                                            etect;
 4205 0000005C         ;   low-voltage warning
 4206 0000005C 00000000        DCD              Dummy_Handler ;23:low leakage w
                                                            akeup
 4207 00000060 00000000        DCD              Dummy_Handler ;24:I2C0
 4208 00000064 00000000        DCD              Dummy_Handler ;25:I2C1
 4209 00000068 00000000        DCD              Dummy_Handler ;26:SPI0 (all IRQ
                                                             sources)
 4210 0000006C 00000000        DCD              Dummy_Handler ;27:SPI1 (all IRQ
                                                             sources)
 4211 00000070 00000000        DCD              Dummy_Handler ;28:UART0 (status
                                                            ; error)
 4212 00000074 00000000        DCD              Dummy_Handler ;29:UART1 (status
                                                            ; error)
 4213 00000078 00000000        DCD              Dummy_Handler ;30:UART2 (status
                                                            ; error)
 4214 0000007C 00000000        DCD              Dummy_Handler ;31:ADC0
 4215 00000080 00000000        DCD              Dummy_Handler ;32:CMP0
 4216 00000084 00000000        DCD              Dummy_Handler ;33:TPM0
 4217 00000088 00000000        DCD              Dummy_Handler ;34:TPM1



ARM Macro Assembler    Page 84 Lab 7 prelab


 4218 0000008C 00000000        DCD              Dummy_Handler ;35:TPM2
 4219 00000090 00000000        DCD              Dummy_Handler ;36:RTC (alarm)
 4220 00000094 00000000        DCD              Dummy_Handler ;37:RTC (seconds)
                                                            
 4221 00000098 00000000        DCD              Dummy_Handler ;38:PIT (all IRQ 
                                                            sources)
 4222 0000009C 00000000        DCD              Dummy_Handler ;39:I2S0
 4223 000000A0 00000000        DCD              Dummy_Handler ;40:USB0
 4224 000000A4 00000000        DCD              Dummy_Handler ;41:DAC0
 4225 000000A8 00000000        DCD              Dummy_Handler ;42:TSI0
 4226 000000AC 00000000        DCD              Dummy_Handler ;43:MCG
 4227 000000B0 00000000        DCD              Dummy_Handler ;44:LPTMR0
 4228 000000B4 00000000        DCD              Dummy_Handler ;45:Segment LCD
 4229 000000B8 00000000        DCD              Dummy_Handler ;46:PORTA pin det
                                                            ect
 4230 000000BC 00000000        DCD              Dummy_Handler ;47:PORTC and POR
                                                            TD pin detect
 4231 000000C0         __Vectors_End
 4232 000000C0 000000C0 
                       __Vectors_Size
                               EQU              __Vectors_End - __Vectors
 4233 000000C0                 ALIGN
 4234 000000C0         ;*******************************************************
                       *********
 4235 000000C0         ;Constants
 4236 000000C0                 AREA             MyConst,DATA,READONLY
 4237 00000000         ;>>>>> begin constants here <<<<<
 4238 00000000 0D 0A 49 
              6E 70 75 
              74 3A 20 
              00       input_mes
                               DCB              CR,LF,"Input: ",Null
 4239 0000000A 0D 0A 00 
                       CRLF    DCB              CR,LF,Null
 4240 0000000D 0D 0A 4D 
              65 6D 6F 
              72 79 20 
              4F 76 65 
              72 66 6C 
              6F 77 00 OF_message
                               DCB              CR,LF,"Memory Overflow",Null
 4241 0000001F 0D 0A 4D 
              65 6D 6F 
              72 79 20 
              55 6E 64 
              65 72 66 
              6C 6F 77 
              00       UF_message
                               DCB              CR,LF,"Memory Underflow",Null
 4242 00000032         ;>>>>>   end constants here <<<<<
 4243 00000032 00 00           ALIGN
 4244 00000034         ;*******************************************************
                       *********
 4245 00000034         ;Variables
 4246 00000034                 AREA             MyData,DATA,READWRITE
 4247 00000000         ;>>>>> begin variables here <<<<<
 4248 00000000 00 00 00 
              00 00 00 
              00 00 00 



ARM Macro Assembler    Page 85 Lab 7 prelab


              00 00 00 
              00 00 00 
              00 00 00 
              00 00 00 
              00 00 00 
              00 00 00 
              00 00 00 
              00 00 00 
              00 00 00 
              00 00 00 
              00 00 00 
              00 00 00 
              00 00 00 
              00 00 00 
              00 00 00 
              00 00 00 
              00 00 00 
              00 00 00 
              00 00 00 
              00 00 00 
              00 00 00 
              00 00 00 
              00 00 00 
              00 00 00 
              00 00 00 
              00 00 00 
              00 00 00 
              00 00 00 
              00 00 00 
              00 00 00 
              00 00 00 
              00 00 00 
              00 00 00 
              00 00 00 
              00 00 00 
              00 00 00 
              00 00 00 
              00 00 00 
              00 00 00 
              00 00 00 
              00 00 00 
              00 00 00 
              00 00 00 
              00 00 00 
              00 00 00 
              00 00 00 
              00 00 00 
              00 00 00 
              00 00 00 
              00 00 00 
              00 00 00 
              00 00 00 
              00 00 00 
              00 00 00 
              00 00 00 
              00 00 00 
              00 00 00 
              00 00 00 
              00 00 00 



ARM Macro Assembler    Page 86 Lab 7 prelab


              00 00 00 
              00 00 00 
              00 00 00 
              00 00 00 
              00 00 00 
              00 00 00 
              00 00 00 
              00 00 00 
              00 00 00 
              00 00 00 
              00 00 00 
              00 00 00 
              00 00 00 
              00 00 00 
              00 00 00 
              00 00 00 
              00 00 00 
              00 00 00 
              00 00 00 
              00 00 00 
              00 00 00 
              00 00 00 
              00 00 00 
              00 00 00 
              00 00 00 
              00 00 00 
              00 00 00 
              00 00 00 
              00 00 00 
              00 00 00 
              00 00 00 
              00 00 00 
              00 00 00 
              00 00 00 
              00 00 00 
              00 00 00 
              00 00 00 
              00 00 00 
              00 00 00 
              00 00 00 
              00 00 00 
              00 00 00 
              00 00 00 
              00 00 00 
              00 00 00 
              00 00 00 
              00 00 00 
              00 00 00 
              00 00 00 
              00 00 00 
              00 00 00 
              00 00 00 
              00 00 00 
              00 00 00 
              00 00 00 
              00 00 00 
              00 00 00 
              00 00 00 
              00 00 00 



ARM Macro Assembler    Page 87 Lab 7 prelab


              00 00 00 
              00 00 00 
              00 00 00 
              00 00 00 
              00 00 00 
              00 00 00 
              00 00 00 
              00 00 00 
              00 00 00 
              00 00 00 
              00 00 00 
              00 00 00 
              00 00 00 
              00 00 00 
              00 00 00 
              00 00 00 
              00 00 00 
              00 00 00 
              00 00 00 
              00 00 00 
              00 00 00 
              00 00 00 
              00 00 00 
              00 00 00 
              00 00 00 
              00 00 00 
              00 00 00 
              00 00 00 
              00 00 00 
              00 00 00 
              00 00 00 
              00 00 00 
              00 00 00 
              00 00 00 
              00 00 00 
              00 00 00 
              00 00 00 
              00 00 00 
              00 00 00 
              00 00 00 
              00 00 00 
              00 00 00 
              00 00 00 
              00 00 00 
              00 00 00 
              00 00 00 
              00 00 00 
              00 00 00 
              00 00 00 
              00 00 00 
              00 00 00 
              00 00 00 
              00 00 00 
              00 00 00 
              00 00 00 
              00 00 00 
              00 00 00 
              00 00 00 
              00 00 00 



ARM Macro Assembler    Page 88 Lab 7 prelab


              00 00 00 
              00 00 00 
              00 00 00 
              00 00 00 
              00 00 00 
              00 00 00 
              00 00 00 
              00 00 00 
              00 00 00 
              00 00 00 
              00 00 00 
              00 00 00 
              00 00 00 
              00 00 00 
              00 00 00 
              00 00 00 
              00 00 00 
              00 00 00 
              00 00 00 
              00 00 00 
              00 00 00 
              00 00 00 
              00 00 00 
              00 00 00 
              00 00 00 
              00 00 00 
              00 00 00 
              00 00 00 
              00 00 00 
              00 00 00 
              00 00 00 
              00 00 00 
              00 00 00 
              00 00 00 
              00 00 00 
              00 00 00 
              00 00 00 
              00 00 00 
              00 00 00 
              00 00 00 
              00 00 00 
              00 00 00 
              00 00 00 
              00 00 00 
              00 00 00 
              00 00 00 
              00 00 00 
              00 00 00 
              00 00 00 
              00 00 00 
              00 00 00 
              00 00 00 
              00 00 00 
              00 00 00 
              00 00 00 
              00 00 00 
              00 00 00 
              00 00 00 
              00 00 00 



ARM Macro Assembler    Page 89 Lab 7 prelab


              00 00 00 
              00 00 00 
              00 00 00 
              00 00 00 
              00 00 00 
              00 00 00 
              00 00 00 
              00 00 00 
              00 00 00 
              00 00 00 
              00 00 00 
              00 00 00 
              00 00 00 
              00 00 00 
              00 00 00 
              00 00 00 
              00 00 00 
              00 00 00 
              00 00 00 
              00 00 00 
              00 00 00 
              00 00 00 
              00 00 00 
              00 00 00 
              00 00 00 
              00 00 00 
              00 00 00 
              00 00 00 
              00 00 00 
              00 00 00 
              00 00 00 
              00 00 00 
              00 00 00 
              00 00 00 
              00 00 00 
              00 00 00 
              00 00 00 
              00 00 00 
              00 00 00 
              00 00 00 
              00 00 00 
              00 00 00 
              00 00 00 
              00 00 00 
              00 00 00 
              00 00 00 
              00 00 00 
              00 00 00 
              00 00 00 
              00 00 00 
              00 00 00 
              00 00 00 
              00 00 00 
              00 00 00 
              00 00 00 
              00 00 00 
              00 00 00 
              00 00 00 
              00 00 00 



ARM Macro Assembler    Page 90 Lab 7 prelab


              00 00 00 
              00 00 00 
              00 00 00 
              00 00 00 
              00 00 00 
              00 00 00 
              00 00 00 
              00 00 00 
              00 00 00 
              00 00 00 
              00 00 00 
              00 00 00 
              00 00 00 
              00 00 00 
              00 00 00 
              00 00 00 
              00 00 00 
              00 00 00 
              00 00 00 
              00 00 00 
              00 00 00 
              00 00 00 
              00 00 00 
              00 00 00 
              00 00 00 
              00 00 00 
              00 00 00 
              00 00 00 
              00 00 00 
              00 00 00 
              00 00 00 
              00 00 00 
              00 00 00 
              00 00 00 
              00 00 00 
              00 00 00 
              00 00 00 
              00 00 00 
              00 00 00 
              00 00 00 
              00 00 00 
              00 00 00 
              00 00 00 
              00 00 00 
              00 00 00 
              00 00 00 
              00 00 00 
              00 00 00 
              00 00 00 
              00 00 00 
              00 00 00 
              00 00 00 
              00 00 00 
              00 00 00 
              00 00 00 
              00 00 00 
              00 00 00 
              00 00 00 
              00 00 00 



ARM Macro Assembler    Page 91 Lab 7 prelab


              00 00 00 
              00 00 00 
              00 00 00 
              00 00 00 
              00 00 00 
              00 00 00 
              00 00 00 
              00 00 00 
              00 00 00 
              00 00 00 
              00 00 00 
              00 00 00 
              00 00 00 
              00 00 00 
              00 00 00 
              00 00 00 
              00 00 00 
              00 00 00 
              00 00 00 
              00 00 00 
              00 00 00 
              00 00 00 
              00 00 00 
              00 00 00 
              00 00 00 
              00 00 00 
              00 00 00 
              00 00 00 
              00 00 00 
              00 00 00 
              00 00 00 
              00 00 00 
              00 00 00 
              00 00 00 
              00 00 00 
              00 00 00 
              00 00 00 
              00 00 00 
              00 00 00 
              00 00 00 
              00 00 00 
              00 00 00 
              00 00 00 
              00 00 00 
              00 00 00 
              00 00 00 
              00 00 00 
              00 00 00 
              00 00 00 
              00 00 00 
              00 00 00 
              00 00 00 
              00 00 00 
              00 00 00 
              00 00 00 
              00 00 00 
              00 00 00 
              00 00 00 
              00 00 00 



ARM Macro Assembler    Page 92 Lab 7 prelab


              00 00 00 
              00 00 00 
              00 00 00 
              00 00 00 
              00 00 00 
              00 00 00 
              00 00 00 
              00 00 00 
              00 00 00 
              00 00 00 
              00 00 00 
              00 00 00 
              00 00 00 
              00 00 00 
              00 00 00 
              00 00 00 
              00 00 00 
              00 00 00 
              00 00 00 
              00 00 00 
              00 00 00 
              00 00 00 
              00 00 00 
              00 00 00 
              00 00 00 
              00 00 00 
              00 00 00 
              00 00 00 
              00 00 00 
              00 00 00 
              00 00 00 
              00 00 00 
              00 00 00 
              00 00 00 
              00 00 00 
              00 00 00 
              00 00 00 
              00 00 00 
              00 00 00 
              00 00 00 
              00 00 00 
              00 00 00 
              00 00 00 
              00 00 00 
              00 00 00 
              00 00 00 
              00 00 00 
              00 00 00 
              00 00 00 
              00 00 00 
              00 00 00 
              00 00 00 
              00 00 00 
              00 00 00 
              00 00 00 
              00 00 00 
              00 00 00 
              00 00 00 
              00 00 00 



ARM Macro Assembler    Page 93 Lab 7 prelab


              00 00 00 
              00 00 00 
              00 00 00 
              00 00 00 
              00 00 00 
              00 00 00 
              00 00 00 
              00 00 00 
              00 00 00 
              00 00 00 
              00 00 00 
              00 00 00 
              00 00 00 
              00 00 00 
              00 00 00 
              00 00 00 
              00 00 00 
              00 00 00 
              00 00 00 
              00 00 00 
              00 00 00 
              00 00 00 
              00 00 00 
              00 00 00 
              00 00 00 
              00 00 00 
              00 00 00 
              00 00 00 
              00 00 00 
              00 00 00 
              00 00 00 
              00 00 00 
              00 00 00 
              00 00 00 
              00 00 00 
              00 00 00 
              00 00 00 
              00 00 00 
              00 00 00 
              00 00 00 
              00 00 00 
              00 00 00 
              00 00 00 
              00 00 00 
              00 00 00 
              00 00 00 
              00 00 00 
              00 00 00 
              00 00 00 
              00 00 00 
              00 00 00 
              00 00 00 
              00 00 00 
              00 00 00 
              00 00 00 
              00 00 00 
              00 00 00 
              00 00 00 
              00 00 00 



ARM Macro Assembler    Page 94 Lab 7 prelab


              00 00 00 
              00 00 00 
              00 00 00 
              00 00 00 
              00 00 00 
              00 00 00 
              00 00 00 
              00 00 00 
              00 00 00 
              00 00 00 
              00 00 00 
              00 00 00 
              00 00 00 
              00 00 00 
              00 00 00 
              00 00 00 
              00 00 00 
              00 00 00 
              00 00 00 
              00 00 00 
              00 00 00 
              00 00 00 
              00 00 00 
              00 00 00 
              00 00 00 
              00 00 00 
              00 00 00 
              00 00 00 
              00 00 00 
              00 00 00 
              00 00 00 
              00 00 00 
              00 00 00 
              00 00 00 
              00 00 00 
              00 00 00 
              00 00 00 
              00 00 00 
              00 00 00 
              00 00 00 
              00 00 00 
              00 00 00 
              00 00 00 
              00 00 00 
              00 00 00 
              00 00 00 
              00 00 00 
              00 00 00 
              00 00 00 
              00 00 00 
              00 00 00 
              00 00 00 
              00 00 00 
              00 00 00 
              00 00 00 
              00 00 00 
              00 00 00 
              00 00 00 
              00 00 00 



ARM Macro Assembler    Page 95 Lab 7 prelab


              00 00 00 
              00 00 00 
              00 00 00 
              00 00 00 
              00 00 00 
              00 00 00 
              00 00 00 
              00 00 00 
              00 00 00 
              00 00 00 
              00 00 00 
              00 00 00 
              00 00 00 
              00 00 00 
              00 00 00 
              00 00 00 
              00 00 00 
              00 00 00 
              00 00 00 
              00 00 00 
              00 00 00 
              00 00 00 
              00 00 00 
              00 00 00 
              00 00 00 
              00 00 00 
              00 00 00 
              00 00 00 
              00 00 00 
              00 00 00 
              00 00 00 
              00 00 00 
              00 00 00 
              00 00 00 
              00 00 00 
              00 00 00 
              00 00 00 
              00 00 00 
              00 00 00 
              00 00 00 
              00 00 00 
              00 00 00 
              00 00 00 
              00 00 00 
              00 00 00 
              00 00 00 
              00 00 00 
              00 00 00 
              00 00 00 
              00 00 00 
              00 00 00 
              00 00 00 
              00 00 00 
              00 00 00 
              00 00 00 
              00 00 00 
              00 00 00 
              00 00 00 
              00 00 00 



ARM Macro Assembler    Page 96 Lab 7 prelab


              00 00 00 
              00 00 00 
              00 00 00 
              00 00 00 
              00 00 00 
              00 00 00 
              00 00 00 
              00 00 00 
              00 00 00 
              00 00 00 
              00 00 00 
              00 00 00 
              00 00 00 
              00 00 00 
              00 00 00 
              00 00 00 
              00 00 00 
              00 00 00 
              00 00 00 
              00 00 00 
              00 00 00 
              00 00 00 
              00 00 00 
              00 00 00 
              00 00 00 
              00 00 00 
              00 00 00 
              00 00 00 
              00 00 00 
              00 00 00 
              00 00 00 
              00 00 00 
              00 00 00 
              00 00 00 
              00 00 00 
              00 00 00 
              00 00 00 
              00 00 00 
              00 00 00 
              00 00 00 
              00 00 00 
              00 00 00 
              00 00 00 
              00 00 00 
              00 00 00 
              00 00 00 
              00 00 00 
              00 00 00 
              00 00 00 
              00 00 00 
              00 00 00 
              00 00 00 
              00 00 00 
              00 00 00 
              00 00 00 
              00 00 00 
              00 00 00 
              00 00 00 
              00 00 00 



ARM Macro Assembler    Page 97 Lab 7 prelab


              00 00 00 
              00 00 00 
              00 00 00 
              00 00 00 
              00 00 00 
              00 00 00 
              00 00 00 
              00 00 00 
              00 00 00 
              00 00 00 
              00 00 00 
              00 00 00 
              00 00 00 
              00 00 00 
              00 00 00 
              00 00 00 
              00 00 00 
              00 00 00 
              00 00 00 
              00 00 00 
              00 00 00 
              00 00 00 
              00 00 00 
              00 00 00 
              00 00 00 
              00 00 00 
              00 00 00 
              00 00 00 
              00 00 00 
              00 00 00 
              00 00 00 
              00 00 00 
              00 00 00 
              00 00 00 
              00 00 00 
              00 00 00 
              00 00 00 
              00 00 00 
              00 00 00 
              00 00 00 
              00 00 00 
              00 00 00 
              00 00 00 
              00 00 00 
              00 00 00 
              00 00 00 
              00 00 00 
              00 00 00 
              00 00 00 
              00 00 00 
              00 00 00 
              00 00 00 
              00 00 00 
              00 00 00 
              00 00 00 
              00 00 00 
              00 00 00 
              00 00 00 
              00 00 00 



ARM Macro Assembler    Page 98 Lab 7 prelab


              00 00 00 
              00 00 00 
              00 00 00 
              00 00 00 
              00 00 00 
              00 00 00 
              00 00 00 
              00 00 00 
              00 00 00 
              00 00 00 
              00 00 00 
              00 00 00 
              00 00 00 
              00 00 00 
              00 00 00 
              00 00 00 
              00 00 00 
              00 00 00 
              00 00 00 
              00 00 00 
              00 00 00 
              00 00 00 
              00 00 00 
              00 00 00 
              00 00 00 
              00 00 00 
              00 00 00 
              00 00 00 
              00 00 00 
              00 00 00 
              00 00 00 
              00 00 00 
              00 00 00 
              00 00 00 
              00 00 00 
              00 00 00 
              00 00 00 
              00 00 00 
              00 00 00 
              00 00 00 
              00 00 00 
              00 00 00 
              00 00 00 
              00 00 00 
              00 00 00 
              00 00 00 
              00 00 00 
              00 00 00 
              00 00 00 
              00 00 00 
              00 00 00 
              00 00 00 
              00 00 00 
              00 00 00 
              00 00 00 
              00 00 00 
              00 00 00 
              00 00 00 
              00 00 00 



ARM Macro Assembler    Page 99 Lab 7 prelab


              00 00 00 
              00 00 00 
              00 00 00 
              00 00 00 
              00 00 00 
              00 00 00 
              00 00 00 
              00 00 00 
              00 00 00 
              00 00 00 
              00 00 00 
              00 00 00 
              00 00 00 
              00 00 00 
              00 00 00 
              00 00 00 
              00 00 00 
              00 00 00 
              00 00 00 
              00 00 00 
              00 00 00 
              00 00 00 
              00 00 00 
              00 00 00 
              00 00 00 
              00 00 00 
              00 00 00 
              00 00 00 
              00 00 00 
              00 00 00 
              00 00 00 
              00 00 00 
              00 00 00 
              00 00 00 
              00 00 00 
              00 00 00 
              00 00 00 
              00 00 00 
              00 00 00 
              00 00 00 
              00 00 00 
              00 00 00 
              00 00 00 
              00 00 00 
              00 00 00 
              00 00 00 
              00 00 00 
              00 00 00 
              00 00 00 
              00 00 00 
              00 00 00 
              00 00 00 
              00 00 00 
              00 00 00 
              00 00 00 
              00 00 00 
              00 00 00 
              00 00 00 
              00 00 00 



ARM Macro Assembler    Page 100 Lab 7 prelab


              00 00 00 
              00 00 00 
              00 00 00 
              00 00 00 
              00 00 00 
              00 00 00 
              00 00 00 
              00 00 00 
              00 00 00 
              00 00 00 
              00 00 00 
              00 00 00 
              00 00 00 
              00 00 00 
              00 00 00 
              00 00 00 
              00 00 00 
              00 00 00 
              00 00 00 
              00 00 00 
              00 00 00 
              00 00 00 
              00 00 00 
              00 00 00 
              00 00 00 
              00 00 00 
              00 00 00 
              00 00 00 
              00 00 00 
              00 00 00 
              00 00 00 
              00 00 00 
              00 00 00 
              00 00 00 
              00 00 00 
              00 00 00 
              00 00 00 
              00 00 00 
              00 00 00 
              00 00 00 
              00 00 00 
              00 00 00 
              00 00 00 
              00 00 00 
              00 00 00 
              00 00 00 
              00 00 00 
              00 00 00 
              00 00 00 
              00 00 00 
              00 00 00 
              00 00 00 
              00 00 00 
              00 00 00 
              00 00 00 
              00 00 00 
              00 00 00 
              00 00 00 
              00 00 00 



ARM Macro Assembler    Page 101 Lab 7 prelab


              00 00 00 
              00 00 00 
              00 00 00 
              00 00 00 
              00 00 00 
              00 00 00 
              00 00 00 
              00 00 00 
              00 00 00 
              00 00 00 
              00 00 00 
              00 00 00 
              00 00 00 
              00 00 00 
              00 00 00 
              00 00 00 
              00 00 00 
              00 00 00 
              00 00 00 
              00 00 00 
              00 00 00 
              00 00 00 
              00 00 00 
              00 00 00 
              00 00 00 
              00 00 00 
              00 00 00 
              00 00 00 
              00 00 00 
              00 00 00 
              00 00 00 
              00 00 00 
              00 00 00 
              00 00 00 
              00 00 00 
              00 00 00 
              00 00 00 
              00 00 00 
              00 00 00 
              00 00 00 
              00 00 00 
              00 00 00 
              00 00 00 
              00 00 00 
              00 00 00 
              00 00 00 
              00 00 00 
              00 00 00 
              00 00 00 
              00 00 00 
              00 00 00 
              00 00 00 
              00 00 00 Memory  SPACE            MEM_SIZE
 4249 00000BB8         ;>>>>>   end variables here <<<<<
 4250 00000BB8                 ALIGN
 4251 00000BB8                 END
Command Line: --debug --xref --diag_suppress=9931 --cpu=Cortex-M0+ --apcs=inter
work --depend=.\objects\test.d -o.\objects\test.o -I.\RTE\_Target_1 -IC:\Keil_v
5\ARM\PACK\Keil\Kinetis_KLxx_DFP\1.13.0\Device\Include -IC:\Keil_v5\ARM\CMSIS\I



ARM Macro Assembler    Page 102 Lab 7 prelab


nclude --predefine="__EVAL SETA 1" --predefine="__UVISION_VERSION SETA 524" --p
redefine="MKL46Z256xxx4 SETA 1" --list=.\listings\test.lst test.s



ARM Macro Assembler    Page 1 Alphabetic symbol ordering
Relocatable symbols

A_0 00000040

Symbol: A_0
   Definitions
      At line 211 in file test.s
   Uses
      At line 208 in file test.s
Comment: A_0 used once
A_1 0000009E

Symbol: A_1
   Definitions
      At line 258 in file test.s
   Uses
      At line 255 in file test.s
Comment: A_1 used once
A_10 000001EC

Symbol: A_10
   Definitions
      At line 421 in file test.s
   Uses
      At line 418 in file test.s
Comment: A_10 used once
A_100 00001E88

Symbol: A_100
   Definitions
      At line 3155 in file test.s
   Uses
      At line 3152 in file test.s
Comment: A_100 used once
A_101 00001F14

Symbol: A_101
   Definitions
      At line 3220 in file test.s
   Uses
      At line 3217 in file test.s
Comment: A_101 used once
A_102 000020A2

Symbol: A_102
   Definitions
      At line 3300 in file test.s
   Uses
      At line 3297 in file test.s
Comment: A_102 used once
A_103 00002128

Symbol: A_103
   Definitions
      At line 3361 in file test.s
   Uses
      At line 3358 in file test.s
Comment: A_103 used once
A_104 000021AE

Symbol: A_104



ARM Macro Assembler    Page 2 Alphabetic symbol ordering
Relocatable symbols

   Definitions
      At line 3422 in file test.s
   Uses
      At line 3419 in file test.s
Comment: A_104 used once
A_105 0000224A

Symbol: A_105
   Definitions
      At line 3494 in file test.s
   Uses
      At line 3491 in file test.s
Comment: A_105 used once
A_106 000022E6

Symbol: A_106
   Definitions
      At line 3566 in file test.s
   Uses
      At line 3563 in file test.s
Comment: A_106 used once
A_107 00002454

Symbol: A_107
   Definitions
      At line 3630 in file test.s
   Uses
      At line 3627 in file test.s
Comment: A_107 used once
A_108 000024D4

Symbol: A_108
   Definitions
      At line 3689 in file test.s
   Uses
      At line 3686 in file test.s
Comment: A_108 used once
A_109 00002570

Symbol: A_109
   Definitions
      At line 3761 in file test.s
   Uses
      At line 3758 in file test.s
Comment: A_109 used once
A_11 00000200

Symbol: A_11
   Definitions
      At line 431 in file test.s
   Uses
      At line 428 in file test.s
Comment: A_11 used once
A_110 0000260C

Symbol: A_110
   Definitions
      At line 3833 in file test.s
   Uses



ARM Macro Assembler    Page 3 Alphabetic symbol ordering
Relocatable symbols

      At line 3830 in file test.s
Comment: A_110 used once
A_111 00002676

Symbol: A_111
   Definitions
      At line 3881 in file test.s
   Uses
      At line 3878 in file test.s
Comment: A_111 used once
A_12 00000214

Symbol: A_12
   Definitions
      At line 441 in file test.s
   Uses
      At line 438 in file test.s
Comment: A_12 used once
A_13 00000228

Symbol: A_13
   Definitions
      At line 451 in file test.s
   Uses
      At line 448 in file test.s
Comment: A_13 used once
A_14 0000023C

Symbol: A_14
   Definitions
      At line 461 in file test.s
   Uses
      At line 458 in file test.s
Comment: A_14 used once
A_15 00000250

Symbol: A_15
   Definitions
      At line 471 in file test.s
   Uses
      At line 468 in file test.s
Comment: A_15 used once
A_16 00000264

Symbol: A_16
   Definitions
      At line 481 in file test.s
   Uses
      At line 478 in file test.s
Comment: A_16 used once
A_17 00000278

Symbol: A_17
   Definitions
      At line 491 in file test.s
   Uses
      At line 488 in file test.s
Comment: A_17 used once
A_18 0000028C



ARM Macro Assembler    Page 4 Alphabetic symbol ordering
Relocatable symbols


Symbol: A_18
   Definitions
      At line 501 in file test.s
   Uses
      At line 498 in file test.s
Comment: A_18 used once
A_19 000002A0

Symbol: A_19
   Definitions
      At line 511 in file test.s
   Uses
      At line 508 in file test.s
Comment: A_19 used once
A_2 000000F2

Symbol: A_2
   Definitions
      At line 300 in file test.s
   Uses
      At line 297 in file test.s
Comment: A_2 used once
A_20 000002B4

Symbol: A_20
   Definitions
      At line 521 in file test.s
   Uses
      At line 518 in file test.s
Comment: A_20 used once
A_21 000002C8

Symbol: A_21
   Definitions
      At line 531 in file test.s
   Uses
      At line 528 in file test.s
Comment: A_21 used once
A_22 000002DC

Symbol: A_22
   Definitions
      At line 541 in file test.s
   Uses
      At line 538 in file test.s
Comment: A_22 used once
A_23 000002F0

Symbol: A_23
   Definitions
      At line 551 in file test.s
   Uses
      At line 548 in file test.s
Comment: A_23 used once
A_24 00000304

Symbol: A_24
   Definitions



ARM Macro Assembler    Page 5 Alphabetic symbol ordering
Relocatable symbols

      At line 561 in file test.s
   Uses
      At line 558 in file test.s
Comment: A_24 used once
A_25 00000318

Symbol: A_25
   Definitions
      At line 571 in file test.s
   Uses
      At line 568 in file test.s
Comment: A_25 used once
A_26 000003E4

Symbol: A_26
   Definitions
      At line 584 in file test.s
   Uses
      At line 581 in file test.s
Comment: A_26 used once
A_27 000003F8

Symbol: A_27
   Definitions
      At line 594 in file test.s
   Uses
      At line 591 in file test.s
Comment: A_27 used once
A_28 0000040C

Symbol: A_28
   Definitions
      At line 604 in file test.s
   Uses
      At line 601 in file test.s
Comment: A_28 used once
A_29 00000420

Symbol: A_29
   Definitions
      At line 614 in file test.s
   Uses
      At line 611 in file test.s
Comment: A_29 used once
A_3 0000014A

Symbol: A_3
   Definitions
      At line 340 in file test.s
   Uses
      At line 337 in file test.s
Comment: A_3 used once
A_30 00000434

Symbol: A_30
   Definitions
      At line 624 in file test.s
   Uses
      At line 621 in file test.s



ARM Macro Assembler    Page 6 Alphabetic symbol ordering
Relocatable symbols

Comment: A_30 used once
A_31 00000448

Symbol: A_31
   Definitions
      At line 634 in file test.s
   Uses
      At line 631 in file test.s
Comment: A_31 used once
A_32 0000045C

Symbol: A_32
   Definitions
      At line 644 in file test.s
   Uses
      At line 641 in file test.s
Comment: A_32 used once
A_33 00000470

Symbol: A_33
   Definitions
      At line 654 in file test.s
   Uses
      At line 651 in file test.s
Comment: A_33 used once
A_34 00000484

Symbol: A_34
   Definitions
      At line 664 in file test.s
   Uses
      At line 661 in file test.s
Comment: A_34 used once
A_35 00000498

Symbol: A_35
   Definitions
      At line 674 in file test.s
   Uses
      At line 671 in file test.s
Comment: A_35 used once
A_36 000004AC

Symbol: A_36
   Definitions
      At line 684 in file test.s
   Uses
      At line 681 in file test.s
Comment: A_36 used once
A_37 000004C0

Symbol: A_37
   Definitions
      At line 694 in file test.s
   Uses
      At line 691 in file test.s
Comment: A_37 used once
A_38 000004D4




ARM Macro Assembler    Page 7 Alphabetic symbol ordering
Relocatable symbols

Symbol: A_38
   Definitions
      At line 704 in file test.s
   Uses
      At line 701 in file test.s
Comment: A_38 used once
A_39 000004E8

Symbol: A_39
   Definitions
      At line 714 in file test.s
   Uses
      At line 711 in file test.s
Comment: A_39 used once
A_4 00000174

Symbol: A_4
   Definitions
      At line 361 in file test.s
   Uses
      At line 358 in file test.s
Comment: A_4 used once
A_40 000004FC

Symbol: A_40
   Definitions
      At line 724 in file test.s
   Uses
      At line 721 in file test.s
Comment: A_40 used once
A_41 00000510

Symbol: A_41
   Definitions
      At line 734 in file test.s
   Uses
      At line 731 in file test.s
Comment: A_41 used once
A_42 00000524

Symbol: A_42
   Definitions
      At line 744 in file test.s
   Uses
      At line 741 in file test.s
Comment: A_42 used once
A_43 00000538

Symbol: A_43
   Definitions
      At line 754 in file test.s
   Uses
      At line 751 in file test.s
Comment: A_43 used once
A_44 0000054C

Symbol: A_44
   Definitions
      At line 764 in file test.s



ARM Macro Assembler    Page 8 Alphabetic symbol ordering
Relocatable symbols

   Uses
      At line 761 in file test.s
Comment: A_44 used once
A_45 00000560

Symbol: A_45
   Definitions
      At line 774 in file test.s
   Uses
      At line 771 in file test.s
Comment: A_45 used once
A_46 00000574

Symbol: A_46
   Definitions
      At line 784 in file test.s
   Uses
      At line 781 in file test.s
Comment: A_46 used once
A_47 00000588

Symbol: A_47
   Definitions
      At line 794 in file test.s
   Uses
      At line 791 in file test.s
Comment: A_47 used once
A_48 0000059C

Symbol: A_48
   Definitions
      At line 804 in file test.s
   Uses
      At line 801 in file test.s
Comment: A_48 used once
A_49 000005B0

Symbol: A_49
   Definitions
      At line 814 in file test.s
   Uses
      At line 811 in file test.s
Comment: A_49 used once
A_5 00000188

Symbol: A_5
   Definitions
      At line 371 in file test.s
   Uses
      At line 368 in file test.s
Comment: A_5 used once
A_50 000005C4

Symbol: A_50
   Definitions
      At line 824 in file test.s
   Uses
      At line 821 in file test.s
Comment: A_50 used once



ARM Macro Assembler    Page 9 Alphabetic symbol ordering
Relocatable symbols

A_51 000005D8

Symbol: A_51
   Definitions
      At line 834 in file test.s
   Uses
      At line 831 in file test.s
Comment: A_51 used once
A_52 000005EC

Symbol: A_52
   Definitions
      At line 844 in file test.s
   Uses
      At line 841 in file test.s
Comment: A_52 used once
A_53 00000600

Symbol: A_53
   Definitions
      At line 854 in file test.s
   Uses
      At line 851 in file test.s
Comment: A_53 used once
A_54 00000614

Symbol: A_54
   Definitions
      At line 864 in file test.s
   Uses
      At line 861 in file test.s
Comment: A_54 used once
A_55 00000628

Symbol: A_55
   Definitions
      At line 874 in file test.s
   Uses
      At line 871 in file test.s
Comment: A_55 used once
A_56 0000063C

Symbol: A_56
   Definitions
      At line 884 in file test.s
   Uses
      At line 881 in file test.s
Comment: A_56 used once
A_57 00000650

Symbol: A_57
   Definitions
      At line 894 in file test.s
   Uses
      At line 891 in file test.s
Comment: A_57 used once
A_58 0000066E

Symbol: A_58



ARM Macro Assembler    Page 10 Alphabetic symbol ordering
Relocatable symbols

   Definitions
      At line 909 in file test.s
   Uses
      At line 906 in file test.s
Comment: A_58 used once
A_59 000007A0

Symbol: A_59
   Definitions
      At line 978 in file test.s
   Uses
      At line 975 in file test.s
Comment: A_59 used once
A_6 0000019C

Symbol: A_6
   Definitions
      At line 381 in file test.s
   Uses
      At line 378 in file test.s
Comment: A_6 used once
A_60 00000810

Symbol: A_60
   Definitions
      At line 1030 in file test.s
   Uses
      At line 1027 in file test.s
Comment: A_60 used once
A_61 0000088A

Symbol: A_61
   Definitions
      At line 1087 in file test.s
   Uses
      At line 1084 in file test.s
Comment: A_61 used once
A_62 00000904

Symbol: A_62
   Definitions
      At line 1144 in file test.s
   Uses
      At line 1141 in file test.s
Comment: A_62 used once
A_63 0000096C

Symbol: A_63
   Definitions
      At line 1193 in file test.s
   Uses
      At line 1190 in file test.s
Comment: A_63 used once
A_64 000009DA

Symbol: A_64
   Definitions
      At line 1244 in file test.s
   Uses



ARM Macro Assembler    Page 11 Alphabetic symbol ordering
Relocatable symbols

      At line 1241 in file test.s
Comment: A_64 used once
A_65 00000A42

Symbol: A_65
   Definitions
      At line 1293 in file test.s
   Uses
      At line 1290 in file test.s
Comment: A_65 used once
A_66 00000A94

Symbol: A_66
   Definitions
      At line 1333 in file test.s
   Uses
      At line 1330 in file test.s
Comment: A_66 used once
A_67 00000BEE

Symbol: A_67
   Definitions
      At line 1380 in file test.s
   Uses
      At line 1377 in file test.s
Comment: A_67 used once
A_68 00000C62

Symbol: A_68
   Definitions
      At line 1435 in file test.s
   Uses
      At line 1432 in file test.s
Comment: A_68 used once
A_69 00000CDC

Symbol: A_69
   Definitions
      At line 1492 in file test.s
   Uses
      At line 1489 in file test.s
Comment: A_69 used once
A_7 000001B0

Symbol: A_7
   Definitions
      At line 391 in file test.s
   Uses
      At line 388 in file test.s
Comment: A_7 used once
A_70 00000D56

Symbol: A_70
   Definitions
      At line 1549 in file test.s
   Uses
      At line 1546 in file test.s
Comment: A_70 used once
A_71 00000DB4



ARM Macro Assembler    Page 12 Alphabetic symbol ordering
Relocatable symbols


Symbol: A_71
   Definitions
      At line 1593 in file test.s
   Uses
      At line 1590 in file test.s
Comment: A_71 used once
A_72 00000E18

Symbol: A_72
   Definitions
      At line 1641 in file test.s
   Uses
      At line 1638 in file test.s
Comment: A_72 used once
A_73 00000E70

Symbol: A_73
   Definitions
      At line 1683 in file test.s
   Uses
      At line 1680 in file test.s
Comment: A_73 used once
A_74 00000FDE

Symbol: A_74
   Definitions
      At line 1743 in file test.s
   Uses
      At line 1740 in file test.s
Comment: A_74 used once
A_75 00001052

Symbol: A_75
   Definitions
      At line 1798 in file test.s
   Uses
      At line 1795 in file test.s
Comment: A_75 used once
A_76 000010C0

Symbol: A_76
   Definitions
      At line 1849 in file test.s
   Uses
      At line 1846 in file test.s
Comment: A_76 used once
A_77 00001118

Symbol: A_77
   Definitions
      At line 1891 in file test.s
   Uses
      At line 1888 in file test.s
Comment: A_77 used once
A_78 0000117C

Symbol: A_78
   Definitions



ARM Macro Assembler    Page 13 Alphabetic symbol ordering
Relocatable symbols

      At line 1937 in file test.s
   Uses
      At line 1934 in file test.s
Comment: A_78 used once
A_79 000011E6

Symbol: A_79
   Definitions
      At line 1987 in file test.s
   Uses
      At line 1984 in file test.s
Comment: A_79 used once
A_8 000001C4

Symbol: A_8
   Definitions
      At line 401 in file test.s
   Uses
      At line 398 in file test.s
Comment: A_8 used once
A_80 00001260

Symbol: A_80
   Definitions
      At line 2044 in file test.s
   Uses
      At line 2041 in file test.s
Comment: A_80 used once
A_81 000012B2

Symbol: A_81
   Definitions
      At line 2084 in file test.s
   Uses
      At line 2081 in file test.s
Comment: A_81 used once
A_82 0000141A

Symbol: A_82
   Definitions
      At line 2137 in file test.s
   Uses
      At line 2134 in file test.s
Comment: A_82 used once
A_83 000014A0

Symbol: A_83
   Definitions
      At line 2200 in file test.s
   Uses
      At line 2197 in file test.s
Comment: A_83 used once
A_84 00001510

Symbol: A_84
   Definitions
      At line 2252 in file test.s
   Uses
      At line 2249 in file test.s



ARM Macro Assembler    Page 14 Alphabetic symbol ordering
Relocatable symbols

Comment: A_84 used once
A_85 00001572

Symbol: A_85
   Definitions
      At line 2299 in file test.s
   Uses
      At line 2296 in file test.s
Comment: A_85 used once
A_86 0000160E

Symbol: A_86
   Definitions
      At line 2371 in file test.s
   Uses
      At line 2368 in file test.s
Comment: A_86 used once
A_87 00001694

Symbol: A_87
   Definitions
      At line 2432 in file test.s
   Uses
      At line 2429 in file test.s
Comment: A_87 used once
A_88 00001802

Symbol: A_88
   Definitions
      At line 2494 in file test.s
   Uses
      At line 2491 in file test.s
Comment: A_88 used once
A_89 000018AA

Symbol: A_89
   Definitions
      At line 2572 in file test.s
   Uses
      At line 2569 in file test.s
Comment: A_89 used once
A_9 000001D8

Symbol: A_9
   Definitions
      At line 411 in file test.s
   Uses
      At line 408 in file test.s
Comment: A_9 used once
A_90 00001926

Symbol: A_90
   Definitions
      At line 2628 in file test.s
   Uses
      At line 2625 in file test.s
Comment: A_90 used once
A_91 0000199C




ARM Macro Assembler    Page 15 Alphabetic symbol ordering
Relocatable symbols

Symbol: A_91
   Definitions
      At line 2682 in file test.s
   Uses
      At line 2679 in file test.s
Comment: A_91 used once
A_92 00001A12

Symbol: A_92
   Definitions
      At line 2736 in file test.s
   Uses
      At line 2733 in file test.s
Comment: A_92 used once
A_93 00001A88

Symbol: A_93
   Definitions
      At line 2790 in file test.s
   Uses
      At line 2787 in file test.s
Comment: A_93 used once
A_94 00001AFE

Symbol: A_94
   Definitions
      At line 2844 in file test.s
   Uses
      At line 2841 in file test.s
Comment: A_94 used once
A_95 00001C4E

Symbol: A_95
   Definitions
      At line 2895 in file test.s
   Uses
      At line 2892 in file test.s
Comment: A_95 used once
A_96 00001CC2

Symbol: A_96
   Definitions
      At line 2948 in file test.s
   Uses
      At line 2945 in file test.s
Comment: A_96 used once
A_97 00001D36

Symbol: A_97
   Definitions
      At line 3001 in file test.s
   Uses
      At line 2998 in file test.s
Comment: A_97 used once
A_98 00001DAA

Symbol: A_98
   Definitions
      At line 3054 in file test.s



ARM Macro Assembler    Page 16 Alphabetic symbol ordering
Relocatable symbols

   Uses
      At line 3051 in file test.s
Comment: A_98 used once
A_99 00001E1E

Symbol: A_99
   Definitions
      At line 3107 in file test.s
   Uses
      At line 3104 in file test.s
Comment: A_99 used once
BE_0 0000003C

Symbol: BE_0
   Definitions
      At line 209 in file test.s
   Uses
      At line 207 in file test.s
Comment: BE_0 used once
BE_1 0000009A

Symbol: BE_1
   Definitions
      At line 256 in file test.s
   Uses
      At line 254 in file test.s
Comment: BE_1 used once
BE_10 000001E8

Symbol: BE_10
   Definitions
      At line 419 in file test.s
   Uses
      At line 417 in file test.s
Comment: BE_10 used once
BE_100 00001E84

Symbol: BE_100
   Definitions
      At line 3153 in file test.s
   Uses
      At line 3151 in file test.s
Comment: BE_100 used once
BE_101 00001F10

Symbol: BE_101
   Definitions
      At line 3218 in file test.s
   Uses
      At line 3216 in file test.s
Comment: BE_101 used once
BE_102 0000209E

Symbol: BE_102
   Definitions
      At line 3298 in file test.s
   Uses
      At line 3296 in file test.s
Comment: BE_102 used once



ARM Macro Assembler    Page 17 Alphabetic symbol ordering
Relocatable symbols

BE_103 00002124

Symbol: BE_103
   Definitions
      At line 3359 in file test.s
   Uses
      At line 3357 in file test.s
Comment: BE_103 used once
BE_104 000021AA

Symbol: BE_104
   Definitions
      At line 3420 in file test.s
   Uses
      At line 3418 in file test.s
Comment: BE_104 used once
BE_105 00002246

Symbol: BE_105
   Definitions
      At line 3492 in file test.s
   Uses
      At line 3490 in file test.s
Comment: BE_105 used once
BE_106 000022E2

Symbol: BE_106
   Definitions
      At line 3564 in file test.s
   Uses
      At line 3562 in file test.s
Comment: BE_106 used once
BE_107 00002450

Symbol: BE_107
   Definitions
      At line 3628 in file test.s
   Uses
      At line 3626 in file test.s
Comment: BE_107 used once
BE_108 000024D0

Symbol: BE_108
   Definitions
      At line 3687 in file test.s
   Uses
      At line 3685 in file test.s
Comment: BE_108 used once
BE_109 0000256C

Symbol: BE_109
   Definitions
      At line 3759 in file test.s
   Uses
      At line 3757 in file test.s
Comment: BE_109 used once
BE_11 000001FC

Symbol: BE_11



ARM Macro Assembler    Page 18 Alphabetic symbol ordering
Relocatable symbols

   Definitions
      At line 429 in file test.s
   Uses
      At line 427 in file test.s
Comment: BE_11 used once
BE_110 00002608

Symbol: BE_110
   Definitions
      At line 3831 in file test.s
   Uses
      At line 3829 in file test.s
Comment: BE_110 used once
BE_111 00002672

Symbol: BE_111
   Definitions
      At line 3879 in file test.s
   Uses
      At line 3877 in file test.s
Comment: BE_111 used once
BE_12 00000210

Symbol: BE_12
   Definitions
      At line 439 in file test.s
   Uses
      At line 437 in file test.s
Comment: BE_12 used once
BE_13 00000224

Symbol: BE_13
   Definitions
      At line 449 in file test.s
   Uses
      At line 447 in file test.s
Comment: BE_13 used once
BE_14 00000238

Symbol: BE_14
   Definitions
      At line 459 in file test.s
   Uses
      At line 457 in file test.s
Comment: BE_14 used once
BE_15 0000024C

Symbol: BE_15
   Definitions
      At line 469 in file test.s
   Uses
      At line 467 in file test.s
Comment: BE_15 used once
BE_16 00000260

Symbol: BE_16
   Definitions
      At line 479 in file test.s
   Uses



ARM Macro Assembler    Page 19 Alphabetic symbol ordering
Relocatable symbols

      At line 477 in file test.s
Comment: BE_16 used once
BE_17 00000274

Symbol: BE_17
   Definitions
      At line 489 in file test.s
   Uses
      At line 487 in file test.s
Comment: BE_17 used once
BE_18 00000288

Symbol: BE_18
   Definitions
      At line 499 in file test.s
   Uses
      At line 497 in file test.s
Comment: BE_18 used once
BE_19 0000029C

Symbol: BE_19
   Definitions
      At line 509 in file test.s
   Uses
      At line 507 in file test.s
Comment: BE_19 used once
BE_2 000000EE

Symbol: BE_2
   Definitions
      At line 298 in file test.s
   Uses
      At line 296 in file test.s
Comment: BE_2 used once
BE_20 000002B0

Symbol: BE_20
   Definitions
      At line 519 in file test.s
   Uses
      At line 517 in file test.s
Comment: BE_20 used once
BE_21 000002C4

Symbol: BE_21
   Definitions
      At line 529 in file test.s
   Uses
      At line 527 in file test.s
Comment: BE_21 used once
BE_22 000002D8

Symbol: BE_22
   Definitions
      At line 539 in file test.s
   Uses
      At line 537 in file test.s
Comment: BE_22 used once
BE_23 000002EC



ARM Macro Assembler    Page 20 Alphabetic symbol ordering
Relocatable symbols


Symbol: BE_23
   Definitions
      At line 549 in file test.s
   Uses
      At line 547 in file test.s
Comment: BE_23 used once
BE_24 00000300

Symbol: BE_24
   Definitions
      At line 559 in file test.s
   Uses
      At line 557 in file test.s
Comment: BE_24 used once
BE_25 00000314

Symbol: BE_25
   Definitions
      At line 569 in file test.s
   Uses
      At line 567 in file test.s
Comment: BE_25 used once
BE_26 000003E0

Symbol: BE_26
   Definitions
      At line 582 in file test.s
   Uses
      At line 580 in file test.s
Comment: BE_26 used once
BE_27 000003F4

Symbol: BE_27
   Definitions
      At line 592 in file test.s
   Uses
      At line 590 in file test.s
Comment: BE_27 used once
BE_28 00000408

Symbol: BE_28
   Definitions
      At line 602 in file test.s
   Uses
      At line 600 in file test.s
Comment: BE_28 used once
BE_29 0000041C

Symbol: BE_29
   Definitions
      At line 612 in file test.s
   Uses
      At line 610 in file test.s
Comment: BE_29 used once
BE_3 00000146

Symbol: BE_3
   Definitions



ARM Macro Assembler    Page 21 Alphabetic symbol ordering
Relocatable symbols

      At line 338 in file test.s
   Uses
      At line 336 in file test.s
Comment: BE_3 used once
BE_30 00000430

Symbol: BE_30
   Definitions
      At line 622 in file test.s
   Uses
      At line 620 in file test.s
Comment: BE_30 used once
BE_31 00000444

Symbol: BE_31
   Definitions
      At line 632 in file test.s
   Uses
      At line 630 in file test.s
Comment: BE_31 used once
BE_32 00000458

Symbol: BE_32
   Definitions
      At line 642 in file test.s
   Uses
      At line 640 in file test.s
Comment: BE_32 used once
BE_33 0000046C

Symbol: BE_33
   Definitions
      At line 652 in file test.s
   Uses
      At line 650 in file test.s
Comment: BE_33 used once
BE_34 00000480

Symbol: BE_34
   Definitions
      At line 662 in file test.s
   Uses
      At line 660 in file test.s
Comment: BE_34 used once
BE_35 00000494

Symbol: BE_35
   Definitions
      At line 672 in file test.s
   Uses
      At line 670 in file test.s
Comment: BE_35 used once
BE_36 000004A8

Symbol: BE_36
   Definitions
      At line 682 in file test.s
   Uses
      At line 680 in file test.s



ARM Macro Assembler    Page 22 Alphabetic symbol ordering
Relocatable symbols

Comment: BE_36 used once
BE_37 000004BC

Symbol: BE_37
   Definitions
      At line 692 in file test.s
   Uses
      At line 690 in file test.s
Comment: BE_37 used once
BE_38 000004D0

Symbol: BE_38
   Definitions
      At line 702 in file test.s
   Uses
      At line 700 in file test.s
Comment: BE_38 used once
BE_39 000004E4

Symbol: BE_39
   Definitions
      At line 712 in file test.s
   Uses
      At line 710 in file test.s
Comment: BE_39 used once
BE_4 00000170

Symbol: BE_4
   Definitions
      At line 359 in file test.s
   Uses
      At line 357 in file test.s
Comment: BE_4 used once
BE_40 000004F8

Symbol: BE_40
   Definitions
      At line 722 in file test.s
   Uses
      At line 720 in file test.s
Comment: BE_40 used once
BE_41 0000050C

Symbol: BE_41
   Definitions
      At line 732 in file test.s
   Uses
      At line 730 in file test.s
Comment: BE_41 used once
BE_42 00000520

Symbol: BE_42
   Definitions
      At line 742 in file test.s
   Uses
      At line 740 in file test.s
Comment: BE_42 used once
BE_43 00000534




ARM Macro Assembler    Page 23 Alphabetic symbol ordering
Relocatable symbols

Symbol: BE_43
   Definitions
      At line 752 in file test.s
   Uses
      At line 750 in file test.s
Comment: BE_43 used once
BE_44 00000548

Symbol: BE_44
   Definitions
      At line 762 in file test.s
   Uses
      At line 760 in file test.s
Comment: BE_44 used once
BE_45 0000055C

Symbol: BE_45
   Definitions
      At line 772 in file test.s
   Uses
      At line 770 in file test.s
Comment: BE_45 used once
BE_46 00000570

Symbol: BE_46
   Definitions
      At line 782 in file test.s
   Uses
      At line 780 in file test.s
Comment: BE_46 used once
BE_47 00000584

Symbol: BE_47
   Definitions
      At line 792 in file test.s
   Uses
      At line 790 in file test.s
Comment: BE_47 used once
BE_48 00000598

Symbol: BE_48
   Definitions
      At line 802 in file test.s
   Uses
      At line 800 in file test.s
Comment: BE_48 used once
BE_49 000005AC

Symbol: BE_49
   Definitions
      At line 812 in file test.s
   Uses
      At line 810 in file test.s
Comment: BE_49 used once
BE_5 00000184

Symbol: BE_5
   Definitions
      At line 369 in file test.s



ARM Macro Assembler    Page 24 Alphabetic symbol ordering
Relocatable symbols

   Uses
      At line 367 in file test.s
Comment: BE_5 used once
BE_50 000005C0

Symbol: BE_50
   Definitions
      At line 822 in file test.s
   Uses
      At line 820 in file test.s
Comment: BE_50 used once
BE_51 000005D4

Symbol: BE_51
   Definitions
      At line 832 in file test.s
   Uses
      At line 830 in file test.s
Comment: BE_51 used once
BE_52 000005E8

Symbol: BE_52
   Definitions
      At line 842 in file test.s
   Uses
      At line 840 in file test.s
Comment: BE_52 used once
BE_53 000005FC

Symbol: BE_53
   Definitions
      At line 852 in file test.s
   Uses
      At line 850 in file test.s
Comment: BE_53 used once
BE_54 00000610

Symbol: BE_54
   Definitions
      At line 862 in file test.s
   Uses
      At line 860 in file test.s
Comment: BE_54 used once
BE_55 00000624

Symbol: BE_55
   Definitions
      At line 872 in file test.s
   Uses
      At line 870 in file test.s
Comment: BE_55 used once
BE_56 00000638

Symbol: BE_56
   Definitions
      At line 882 in file test.s
   Uses
      At line 880 in file test.s
Comment: BE_56 used once



ARM Macro Assembler    Page 25 Alphabetic symbol ordering
Relocatable symbols

BE_57 0000064C

Symbol: BE_57
   Definitions
      At line 892 in file test.s
   Uses
      At line 890 in file test.s
Comment: BE_57 used once
BE_58 0000066A

Symbol: BE_58
   Definitions
      At line 907 in file test.s
   Uses
      At line 905 in file test.s
Comment: BE_58 used once
BE_59 0000079C

Symbol: BE_59
   Definitions
      At line 976 in file test.s
   Uses
      At line 974 in file test.s
Comment: BE_59 used once
BE_6 00000198

Symbol: BE_6
   Definitions
      At line 379 in file test.s
   Uses
      At line 377 in file test.s
Comment: BE_6 used once
BE_60 0000080C

Symbol: BE_60
   Definitions
      At line 1028 in file test.s
   Uses
      At line 1026 in file test.s
Comment: BE_60 used once
BE_61 00000886

Symbol: BE_61
   Definitions
      At line 1085 in file test.s
   Uses
      At line 1083 in file test.s
Comment: BE_61 used once
BE_62 00000900

Symbol: BE_62
   Definitions
      At line 1142 in file test.s
   Uses
      At line 1140 in file test.s
Comment: BE_62 used once
BE_63 00000968

Symbol: BE_63



ARM Macro Assembler    Page 26 Alphabetic symbol ordering
Relocatable symbols

   Definitions
      At line 1191 in file test.s
   Uses
      At line 1189 in file test.s
Comment: BE_63 used once
BE_64 000009D6

Symbol: BE_64
   Definitions
      At line 1242 in file test.s
   Uses
      At line 1240 in file test.s
Comment: BE_64 used once
BE_65 00000A3E

Symbol: BE_65
   Definitions
      At line 1291 in file test.s
   Uses
      At line 1289 in file test.s
Comment: BE_65 used once
BE_66 00000A90

Symbol: BE_66
   Definitions
      At line 1331 in file test.s
   Uses
      At line 1329 in file test.s
Comment: BE_66 used once
BE_67 00000BEA

Symbol: BE_67
   Definitions
      At line 1378 in file test.s
   Uses
      At line 1376 in file test.s
Comment: BE_67 used once
BE_68 00000C5E

Symbol: BE_68
   Definitions
      At line 1433 in file test.s
   Uses
      At line 1431 in file test.s
Comment: BE_68 used once
BE_69 00000CD8

Symbol: BE_69
   Definitions
      At line 1490 in file test.s
   Uses
      At line 1488 in file test.s
Comment: BE_69 used once
BE_7 000001AC

Symbol: BE_7
   Definitions
      At line 389 in file test.s
   Uses



ARM Macro Assembler    Page 27 Alphabetic symbol ordering
Relocatable symbols

      At line 387 in file test.s
Comment: BE_7 used once
BE_70 00000D52

Symbol: BE_70
   Definitions
      At line 1547 in file test.s
   Uses
      At line 1545 in file test.s
Comment: BE_70 used once
BE_71 00000DB0

Symbol: BE_71
   Definitions
      At line 1591 in file test.s
   Uses
      At line 1589 in file test.s
Comment: BE_71 used once
BE_72 00000E14

Symbol: BE_72
   Definitions
      At line 1639 in file test.s
   Uses
      At line 1637 in file test.s
Comment: BE_72 used once
BE_73 00000E6C

Symbol: BE_73
   Definitions
      At line 1681 in file test.s
   Uses
      At line 1679 in file test.s
Comment: BE_73 used once
BE_74 00000FDA

Symbol: BE_74
   Definitions
      At line 1741 in file test.s
   Uses
      At line 1739 in file test.s
Comment: BE_74 used once
BE_75 0000104E

Symbol: BE_75
   Definitions
      At line 1796 in file test.s
   Uses
      At line 1794 in file test.s
Comment: BE_75 used once
BE_76 000010BC

Symbol: BE_76
   Definitions
      At line 1847 in file test.s
   Uses
      At line 1845 in file test.s
Comment: BE_76 used once
BE_77 00001114



ARM Macro Assembler    Page 28 Alphabetic symbol ordering
Relocatable symbols


Symbol: BE_77
   Definitions
      At line 1889 in file test.s
   Uses
      At line 1887 in file test.s
Comment: BE_77 used once
BE_78 00001178

Symbol: BE_78
   Definitions
      At line 1935 in file test.s
   Uses
      At line 1933 in file test.s
Comment: BE_78 used once
BE_79 000011E2

Symbol: BE_79
   Definitions
      At line 1985 in file test.s
   Uses
      At line 1983 in file test.s
Comment: BE_79 used once
BE_8 000001C0

Symbol: BE_8
   Definitions
      At line 399 in file test.s
   Uses
      At line 397 in file test.s
Comment: BE_8 used once
BE_80 0000125C

Symbol: BE_80
   Definitions
      At line 2042 in file test.s
   Uses
      At line 2040 in file test.s
Comment: BE_80 used once
BE_81 000012AE

Symbol: BE_81
   Definitions
      At line 2082 in file test.s
   Uses
      At line 2080 in file test.s
Comment: BE_81 used once
BE_82 00001416

Symbol: BE_82
   Definitions
      At line 2135 in file test.s
   Uses
      At line 2133 in file test.s
Comment: BE_82 used once
BE_83 0000149C

Symbol: BE_83
   Definitions



ARM Macro Assembler    Page 29 Alphabetic symbol ordering
Relocatable symbols

      At line 2198 in file test.s
   Uses
      At line 2196 in file test.s
Comment: BE_83 used once
BE_84 0000150C

Symbol: BE_84
   Definitions
      At line 2250 in file test.s
   Uses
      At line 2248 in file test.s
Comment: BE_84 used once
BE_85 0000156E

Symbol: BE_85
   Definitions
      At line 2297 in file test.s
   Uses
      At line 2295 in file test.s
Comment: BE_85 used once
BE_86 0000160A

Symbol: BE_86
   Definitions
      At line 2369 in file test.s
   Uses
      At line 2367 in file test.s
Comment: BE_86 used once
BE_87 00001690

Symbol: BE_87
   Definitions
      At line 2430 in file test.s
   Uses
      At line 2428 in file test.s
Comment: BE_87 used once
BE_88 000017FE

Symbol: BE_88
   Definitions
      At line 2492 in file test.s
   Uses
      At line 2490 in file test.s
Comment: BE_88 used once
BE_89 000018A6

Symbol: BE_89
   Definitions
      At line 2570 in file test.s
   Uses
      At line 2568 in file test.s
Comment: BE_89 used once
BE_9 000001D4

Symbol: BE_9
   Definitions
      At line 409 in file test.s
   Uses
      At line 407 in file test.s



ARM Macro Assembler    Page 30 Alphabetic symbol ordering
Relocatable symbols

Comment: BE_9 used once
BE_90 00001922

Symbol: BE_90
   Definitions
      At line 2626 in file test.s
   Uses
      At line 2624 in file test.s
Comment: BE_90 used once
BE_91 00001998

Symbol: BE_91
   Definitions
      At line 2680 in file test.s
   Uses
      At line 2678 in file test.s
Comment: BE_91 used once
BE_92 00001A0E

Symbol: BE_92
   Definitions
      At line 2734 in file test.s
   Uses
      At line 2732 in file test.s
Comment: BE_92 used once
BE_93 00001A84

Symbol: BE_93
   Definitions
      At line 2788 in file test.s
   Uses
      At line 2786 in file test.s
Comment: BE_93 used once
BE_94 00001AFA

Symbol: BE_94
   Definitions
      At line 2842 in file test.s
   Uses
      At line 2840 in file test.s
Comment: BE_94 used once
BE_95 00001C4A

Symbol: BE_95
   Definitions
      At line 2893 in file test.s
   Uses
      At line 2891 in file test.s
Comment: BE_95 used once
BE_96 00001CBE

Symbol: BE_96
   Definitions
      At line 2946 in file test.s
   Uses
      At line 2944 in file test.s
Comment: BE_96 used once
BE_97 00001D32




ARM Macro Assembler    Page 31 Alphabetic symbol ordering
Relocatable symbols

Symbol: BE_97
   Definitions
      At line 2999 in file test.s
   Uses
      At line 2997 in file test.s
Comment: BE_97 used once
BE_98 00001DA6

Symbol: BE_98
   Definitions
      At line 3052 in file test.s
   Uses
      At line 3050 in file test.s
Comment: BE_98 used once
BE_99 00001E1A

Symbol: BE_99
   Definitions
      At line 3105 in file test.s
   Uses
      At line 3103 in file test.s
Comment: BE_99 used once
B_0 00000078

Symbol: B_0
   Definitions
      At line 239 in file test.s
   Uses
      None
Comment: B_0 unused
B_1 000000D6

Symbol: B_1
   Definitions
      At line 286 in file test.s
   Uses
      None
Comment: B_1 unused
B_10 000022CC

Symbol: B_10
   Definitions
      At line 3553 in file test.s
   Uses
      None
Comment: B_10 unused
B_100 00001EE8

Symbol: B_100
   Definitions
      At line 3198 in file test.s
   Uses
      None
Comment: B_100 unused
B_101 00002076

Symbol: B_101
   Definitions
      At line 3278 in file test.s



ARM Macro Assembler    Page 32 Alphabetic symbol ordering
Relocatable symbols

   Uses
      None
Comment: B_101 unused
B_102 000020FC

Symbol: B_102
   Definitions
      At line 3339 in file test.s
   Uses
      None
Comment: B_102 unused
B_103 00002182

Symbol: B_103
   Definitions
      At line 3400 in file test.s
   Uses
      None
Comment: B_103 unused
B_104 0000221E

Symbol: B_104
   Definitions
      At line 3472 in file test.s
   Uses
      None
Comment: B_104 unused
B_105 000022BA

Symbol: B_105
   Definitions
      At line 3544 in file test.s
   Uses
      None
Comment: B_105 unused
B_106 00002340

Symbol: B_106
   Definitions
      At line 3605 in file test.s
   Uses
      None
Comment: B_106 unused
B_107 000024A8

Symbol: B_107
   Definitions
      At line 3667 in file test.s
   Uses
      None
Comment: B_107 unused
B_108 00002544

Symbol: B_108
   Definitions
      At line 3739 in file test.s
   Uses
      None
Comment: B_108 unused



ARM Macro Assembler    Page 33 Alphabetic symbol ordering
Relocatable symbols

B_109 000025E0

Symbol: B_109
   Definitions
      At line 3811 in file test.s
   Uses
      None
Comment: B_109 unused
B_11 00002230

Symbol: B_11
   Definitions
      At line 3481 in file test.s
   Uses
      None
Comment: B_11 unused
B_110 0000264A

Symbol: B_110
   Definitions
      At line 3859 in file test.s
   Uses
      None
Comment: B_110 unused
B_111 000026CA

Symbol: B_111
   Definitions
      At line 3918 in file test.s
   Uses
      None
Comment: B_111 unused
B_12 00002194

Symbol: B_12
   Definitions
      At line 3409 in file test.s
   Uses
      None
Comment: B_12 unused
B_13 0000210E

Symbol: B_13
   Definitions
      At line 3348 in file test.s
   Uses
      None
Comment: B_13 unused
B_14 00002088

Symbol: B_14
   Definitions
      At line 3287 in file test.s
   Uses
      None
Comment: B_14 unused
B_15 00001EFA

Symbol: B_15



ARM Macro Assembler    Page 34 Alphabetic symbol ordering
Relocatable symbols

   Definitions
      At line 3207 in file test.s
   Uses
      None
Comment: B_15 unused
B_16 00001E6E

Symbol: B_16
   Definitions
      At line 3142 in file test.s
   Uses
      None
Comment: B_16 unused
B_17 00001E04

Symbol: B_17
   Definitions
      At line 3094 in file test.s
   Uses
      None
Comment: B_17 unused
B_18 00001D90

Symbol: B_18
   Definitions
      At line 3041 in file test.s
   Uses
      None
Comment: B_18 unused
B_19 00001D1C

Symbol: B_19
   Definitions
      At line 2988 in file test.s
   Uses
      None
Comment: B_19 unused
B_2 00000118

Symbol: B_2
   Definitions
      At line 319 in file test.s
   Uses
      None
Comment: B_2 unused
B_20 00001CA8

Symbol: B_20
   Definitions
      At line 2935 in file test.s
   Uses
      None
Comment: B_20 unused
B_21 00001C34

Symbol: B_21
   Definitions
      At line 2882 in file test.s
   Uses



ARM Macro Assembler    Page 35 Alphabetic symbol ordering
Relocatable symbols

      None
Comment: B_21 unused
B_22 00001AE4

Symbol: B_22
   Definitions
      At line 2831 in file test.s
   Uses
      None
Comment: B_22 unused
B_23 00001A6E

Symbol: B_23
   Definitions
      At line 2777 in file test.s
   Uses
      None
Comment: B_23 unused
B_24 000019F8

Symbol: B_24
   Definitions
      At line 2723 in file test.s
   Uses
      None
Comment: B_24 unused
B_25 00001982

Symbol: B_25
   Definitions
      At line 2669 in file test.s
   Uses
      None
Comment: B_25 unused
B_26 0000190C

Symbol: B_26
   Definitions
      At line 2615 in file test.s
   Uses
      None
Comment: B_26 unused
B_27 00001890

Symbol: B_27
   Definitions
      At line 2559 in file test.s
   Uses
      None
Comment: B_27 unused
B_28 000017E8

Symbol: B_28
   Definitions
      At line 2481 in file test.s
   Uses
      None
Comment: B_28 unused
B_29 0000167A



ARM Macro Assembler    Page 36 Alphabetic symbol ordering
Relocatable symbols


Symbol: B_29
   Definitions
      At line 2419 in file test.s
   Uses
      None
Comment: B_29 unused
B_3 00002714

Symbol: B_3
   Definitions
      At line 3950 in file test.s
   Uses
      None
Comment: B_3 unused
B_30 000015F4

Symbol: B_30
   Definitions
      At line 2358 in file test.s
   Uses
      None
Comment: B_30 unused
B_31 00001558

Symbol: B_31
   Definitions
      At line 2286 in file test.s
   Uses
      None
Comment: B_31 unused
B_32 000014F6

Symbol: B_32
   Definitions
      At line 2239 in file test.s
   Uses
      None
Comment: B_32 unused
B_33 00001486

Symbol: B_33
   Definitions
      At line 2187 in file test.s
   Uses
      None
Comment: B_33 unused
B_34 00001400

Symbol: B_34
   Definitions
      At line 2124 in file test.s
   Uses
      None
Comment: B_34 unused
B_35 00001298

Symbol: B_35
   Definitions



ARM Macro Assembler    Page 37 Alphabetic symbol ordering
Relocatable symbols

      At line 2071 in file test.s
   Uses
      None
Comment: B_35 unused
B_36 00001246

Symbol: B_36
   Definitions
      At line 2031 in file test.s
   Uses
      None
Comment: B_36 unused
B_37 000011CC

Symbol: B_37
   Definitions
      At line 1974 in file test.s
   Uses
      None
Comment: B_37 unused
B_38 00001162

Symbol: B_38
   Definitions
      At line 1924 in file test.s
   Uses
      None
Comment: B_38 unused
B_39 000010FE

Symbol: B_39
   Definitions
      At line 1878 in file test.s
   Uses
      None
Comment: B_39 unused
B_4 000026DC

Symbol: B_4
   Definitions
      At line 3927 in file test.s
   Uses
      None
Comment: B_4 unused
B_40 000010A6

Symbol: B_40
   Definitions
      At line 1836 in file test.s
   Uses
      None
Comment: B_40 unused
B_41 00001038

Symbol: B_41
   Definitions
      At line 1785 in file test.s
   Uses
      None



ARM Macro Assembler    Page 38 Alphabetic symbol ordering
Relocatable symbols

Comment: B_41 unused
B_42 00000FC4

Symbol: B_42
   Definitions
      At line 1730 in file test.s
   Uses
      None
Comment: B_42 unused
B_43 00000E56

Symbol: B_43
   Definitions
      At line 1670 in file test.s
   Uses
      None
Comment: B_43 unused
B_44 00000DFE

Symbol: B_44
   Definitions
      At line 1628 in file test.s
   Uses
      None
Comment: B_44 unused
B_45 00000D9A

Symbol: B_45
   Definitions
      At line 1580 in file test.s
   Uses
      None
Comment: B_45 unused
B_46 00000D3C

Symbol: B_46
   Definitions
      At line 1536 in file test.s
   Uses
      None
Comment: B_46 unused
B_47 00000CC2

Symbol: B_47
   Definitions
      At line 1479 in file test.s
   Uses
      None
Comment: B_47 unused
B_48 00000C48

Symbol: B_48
   Definitions
      At line 1422 in file test.s
   Uses
      None
Comment: B_48 unused
B_49 00000BD4




ARM Macro Assembler    Page 39 Alphabetic symbol ordering
Relocatable symbols

Symbol: B_49
   Definitions
      At line 1367 in file test.s
   Uses
      None
Comment: B_49 unused
B_5 0000265C

Symbol: B_5
   Definitions
      At line 3868 in file test.s
   Uses
      None
Comment: B_5 unused
B_50 00000A7A

Symbol: B_50
   Definitions
      At line 1320 in file test.s
   Uses
      None
Comment: B_50 unused
B_51 00000A28

Symbol: B_51
   Definitions
      At line 1280 in file test.s
   Uses
      None
Comment: B_51 unused
B_52 000009C0

Symbol: B_52
   Definitions
      At line 1231 in file test.s
   Uses
      None
Comment: B_52 unused
B_53 00000952

Symbol: B_53
   Definitions
      At line 1180 in file test.s
   Uses
      None
Comment: B_53 unused
B_54 000008EA

Symbol: B_54
   Definitions
      At line 1131 in file test.s
   Uses
      None
Comment: B_54 unused
B_55 00000870

Symbol: B_55
   Definitions
      At line 1074 in file test.s



ARM Macro Assembler    Page 40 Alphabetic symbol ordering
Relocatable symbols

   Uses
      None
Comment: B_55 unused
B_56 000007F6

Symbol: B_56
   Definitions
      At line 1017 in file test.s
   Uses
      None
Comment: B_56 unused
B_57 00000786

Symbol: B_57
   Definitions
      At line 965 in file test.s
   Uses
      None
Comment: B_57 unused
B_58 00000774

Symbol: B_58
   Definitions
      At line 956 in file test.s
   Uses
      None
Comment: B_58 unused
B_59 000007E4

Symbol: B_59
   Definitions
      At line 1008 in file test.s
   Uses
      None
Comment: B_59 unused
B_6 000025F2

Symbol: B_6
   Definitions
      At line 3820 in file test.s
   Uses
      None
Comment: B_6 unused
B_60 0000085E

Symbol: B_60
   Definitions
      At line 1065 in file test.s
   Uses
      None
Comment: B_60 unused
B_61 000008D8

Symbol: B_61
   Definitions
      At line 1122 in file test.s
   Uses
      None
Comment: B_61 unused



ARM Macro Assembler    Page 41 Alphabetic symbol ordering
Relocatable symbols

B_62 00000940

Symbol: B_62
   Definitions
      At line 1171 in file test.s
   Uses
      None
Comment: B_62 unused
B_63 000009AE

Symbol: B_63
   Definitions
      At line 1222 in file test.s
   Uses
      None
Comment: B_63 unused
B_64 00000A16

Symbol: B_64
   Definitions
      At line 1271 in file test.s
   Uses
      None
Comment: B_64 unused
B_65 00000A68

Symbol: B_65
   Definitions
      At line 1311 in file test.s
   Uses
      None
Comment: B_65 unused
B_66 00000BC2

Symbol: B_66
   Definitions
      At line 1358 in file test.s
   Uses
      None
Comment: B_66 unused
B_67 00000C36

Symbol: B_67
   Definitions
      At line 1413 in file test.s
   Uses
      None
Comment: B_67 unused
B_68 00000CB0

Symbol: B_68
   Definitions
      At line 1470 in file test.s
   Uses
      None
Comment: B_68 unused
B_69 00000D2A

Symbol: B_69



ARM Macro Assembler    Page 42 Alphabetic symbol ordering
Relocatable symbols

   Definitions
      At line 1527 in file test.s
   Uses
      None
Comment: B_69 unused
B_7 00002556

Symbol: B_7
   Definitions
      At line 3748 in file test.s
   Uses
      None
Comment: B_7 unused
B_70 00000D88

Symbol: B_70
   Definitions
      At line 1571 in file test.s
   Uses
      None
Comment: B_70 unused
B_71 00000DEC

Symbol: B_71
   Definitions
      At line 1619 in file test.s
   Uses
      None
Comment: B_71 unused
B_72 00000E44

Symbol: B_72
   Definitions
      At line 1661 in file test.s
   Uses
      None
Comment: B_72 unused
B_73 00000FB2

Symbol: B_73
   Definitions
      At line 1721 in file test.s
   Uses
      None
Comment: B_73 unused
B_74 00001026

Symbol: B_74
   Definitions
      At line 1776 in file test.s
   Uses
      None
Comment: B_74 unused
B_75 00001094

Symbol: B_75
   Definitions
      At line 1827 in file test.s
   Uses



ARM Macro Assembler    Page 43 Alphabetic symbol ordering
Relocatable symbols

      None
Comment: B_75 unused
B_76 000010EC

Symbol: B_76
   Definitions
      At line 1869 in file test.s
   Uses
      None
Comment: B_76 unused
B_77 00001150

Symbol: B_77
   Definitions
      At line 1915 in file test.s
   Uses
      None
Comment: B_77 unused
B_78 000011BA

Symbol: B_78
   Definitions
      At line 1965 in file test.s
   Uses
      None
Comment: B_78 unused
B_79 00001234

Symbol: B_79
   Definitions
      At line 2022 in file test.s
   Uses
      None
Comment: B_79 unused
B_8 000024BA

Symbol: B_8
   Definitions
      At line 3676 in file test.s
   Uses
      None
Comment: B_8 unused
B_80 00001286

Symbol: B_80
   Definitions
      At line 2062 in file test.s
   Uses
      None
Comment: B_80 unused
B_81 000013EE

Symbol: B_81
   Definitions
      At line 2115 in file test.s
   Uses
      None
Comment: B_81 unused
B_82 00001474



ARM Macro Assembler    Page 44 Alphabetic symbol ordering
Relocatable symbols


Symbol: B_82
   Definitions
      At line 2178 in file test.s
   Uses
      None
Comment: B_82 unused
B_83 000014E4

Symbol: B_83
   Definitions
      At line 2230 in file test.s
   Uses
      None
Comment: B_83 unused
B_84 00001546

Symbol: B_84
   Definitions
      At line 2277 in file test.s
   Uses
      None
Comment: B_84 unused
B_85 000015E2

Symbol: B_85
   Definitions
      At line 2349 in file test.s
   Uses
      None
Comment: B_85 unused
B_86 00001668

Symbol: B_86
   Definitions
      At line 2410 in file test.s
   Uses
      None
Comment: B_86 unused
B_87 000016E8

Symbol: B_87
   Definitions
      At line 2469 in file test.s
   Uses
      None
Comment: B_87 unused
B_88 0000187E

Symbol: B_88
   Definitions
      At line 2550 in file test.s
   Uses
      None
Comment: B_88 unused
B_89 000018FA

Symbol: B_89
   Definitions



ARM Macro Assembler    Page 45 Alphabetic symbol ordering
Relocatable symbols

      At line 2606 in file test.s
   Uses
      None
Comment: B_89 unused
B_9 00002352

Symbol: B_9
   Definitions
      At line 3614 in file test.s
   Uses
      None
Comment: B_9 unused
B_90 00001970

Symbol: B_90
   Definitions
      At line 2660 in file test.s
   Uses
      None
Comment: B_90 unused
B_91 000019E6

Symbol: B_91
   Definitions
      At line 2714 in file test.s
   Uses
      None
Comment: B_91 unused
B_92 00001A5C

Symbol: B_92
   Definitions
      At line 2768 in file test.s
   Uses
      None
Comment: B_92 unused
B_93 00001AD2

Symbol: B_93
   Definitions
      At line 2822 in file test.s
   Uses
      None
Comment: B_93 unused
B_94 00001C22

Symbol: B_94
   Definitions
      At line 2873 in file test.s
   Uses
      None
Comment: B_94 unused
B_95 00001C96

Symbol: B_95
   Definitions
      At line 2926 in file test.s
   Uses
      None



ARM Macro Assembler    Page 46 Alphabetic symbol ordering
Relocatable symbols

Comment: B_95 unused
B_96 00001D0A

Symbol: B_96
   Definitions
      At line 2979 in file test.s
   Uses
      None
Comment: B_96 unused
B_97 00001D7E

Symbol: B_97
   Definitions
      At line 3032 in file test.s
   Uses
      None
Comment: B_97 unused
B_98 00001DF2

Symbol: B_98
   Definitions
      At line 3085 in file test.s
   Uses
      None
Comment: B_98 unused
B_99 00001E5C

Symbol: B_99
   Definitions
      At line 3133 in file test.s
   Uses
      None
Comment: B_99 unused
C_0 0000002C

Symbol: C_0
   Definitions
      At line 201 in file test.s
   Uses
      At line 198 in file test.s
Comment: C_0 used once
C_1 0000004A

Symbol: C_1
   Definitions
      At line 216 in file test.s
   Uses
      At line 213 in file test.s
Comment: C_1 used once
C_10 0000010E

Symbol: C_10
   Definitions
      At line 314 in file test.s
   Uses
      At line 311 in file test.s
Comment: C_10 used once
C_100 00000FFA




ARM Macro Assembler    Page 47 Alphabetic symbol ordering
Relocatable symbols

Symbol: C_100
   Definitions
      At line 1756 in file test.s
   Uses
      At line 1753 in file test.s
Comment: C_100 used once
C_101 0000100A

Symbol: C_101
   Definitions
      At line 1763 in file test.s
   Uses
      At line 1760 in file test.s
Comment: C_101 used once
C_102 0000101C

Symbol: C_102
   Definitions
      At line 1771 in file test.s
   Uses
      At line 1768 in file test.s
Comment: C_102 used once
C_103 00001034

Symbol: C_103
   Definitions
      At line 1783 in file test.s
   Uses
      At line 1780 in file test.s
Comment: C_103 used once
C_104 00001044

Symbol: C_104
   Definitions
      At line 1791 in file test.s
   Uses
      At line 1788 in file test.s
Comment: C_104 used once
C_105 0000105C

Symbol: C_105
   Definitions
      At line 1803 in file test.s
   Uses
      At line 1800 in file test.s
Comment: C_105 used once
C_106 0000106C

Symbol: C_106
   Definitions
      At line 1810 in file test.s
   Uses
      At line 1807 in file test.s
Comment: C_106 used once
C_107 0000108A

Symbol: C_107
   Definitions
      At line 1822 in file test.s



ARM Macro Assembler    Page 48 Alphabetic symbol ordering
Relocatable symbols

   Uses
      At line 1819 in file test.s
Comment: C_107 used once
C_108 000010A2

Symbol: C_108
   Definitions
      At line 1834 in file test.s
   Uses
      At line 1831 in file test.s
Comment: C_108 used once
C_109 000010B2

Symbol: C_109
   Definitions
      At line 1842 in file test.s
   Uses
      At line 1839 in file test.s
Comment: C_109 used once
C_11 00000126

Symbol: C_11
   Definitions
      At line 326 in file test.s
   Uses
      At line 323 in file test.s
Comment: C_11 used once
C_110 000010CA

Symbol: C_110
   Definitions
      At line 1854 in file test.s
   Uses
      At line 1851 in file test.s
Comment: C_110 used once
C_111 000010E2

Symbol: C_111
   Definitions
      At line 1864 in file test.s
   Uses
      At line 1861 in file test.s
Comment: C_111 used once
C_112 000010FA

Symbol: C_112
   Definitions
      At line 1876 in file test.s
   Uses
      At line 1873 in file test.s
Comment: C_112 used once
C_113 0000110A

Symbol: C_113
   Definitions
      At line 1884 in file test.s
   Uses
      At line 1881 in file test.s
Comment: C_113 used once



ARM Macro Assembler    Page 49 Alphabetic symbol ordering
Relocatable symbols

C_114 00001122

Symbol: C_114
   Definitions
      At line 1896 in file test.s
   Uses
      At line 1893 in file test.s
Comment: C_114 used once
C_115 00001146

Symbol: C_115
   Definitions
      At line 1910 in file test.s
   Uses
      At line 1907 in file test.s
Comment: C_115 used once
C_116 0000115E

Symbol: C_116
   Definitions
      At line 1922 in file test.s
   Uses
      At line 1919 in file test.s
Comment: C_116 used once
C_117 0000116E

Symbol: C_117
   Definitions
      At line 1930 in file test.s
   Uses
      At line 1927 in file test.s
Comment: C_117 used once
C_118 00001186

Symbol: C_118
   Definitions
      At line 1942 in file test.s
   Uses
      At line 1939 in file test.s
Comment: C_118 used once
C_119 0000119E

Symbol: C_119
   Definitions
      At line 1952 in file test.s
   Uses
      At line 1949 in file test.s
Comment: C_119 used once
C_12 00000154

Symbol: C_12
   Definitions
      At line 345 in file test.s
   Uses
      At line 342 in file test.s
Comment: C_12 used once
C_120 000011B0

Symbol: C_120



ARM Macro Assembler    Page 50 Alphabetic symbol ordering
Relocatable symbols

   Definitions
      At line 1960 in file test.s
   Uses
      At line 1957 in file test.s
Comment: C_120 used once
C_121 000011C8

Symbol: C_121
   Definitions
      At line 1972 in file test.s
   Uses
      At line 1969 in file test.s
Comment: C_121 used once
C_122 000011D8

Symbol: C_122
   Definitions
      At line 1980 in file test.s
   Uses
      At line 1977 in file test.s
Comment: C_122 used once
C_123 000011F0

Symbol: C_123
   Definitions
      At line 1992 in file test.s
   Uses
      At line 1989 in file test.s
Comment: C_123 used once
C_124 00001206

Symbol: C_124
   Definitions
      At line 2001 in file test.s
   Uses
      At line 1998 in file test.s
Comment: C_124 used once
C_125 00001218

Symbol: C_125
   Definitions
      At line 2009 in file test.s
   Uses
      At line 2006 in file test.s
Comment: C_125 used once
C_126 0000122A

Symbol: C_126
   Definitions
      At line 2017 in file test.s
   Uses
      At line 2014 in file test.s
Comment: C_126 used once
C_127 00001242

Symbol: C_127
   Definitions
      At line 2029 in file test.s
   Uses



ARM Macro Assembler    Page 51 Alphabetic symbol ordering
Relocatable symbols

      At line 2026 in file test.s
Comment: C_127 used once
C_128 00001252

Symbol: C_128
   Definitions
      At line 2037 in file test.s
   Uses
      At line 2034 in file test.s
Comment: C_128 used once
C_129 0000126A

Symbol: C_129
   Definitions
      At line 2049 in file test.s
   Uses
      At line 2046 in file test.s
Comment: C_129 used once
C_13 00000166

Symbol: C_13
   Definitions
      At line 354 in file test.s
   Uses
      At line 351 in file test.s
Comment: C_13 used once
C_130 0000127C

Symbol: C_130
   Definitions
      At line 2057 in file test.s
   Uses
      At line 2054 in file test.s
Comment: C_130 used once
C_131 00001294

Symbol: C_131
   Definitions
      At line 2069 in file test.s
   Uses
      At line 2066 in file test.s
Comment: C_131 used once
C_132 000012A4

Symbol: C_132
   Definitions
      At line 2077 in file test.s
   Uses
      At line 2074 in file test.s
Comment: C_132 used once
C_133 000012BC

Symbol: C_133
   Definitions
      At line 2089 in file test.s
   Uses
      At line 2086 in file test.s
Comment: C_133 used once
C_134 000012CE



ARM Macro Assembler    Page 52 Alphabetic symbol ordering
Relocatable symbols


Symbol: C_134
   Definitions
      At line 2097 in file test.s
   Uses
      At line 2094 in file test.s
Comment: C_134 used once
C_135 000013E4

Symbol: C_135
   Definitions
      At line 2110 in file test.s
   Uses
      At line 2107 in file test.s
Comment: C_135 used once
C_136 000013FC

Symbol: C_136
   Definitions
      At line 2122 in file test.s
   Uses
      At line 2119 in file test.s
Comment: C_136 used once
C_137 0000140C

Symbol: C_137
   Definitions
      At line 2130 in file test.s
   Uses
      At line 2127 in file test.s
Comment: C_137 used once
C_138 00001424

Symbol: C_138
   Definitions
      At line 2142 in file test.s
   Uses
      At line 2139 in file test.s
Comment: C_138 used once
C_139 00001436

Symbol: C_139
   Definitions
      At line 2150 in file test.s
   Uses
      At line 2147 in file test.s
Comment: C_139 used once
C_14 00000660

Symbol: C_14
   Definitions
      At line 902 in file test.s
   Uses
      At line 899 in file test.s
Comment: C_14 used once
C_140 00001446

Symbol: C_140
   Definitions



ARM Macro Assembler    Page 53 Alphabetic symbol ordering
Relocatable symbols

      At line 2157 in file test.s
   Uses
      At line 2154 in file test.s
Comment: C_140 used once
C_141 00001458

Symbol: C_141
   Definitions
      At line 2165 in file test.s
   Uses
      At line 2162 in file test.s
Comment: C_141 used once
C_142 0000146A

Symbol: C_142
   Definitions
      At line 2173 in file test.s
   Uses
      At line 2170 in file test.s
Comment: C_142 used once
C_143 00001482

Symbol: C_143
   Definitions
      At line 2185 in file test.s
   Uses
      At line 2182 in file test.s
Comment: C_143 used once
C_144 00001492

Symbol: C_144
   Definitions
      At line 2193 in file test.s
   Uses
      At line 2190 in file test.s
Comment: C_144 used once
C_145 000014AA

Symbol: C_145
   Definitions
      At line 2205 in file test.s
   Uses
      At line 2202 in file test.s
Comment: C_145 used once
C_146 000014BC

Symbol: C_146
   Definitions
      At line 2213 in file test.s
   Uses
      At line 2210 in file test.s
Comment: C_146 used once
C_147 000014DA

Symbol: C_147
   Definitions
      At line 2225 in file test.s
   Uses
      At line 2222 in file test.s



ARM Macro Assembler    Page 54 Alphabetic symbol ordering
Relocatable symbols

Comment: C_147 used once
C_148 000014F2

Symbol: C_148
   Definitions
      At line 2237 in file test.s
   Uses
      At line 2234 in file test.s
Comment: C_148 used once
C_149 00001502

Symbol: C_149
   Definitions
      At line 2245 in file test.s
   Uses
      At line 2242 in file test.s
Comment: C_149 used once
C_15 00000678

Symbol: C_15
   Definitions
      At line 914 in file test.s
   Uses
      At line 911 in file test.s
Comment: C_15 used once
C_150 0000151A

Symbol: C_150
   Definitions
      At line 2257 in file test.s
   Uses
      At line 2254 in file test.s
Comment: C_150 used once
C_151 0000152A

Symbol: C_151
   Definitions
      At line 2264 in file test.s
   Uses
      At line 2261 in file test.s
Comment: C_151 used once
C_152 0000153C

Symbol: C_152
   Definitions
      At line 2272 in file test.s
   Uses
      At line 2269 in file test.s
Comment: C_152 used once
C_153 00001554

Symbol: C_153
   Definitions
      At line 2284 in file test.s
   Uses
      At line 2281 in file test.s
Comment: C_153 used once
C_154 00001564




ARM Macro Assembler    Page 55 Alphabetic symbol ordering
Relocatable symbols

Symbol: C_154
   Definitions
      At line 2292 in file test.s
   Uses
      At line 2289 in file test.s
Comment: C_154 used once
C_155 0000157C

Symbol: C_155
   Definitions
      At line 2304 in file test.s
   Uses
      At line 2301 in file test.s
Comment: C_155 used once
C_156 0000158C

Symbol: C_156
   Definitions
      At line 2311 in file test.s
   Uses
      At line 2308 in file test.s
Comment: C_156 used once
C_157 000015A4

Symbol: C_157
   Definitions
      At line 2321 in file test.s
   Uses
      At line 2318 in file test.s
Comment: C_157 used once
C_158 000015B4

Symbol: C_158
   Definitions
      At line 2328 in file test.s
   Uses
      At line 2325 in file test.s
Comment: C_158 used once
C_159 000015C6

Symbol: C_159
   Definitions
      At line 2336 in file test.s
   Uses
      At line 2333 in file test.s
Comment: C_159 used once
C_16 0000068E

Symbol: C_16
   Definitions
      At line 923 in file test.s
   Uses
      At line 920 in file test.s
Comment: C_16 used once
C_160 000015D8

Symbol: C_160
   Definitions
      At line 2344 in file test.s



ARM Macro Assembler    Page 56 Alphabetic symbol ordering
Relocatable symbols

   Uses
      At line 2341 in file test.s
Comment: C_160 used once
C_161 000015F0

Symbol: C_161
   Definitions
      At line 2356 in file test.s
   Uses
      At line 2353 in file test.s
Comment: C_161 used once
C_162 00001600

Symbol: C_162
   Definitions
      At line 2364 in file test.s
   Uses
      At line 2361 in file test.s
Comment: C_162 used once
C_163 00001618

Symbol: C_163
   Definitions
      At line 2376 in file test.s
   Uses
      At line 2373 in file test.s
Comment: C_163 used once
C_164 0000162E

Symbol: C_164
   Definitions
      At line 2385 in file test.s
   Uses
      At line 2382 in file test.s
Comment: C_164 used once
C_165 00001646

Symbol: C_165
   Definitions
      At line 2395 in file test.s
   Uses
      At line 2392 in file test.s
Comment: C_165 used once
C_166 0000165E

Symbol: C_166
   Definitions
      At line 2405 in file test.s
   Uses
      At line 2402 in file test.s
Comment: C_166 used once
C_167 00001676

Symbol: C_167
   Definitions
      At line 2417 in file test.s
   Uses
      At line 2414 in file test.s
Comment: C_167 used once



ARM Macro Assembler    Page 57 Alphabetic symbol ordering
Relocatable symbols

C_168 00001686

Symbol: C_168
   Definitions
      At line 2425 in file test.s
   Uses
      At line 2422 in file test.s
Comment: C_168 used once
C_169 0000169E

Symbol: C_169
   Definitions
      At line 2437 in file test.s
   Uses
      At line 2434 in file test.s
Comment: C_169 used once
C_17 000006A6

Symbol: C_17
   Definitions
      At line 933 in file test.s
   Uses
      At line 930 in file test.s
Comment: C_17 used once
C_170 000016B0

Symbol: C_170
   Definitions
      At line 2445 in file test.s
   Uses
      At line 2442 in file test.s
Comment: C_170 used once
C_171 000016CC

Symbol: C_171
   Definitions
      At line 2456 in file test.s
   Uses
      At line 2453 in file test.s
Comment: C_171 used once
C_172 000016DE

Symbol: C_172
   Definitions
      At line 2464 in file test.s
   Uses
      At line 2461 in file test.s
Comment: C_172 used once
C_173 000016F6

Symbol: C_173
   Definitions
      At line 2476 in file test.s
   Uses
      At line 2473 in file test.s
Comment: C_173 used once
C_174 000017F4

Symbol: C_174



ARM Macro Assembler    Page 58 Alphabetic symbol ordering
Relocatable symbols

   Definitions
      At line 2487 in file test.s
   Uses
      At line 2484 in file test.s
Comment: C_174 used once
C_175 0000180C

Symbol: C_175
   Definitions
      At line 2499 in file test.s
   Uses
      At line 2496 in file test.s
Comment: C_175 used once
C_176 0000181E

Symbol: C_176
   Definitions
      At line 2507 in file test.s
   Uses
      At line 2504 in file test.s
Comment: C_176 used once
C_177 0000182E

Symbol: C_177
   Definitions
      At line 2514 in file test.s
   Uses
      At line 2511 in file test.s
Comment: C_177 used once
C_178 00001840

Symbol: C_178
   Definitions
      At line 2522 in file test.s
   Uses
      At line 2519 in file test.s
Comment: C_178 used once
C_179 00001850

Symbol: C_179
   Definitions
      At line 2529 in file test.s
   Uses
      At line 2526 in file test.s
Comment: C_179 used once
C_18 000006B6

Symbol: C_18
   Definitions
      At line 940 in file test.s
   Uses
      At line 937 in file test.s
Comment: C_18 used once
C_180 00001862

Symbol: C_180
   Definitions
      At line 2537 in file test.s
   Uses



ARM Macro Assembler    Page 59 Alphabetic symbol ordering
Relocatable symbols

      At line 2534 in file test.s
Comment: C_180 used once
C_181 00001874

Symbol: C_181
   Definitions
      At line 2545 in file test.s
   Uses
      At line 2542 in file test.s
Comment: C_181 used once
C_182 0000188C

Symbol: C_182
   Definitions
      At line 2557 in file test.s
   Uses
      At line 2554 in file test.s
Comment: C_182 used once
C_183 0000189C

Symbol: C_183
   Definitions
      At line 2565 in file test.s
   Uses
      At line 2562 in file test.s
Comment: C_183 used once
C_184 000018B4

Symbol: C_184
   Definitions
      At line 2577 in file test.s
   Uses
      At line 2574 in file test.s
Comment: C_184 used once
C_185 000018D2

Symbol: C_185
   Definitions
      At line 2589 in file test.s
   Uses
      At line 2586 in file test.s
Comment: C_185 used once
C_186 000018F0

Symbol: C_186
   Definitions
      At line 2601 in file test.s
   Uses
      At line 2598 in file test.s
Comment: C_186 used once
C_187 00001908

Symbol: C_187
   Definitions
      At line 2613 in file test.s
   Uses
      At line 2610 in file test.s
Comment: C_187 used once
C_188 00001918



ARM Macro Assembler    Page 60 Alphabetic symbol ordering
Relocatable symbols


Symbol: C_188
   Definitions
      At line 2621 in file test.s
   Uses
      At line 2618 in file test.s
Comment: C_188 used once
C_189 00001930

Symbol: C_189
   Definitions
      At line 2633 in file test.s
   Uses
      At line 2630 in file test.s
Comment: C_189 used once
C_19 000006C8

Symbol: C_19
   Definitions
      At line 948 in file test.s
   Uses
      At line 945 in file test.s
Comment: C_19 used once
C_190 00001954

Symbol: C_190
   Definitions
      At line 2647 in file test.s
   Uses
      At line 2644 in file test.s
Comment: C_190 used once
C_191 00001966

Symbol: C_191
   Definitions
      At line 2655 in file test.s
   Uses
      At line 2652 in file test.s
Comment: C_191 used once
C_192 0000197E

Symbol: C_192
   Definitions
      At line 2667 in file test.s
   Uses
      At line 2664 in file test.s
Comment: C_192 used once
C_193 0000198E

Symbol: C_193
   Definitions
      At line 2675 in file test.s
   Uses
      At line 2672 in file test.s
Comment: C_193 used once
C_194 000019A6

Symbol: C_194
   Definitions



ARM Macro Assembler    Page 61 Alphabetic symbol ordering
Relocatable symbols

      At line 2687 in file test.s
   Uses
      At line 2684 in file test.s
Comment: C_194 used once
C_195 000019C4

Symbol: C_195
   Definitions
      At line 2699 in file test.s
   Uses
      At line 2696 in file test.s
Comment: C_195 used once
C_196 000019DC

Symbol: C_196
   Definitions
      At line 2709 in file test.s
   Uses
      At line 2706 in file test.s
Comment: C_196 used once
C_197 000019F4

Symbol: C_197
   Definitions
      At line 2721 in file test.s
   Uses
      At line 2718 in file test.s
Comment: C_197 used once
C_198 00001A04

Symbol: C_198
   Definitions
      At line 2729 in file test.s
   Uses
      At line 2726 in file test.s
Comment: C_198 used once
C_199 00001A1C

Symbol: C_199
   Definitions
      At line 2741 in file test.s
   Uses
      At line 2738 in file test.s
Comment: C_199 used once
C_2 0000005C

Symbol: C_2
   Definitions
      At line 225 in file test.s
   Uses
      At line 222 in file test.s
Comment: C_2 used once
C_20 00000782

Symbol: C_20
   Definitions
      At line 963 in file test.s
   Uses
      At line 960 in file test.s



ARM Macro Assembler    Page 62 Alphabetic symbol ordering
Relocatable symbols

Comment: C_20 used once
C_200 00001A34

Symbol: C_200
   Definitions
      At line 2751 in file test.s
   Uses
      At line 2748 in file test.s
Comment: C_200 used once
C_201 00001A52

Symbol: C_201
   Definitions
      At line 2763 in file test.s
   Uses
      At line 2760 in file test.s
Comment: C_201 used once
C_202 00001A6A

Symbol: C_202
   Definitions
      At line 2775 in file test.s
   Uses
      At line 2772 in file test.s
Comment: C_202 used once
C_203 00001A7A

Symbol: C_203
   Definitions
      At line 2783 in file test.s
   Uses
      At line 2780 in file test.s
Comment: C_203 used once
C_204 00001A92

Symbol: C_204
   Definitions
      At line 2795 in file test.s
   Uses
      At line 2792 in file test.s
Comment: C_204 used once
C_205 00001AA4

Symbol: C_205
   Definitions
      At line 2803 in file test.s
   Uses
      At line 2800 in file test.s
Comment: C_205 used once
C_206 00001AC8

Symbol: C_206
   Definitions
      At line 2817 in file test.s
   Uses
      At line 2814 in file test.s
Comment: C_206 used once
C_207 00001AE0




ARM Macro Assembler    Page 63 Alphabetic symbol ordering
Relocatable symbols

Symbol: C_207
   Definitions
      At line 2829 in file test.s
   Uses
      At line 2826 in file test.s
Comment: C_207 used once
C_208 00001AF0

Symbol: C_208
   Definitions
      At line 2837 in file test.s
   Uses
      At line 2834 in file test.s
Comment: C_208 used once
C_209 00001B08

Symbol: C_209
   Definitions
      At line 2849 in file test.s
   Uses
      At line 2846 in file test.s
Comment: C_209 used once
C_21 00000792

Symbol: C_21
   Definitions
      At line 971 in file test.s
   Uses
      At line 968 in file test.s
Comment: C_21 used once
C_210 00001C18

Symbol: C_210
   Definitions
      At line 2868 in file test.s
   Uses
      At line 2865 in file test.s
Comment: C_210 used once
C_211 00001C30

Symbol: C_211
   Definitions
      At line 2880 in file test.s
   Uses
      At line 2877 in file test.s
Comment: C_211 used once
C_212 00001C40

Symbol: C_212
   Definitions
      At line 2888 in file test.s
   Uses
      At line 2885 in file test.s
Comment: C_212 used once
C_213 00001C58

Symbol: C_213
   Definitions
      At line 2900 in file test.s



ARM Macro Assembler    Page 64 Alphabetic symbol ordering
Relocatable symbols

   Uses
      At line 2897 in file test.s
Comment: C_213 used once
C_214 00001C7A

Symbol: C_214
   Definitions
      At line 2913 in file test.s
   Uses
      At line 2910 in file test.s
Comment: C_214 used once
C_215 00001C8C

Symbol: C_215
   Definitions
      At line 2921 in file test.s
   Uses
      At line 2918 in file test.s
Comment: C_215 used once
C_216 00001CA4

Symbol: C_216
   Definitions
      At line 2933 in file test.s
   Uses
      At line 2930 in file test.s
Comment: C_216 used once
C_217 00001CB4

Symbol: C_217
   Definitions
      At line 2941 in file test.s
   Uses
      At line 2938 in file test.s
Comment: C_217 used once
C_218 00001CCC

Symbol: C_218
   Definitions
      At line 2953 in file test.s
   Uses
      At line 2950 in file test.s
Comment: C_218 used once
C_219 00001CE8

Symbol: C_219
   Definitions
      At line 2964 in file test.s
   Uses
      At line 2961 in file test.s
Comment: C_219 used once
C_22 000007AA

Symbol: C_22
   Definitions
      At line 983 in file test.s
   Uses
      At line 980 in file test.s
Comment: C_22 used once



ARM Macro Assembler    Page 65 Alphabetic symbol ordering
Relocatable symbols

C_220 00001D00

Symbol: C_220
   Definitions
      At line 2974 in file test.s
   Uses
      At line 2971 in file test.s
Comment: C_220 used once
C_221 00001D18

Symbol: C_221
   Definitions
      At line 2986 in file test.s
   Uses
      At line 2983 in file test.s
Comment: C_221 used once
C_222 00001D28

Symbol: C_222
   Definitions
      At line 2994 in file test.s
   Uses
      At line 2991 in file test.s
Comment: C_222 used once
C_223 00001D40

Symbol: C_223
   Definitions
      At line 3006 in file test.s
   Uses
      At line 3003 in file test.s
Comment: C_223 used once
C_224 00001D56

Symbol: C_224
   Definitions
      At line 3015 in file test.s
   Uses
      At line 3012 in file test.s
Comment: C_224 used once
C_225 00001D74

Symbol: C_225
   Definitions
      At line 3027 in file test.s
   Uses
      At line 3024 in file test.s
Comment: C_225 used once
C_226 00001D8C

Symbol: C_226
   Definitions
      At line 3039 in file test.s
   Uses
      At line 3036 in file test.s
Comment: C_226 used once
C_227 00001D9C

Symbol: C_227



ARM Macro Assembler    Page 66 Alphabetic symbol ordering
Relocatable symbols

   Definitions
      At line 3047 in file test.s
   Uses
      At line 3044 in file test.s
Comment: C_227 used once
C_228 00001DB4

Symbol: C_228
   Definitions
      At line 3059 in file test.s
   Uses
      At line 3056 in file test.s
Comment: C_228 used once
C_229 00001DC4

Symbol: C_229
   Definitions
      At line 3066 in file test.s
   Uses
      At line 3063 in file test.s
Comment: C_229 used once
C_23 000007C2

Symbol: C_23
   Definitions
      At line 993 in file test.s
   Uses
      At line 990 in file test.s
Comment: C_23 used once
C_230 00001DE8

Symbol: C_230
   Definitions
      At line 3080 in file test.s
   Uses
      At line 3077 in file test.s
Comment: C_230 used once
C_231 00001E00

Symbol: C_231
   Definitions
      At line 3092 in file test.s
   Uses
      At line 3089 in file test.s
Comment: C_231 used once
C_232 00001E10

Symbol: C_232
   Definitions
      At line 3100 in file test.s
   Uses
      At line 3097 in file test.s
Comment: C_232 used once
C_233 00001E28

Symbol: C_233
   Definitions
      At line 3112 in file test.s
   Uses



ARM Macro Assembler    Page 67 Alphabetic symbol ordering
Relocatable symbols

      At line 3109 in file test.s
Comment: C_233 used once
C_234 00001E52

Symbol: C_234
   Definitions
      At line 3128 in file test.s
   Uses
      At line 3125 in file test.s
Comment: C_234 used once
C_235 00001E6A

Symbol: C_235
   Definitions
      At line 3140 in file test.s
   Uses
      At line 3137 in file test.s
Comment: C_235 used once
C_236 00001E7A

Symbol: C_236
   Definitions
      At line 3148 in file test.s
   Uses
      At line 3145 in file test.s
Comment: C_236 used once
C_237 00001E92

Symbol: C_237
   Definitions
      At line 3160 in file test.s
   Uses
      At line 3157 in file test.s
Comment: C_237 used once
C_238 00001EA4

Symbol: C_238
   Definitions
      At line 3168 in file test.s
   Uses
      At line 3165 in file test.s
Comment: C_238 used once
C_239 00001EBA

Symbol: C_239
   Definitions
      At line 3177 in file test.s
   Uses
      At line 3174 in file test.s
Comment: C_239 used once
C_24 000007DA

Symbol: C_24
   Definitions
      At line 1003 in file test.s
   Uses
      At line 1000 in file test.s
Comment: C_24 used once
C_240 00001ECC



ARM Macro Assembler    Page 68 Alphabetic symbol ordering
Relocatable symbols


Symbol: C_240
   Definitions
      At line 3185 in file test.s
   Uses
      At line 3182 in file test.s
Comment: C_240 used once
C_241 00001EDE

Symbol: C_241
   Definitions
      At line 3193 in file test.s
   Uses
      At line 3190 in file test.s
Comment: C_241 used once
C_242 00001EF6

Symbol: C_242
   Definitions
      At line 3205 in file test.s
   Uses
      At line 3202 in file test.s
Comment: C_242 used once
C_243 00001F06

Symbol: C_243
   Definitions
      At line 3213 in file test.s
   Uses
      At line 3210 in file test.s
Comment: C_243 used once
C_244 00001F1E

Symbol: C_244
   Definitions
      At line 3225 in file test.s
   Uses
      At line 3222 in file test.s
Comment: C_244 used once
C_245 00001F2E

Symbol: C_245
   Definitions
      At line 3232 in file test.s
   Uses
      At line 3229 in file test.s
Comment: C_245 used once
C_246 00002028

Symbol: C_246
   Definitions
      At line 3243 in file test.s
   Uses
      At line 3240 in file test.s
Comment: C_246 used once
C_247 00002038

Symbol: C_247
   Definitions



ARM Macro Assembler    Page 69 Alphabetic symbol ordering
Relocatable symbols

      At line 3250 in file test.s
   Uses
      At line 3247 in file test.s
Comment: C_247 used once
C_248 0000204A

Symbol: C_248
   Definitions
      At line 3258 in file test.s
   Uses
      At line 3255 in file test.s
Comment: C_248 used once
C_249 0000205A

Symbol: C_249
   Definitions
      At line 3265 in file test.s
   Uses
      At line 3262 in file test.s
Comment: C_249 used once
C_25 000007F2

Symbol: C_25
   Definitions
      At line 1015 in file test.s
   Uses
      At line 1012 in file test.s
Comment: C_25 used once
C_250 0000206C

Symbol: C_250
   Definitions
      At line 3273 in file test.s
   Uses
      At line 3270 in file test.s
Comment: C_250 used once
C_251 00002084

Symbol: C_251
   Definitions
      At line 3285 in file test.s
   Uses
      At line 3282 in file test.s
Comment: C_251 used once
C_252 00002094

Symbol: C_252
   Definitions
      At line 3293 in file test.s
   Uses
      At line 3290 in file test.s
Comment: C_252 used once
C_253 000020AC

Symbol: C_253
   Definitions
      At line 3305 in file test.s
   Uses
      At line 3302 in file test.s



ARM Macro Assembler    Page 70 Alphabetic symbol ordering
Relocatable symbols

Comment: C_253 used once
C_254 000020BE

Symbol: C_254
   Definitions
      At line 3313 in file test.s
   Uses
      At line 3310 in file test.s
Comment: C_254 used once
C_255 000020E0

Symbol: C_255
   Definitions
      At line 3326 in file test.s
   Uses
      At line 3323 in file test.s
Comment: C_255 used once
C_256 000020F2

Symbol: C_256
   Definitions
      At line 3334 in file test.s
   Uses
      At line 3331 in file test.s
Comment: C_256 used once
C_257 0000210A

Symbol: C_257
   Definitions
      At line 3346 in file test.s
   Uses
      At line 3343 in file test.s
Comment: C_257 used once
C_258 0000211A

Symbol: C_258
   Definitions
      At line 3354 in file test.s
   Uses
      At line 3351 in file test.s
Comment: C_258 used once
C_259 00002132

Symbol: C_259
   Definitions
      At line 3366 in file test.s
   Uses
      At line 3363 in file test.s
Comment: C_259 used once
C_26 00000802

Symbol: C_26
   Definitions
      At line 1023 in file test.s
   Uses
      At line 1020 in file test.s
Comment: C_26 used once
C_260 0000214A




ARM Macro Assembler    Page 71 Alphabetic symbol ordering
Relocatable symbols

Symbol: C_260
   Definitions
      At line 3376 in file test.s
   Uses
      At line 3373 in file test.s
Comment: C_260 used once
C_261 00002160

Symbol: C_261
   Definitions
      At line 3385 in file test.s
   Uses
      At line 3382 in file test.s
Comment: C_261 used once
C_262 00002178

Symbol: C_262
   Definitions
      At line 3395 in file test.s
   Uses
      At line 3392 in file test.s
Comment: C_262 used once
C_263 00002190

Symbol: C_263
   Definitions
      At line 3407 in file test.s
   Uses
      At line 3404 in file test.s
Comment: C_263 used once
C_264 000021A0

Symbol: C_264
   Definitions
      At line 3415 in file test.s
   Uses
      At line 3412 in file test.s
Comment: C_264 used once
C_265 000021B8

Symbol: C_265
   Definitions
      At line 3427 in file test.s
   Uses
      At line 3424 in file test.s
Comment: C_265 used once
C_266 000021CA

Symbol: C_266
   Definitions
      At line 3435 in file test.s
   Uses
      At line 3432 in file test.s
Comment: C_266 used once
C_267 000021DA

Symbol: C_267
   Definitions
      At line 3442 in file test.s



ARM Macro Assembler    Page 72 Alphabetic symbol ordering
Relocatable symbols

   Uses
      At line 3439 in file test.s
Comment: C_267 used once
C_268 000021F2

Symbol: C_268
   Definitions
      At line 3452 in file test.s
   Uses
      At line 3449 in file test.s
Comment: C_268 used once
C_269 00002202

Symbol: C_269
   Definitions
      At line 3459 in file test.s
   Uses
      At line 3456 in file test.s
Comment: C_269 used once
C_27 0000081A

Symbol: C_27
   Definitions
      At line 1035 in file test.s
   Uses
      At line 1032 in file test.s
Comment: C_27 used once
C_270 00002214

Symbol: C_270
   Definitions
      At line 3467 in file test.s
   Uses
      At line 3464 in file test.s
Comment: C_270 used once
C_271 0000222C

Symbol: C_271
   Definitions
      At line 3479 in file test.s
   Uses
      At line 3476 in file test.s
Comment: C_271 used once
C_272 0000223C

Symbol: C_272
   Definitions
      At line 3487 in file test.s
   Uses
      At line 3484 in file test.s
Comment: C_272 used once
C_273 00002254

Symbol: C_273
   Definitions
      At line 3499 in file test.s
   Uses
      At line 3496 in file test.s
Comment: C_273 used once



ARM Macro Assembler    Page 73 Alphabetic symbol ordering
Relocatable symbols

C_274 00002266

Symbol: C_274
   Definitions
      At line 3507 in file test.s
   Uses
      At line 3504 in file test.s
Comment: C_274 used once
C_275 00002276

Symbol: C_275
   Definitions
      At line 3514 in file test.s
   Uses
      At line 3511 in file test.s
Comment: C_275 used once
C_276 0000228E

Symbol: C_276
   Definitions
      At line 3524 in file test.s
   Uses
      At line 3521 in file test.s
Comment: C_276 used once
C_277 0000229E

Symbol: C_277
   Definitions
      At line 3531 in file test.s
   Uses
      At line 3528 in file test.s
Comment: C_277 used once
C_278 000022B0

Symbol: C_278
   Definitions
      At line 3539 in file test.s
   Uses
      At line 3536 in file test.s
Comment: C_278 used once
C_279 000022C8

Symbol: C_279
   Definitions
      At line 3551 in file test.s
   Uses
      At line 3548 in file test.s
Comment: C_279 used once
C_28 0000082C

Symbol: C_28
   Definitions
      At line 1043 in file test.s
   Uses
      At line 1040 in file test.s
Comment: C_28 used once
C_280 000022D8

Symbol: C_280



ARM Macro Assembler    Page 74 Alphabetic symbol ordering
Relocatable symbols

   Definitions
      At line 3559 in file test.s
   Uses
      At line 3556 in file test.s
Comment: C_280 used once
C_281 000022F0

Symbol: C_281
   Definitions
      At line 3571 in file test.s
   Uses
      At line 3568 in file test.s
Comment: C_281 used once
C_282 00002300

Symbol: C_282
   Definitions
      At line 3578 in file test.s
   Uses
      At line 3575 in file test.s
Comment: C_282 used once
C_283 00002324

Symbol: C_283
   Definitions
      At line 3592 in file test.s
   Uses
      At line 3589 in file test.s
Comment: C_283 used once
C_284 00002336

Symbol: C_284
   Definitions
      At line 3600 in file test.s
   Uses
      At line 3597 in file test.s
Comment: C_284 used once
C_285 0000234E

Symbol: C_285
   Definitions
      At line 3612 in file test.s
   Uses
      At line 3609 in file test.s
Comment: C_285 used once
C_286 00002446

Symbol: C_286
   Definitions
      At line 3623 in file test.s
   Uses
      At line 3620 in file test.s
Comment: C_286 used once
C_287 0000245E

Symbol: C_287
   Definitions
      At line 3635 in file test.s
   Uses



ARM Macro Assembler    Page 75 Alphabetic symbol ordering
Relocatable symbols

      At line 3632 in file test.s
Comment: C_287 used once
C_288 0000246E

Symbol: C_288
   Definitions
      At line 3642 in file test.s
   Uses
      At line 3639 in file test.s
Comment: C_288 used once
C_289 00002480

Symbol: C_289
   Definitions
      At line 3650 in file test.s
   Uses
      At line 3647 in file test.s
Comment: C_289 used once
C_29 0000083C

Symbol: C_29
   Definitions
      At line 1050 in file test.s
   Uses
      At line 1047 in file test.s
Comment: C_29 used once
C_290 0000249E

Symbol: C_290
   Definitions
      At line 3662 in file test.s
   Uses
      At line 3659 in file test.s
Comment: C_290 used once
C_291 000024B6

Symbol: C_291
   Definitions
      At line 3674 in file test.s
   Uses
      At line 3671 in file test.s
Comment: C_291 used once
C_292 000024C6

Symbol: C_292
   Definitions
      At line 3682 in file test.s
   Uses
      At line 3679 in file test.s
Comment: C_292 used once
C_293 000024DE

Symbol: C_293
   Definitions
      At line 3694 in file test.s
   Uses
      At line 3691 in file test.s
Comment: C_293 used once
C_294 000024EE



ARM Macro Assembler    Page 76 Alphabetic symbol ordering
Relocatable symbols


Symbol: C_294
   Definitions
      At line 3701 in file test.s
   Uses
      At line 3698 in file test.s
Comment: C_294 used once
C_295 00002500

Symbol: C_295
   Definitions
      At line 3709 in file test.s
   Uses
      At line 3706 in file test.s
Comment: C_295 used once
C_296 00002516

Symbol: C_296
   Definitions
      At line 3718 in file test.s
   Uses
      At line 3715 in file test.s
Comment: C_296 used once
C_297 00002528

Symbol: C_297
   Definitions
      At line 3726 in file test.s
   Uses
      At line 3723 in file test.s
Comment: C_297 used once
C_298 0000253A

Symbol: C_298
   Definitions
      At line 3734 in file test.s
   Uses
      At line 3731 in file test.s
Comment: C_298 used once
C_299 00002552

Symbol: C_299
   Definitions
      At line 3746 in file test.s
   Uses
      At line 3743 in file test.s
Comment: C_299 used once
C_3 0000006E

Symbol: C_3
   Definitions
      At line 234 in file test.s
   Uses
      At line 231 in file test.s
Comment: C_3 used once
C_30 00000854

Symbol: C_30
   Definitions



ARM Macro Assembler    Page 77 Alphabetic symbol ordering
Relocatable symbols

      At line 1060 in file test.s
   Uses
      At line 1057 in file test.s
Comment: C_30 used once
C_300 00002562

Symbol: C_300
   Definitions
      At line 3754 in file test.s
   Uses
      At line 3751 in file test.s
Comment: C_300 used once
C_301 0000257A

Symbol: C_301
   Definitions
      At line 3766 in file test.s
   Uses
      At line 3763 in file test.s
Comment: C_301 used once
C_302 0000258C

Symbol: C_302
   Definitions
      At line 3774 in file test.s
   Uses
      At line 3771 in file test.s
Comment: C_302 used once
C_303 0000259C

Symbol: C_303
   Definitions
      At line 3781 in file test.s
   Uses
      At line 3778 in file test.s
Comment: C_303 used once
C_304 000025AE

Symbol: C_304
   Definitions
      At line 3789 in file test.s
   Uses
      At line 3786 in file test.s
Comment: C_304 used once
C_305 000025BE

Symbol: C_305
   Definitions
      At line 3796 in file test.s
   Uses
      At line 3793 in file test.s
Comment: C_305 used once
C_306 000025D6

Symbol: C_306
   Definitions
      At line 3806 in file test.s
   Uses
      At line 3803 in file test.s



ARM Macro Assembler    Page 78 Alphabetic symbol ordering
Relocatable symbols

Comment: C_306 used once
C_307 000025EE

Symbol: C_307
   Definitions
      At line 3818 in file test.s
   Uses
      At line 3815 in file test.s
Comment: C_307 used once
C_308 000025FE

Symbol: C_308
   Definitions
      At line 3826 in file test.s
   Uses
      At line 3823 in file test.s
Comment: C_308 used once
C_309 00002616

Symbol: C_309
   Definitions
      At line 3838 in file test.s
   Uses
      At line 3835 in file test.s
Comment: C_309 used once
C_31 0000086C

Symbol: C_31
   Definitions
      At line 1072 in file test.s
   Uses
      At line 1069 in file test.s
Comment: C_31 used once
C_310 00002640

Symbol: C_310
   Definitions
      At line 3854 in file test.s
   Uses
      At line 3851 in file test.s
Comment: C_310 used once
C_311 00002658

Symbol: C_311
   Definitions
      At line 3866 in file test.s
   Uses
      At line 3863 in file test.s
Comment: C_311 used once
C_312 00002668

Symbol: C_312
   Definitions
      At line 3874 in file test.s
   Uses
      At line 3871 in file test.s
Comment: C_312 used once
C_313 00002680




ARM Macro Assembler    Page 79 Alphabetic symbol ordering
Relocatable symbols

Symbol: C_313
   Definitions
      At line 3886 in file test.s
   Uses
      At line 3883 in file test.s
Comment: C_313 used once
C_314 00002692

Symbol: C_314
   Definitions
      At line 3894 in file test.s
   Uses
      At line 3891 in file test.s
Comment: C_314 used once
C_315 000026AE

Symbol: C_315
   Definitions
      At line 3905 in file test.s
   Uses
      At line 3902 in file test.s
Comment: C_315 used once
C_316 000026C0

Symbol: C_316
   Definitions
      At line 3913 in file test.s
   Uses
      At line 3910 in file test.s
Comment: C_316 used once
C_317 000026D8

Symbol: C_317
   Definitions
      At line 3925 in file test.s
   Uses
      At line 3922 in file test.s
Comment: C_317 used once
C_318 000026E8

Symbol: C_318
   Definitions
      At line 3933 in file test.s
   Uses
      At line 3930 in file test.s
Comment: C_318 used once
C_319 000026FA

Symbol: C_319
   Definitions
      At line 3941 in file test.s
   Uses
      At line 3938 in file test.s
Comment: C_319 used once
C_32 0000087C

Symbol: C_32
   Definitions
      At line 1080 in file test.s



ARM Macro Assembler    Page 80 Alphabetic symbol ordering
Relocatable symbols

   Uses
      At line 1077 in file test.s
Comment: C_32 used once
C_320 00002720

Symbol: C_320
   Definitions
      At line 3956 in file test.s
   Uses
      At line 3953 in file test.s
Comment: C_320 used once
C_321 00002730

Symbol: C_321
   Definitions
      At line 3963 in file test.s
   Uses
      At line 3960 in file test.s
Comment: C_321 used once
C_322 00002742

Symbol: C_322
   Definitions
      At line 3971 in file test.s
   Uses
      At line 3968 in file test.s
Comment: C_322 used once
C_323 00002752

Symbol: C_323
   Definitions
      At line 3978 in file test.s
   Uses
      At line 3975 in file test.s
Comment: C_323 used once
C_324 00002764

Symbol: C_324
   Definitions
      At line 3986 in file test.s
   Uses
      At line 3983 in file test.s
Comment: C_324 used once
C_33 00000894

Symbol: C_33
   Definitions
      At line 1092 in file test.s
   Uses
      At line 1089 in file test.s
Comment: C_33 used once
C_34 000008A6

Symbol: C_34
   Definitions
      At line 1100 in file test.s
   Uses
      At line 1097 in file test.s
Comment: C_34 used once



ARM Macro Assembler    Page 81 Alphabetic symbol ordering
Relocatable symbols

C_35 000008BC

Symbol: C_35
   Definitions
      At line 1109 in file test.s
   Uses
      At line 1106 in file test.s
Comment: C_35 used once
C_36 000008CE

Symbol: C_36
   Definitions
      At line 1117 in file test.s
   Uses
      At line 1114 in file test.s
Comment: C_36 used once
C_37 000008E6

Symbol: C_37
   Definitions
      At line 1129 in file test.s
   Uses
      At line 1126 in file test.s
Comment: C_37 used once
C_38 000008F6

Symbol: C_38
   Definitions
      At line 1137 in file test.s
   Uses
      At line 1134 in file test.s
Comment: C_38 used once
C_39 0000090E

Symbol: C_39
   Definitions
      At line 1149 in file test.s
   Uses
      At line 1146 in file test.s
Comment: C_39 used once
C_4 0000008A

Symbol: C_4
   Definitions
      At line 248 in file test.s
   Uses
      At line 245 in file test.s
Comment: C_4 used once
C_40 0000091E

Symbol: C_40
   Definitions
      At line 1156 in file test.s
   Uses
      At line 1153 in file test.s
Comment: C_40 used once
C_41 00000936

Symbol: C_41



ARM Macro Assembler    Page 82 Alphabetic symbol ordering
Relocatable symbols

   Definitions
      At line 1166 in file test.s
   Uses
      At line 1163 in file test.s
Comment: C_41 used once
C_42 0000094E

Symbol: C_42
   Definitions
      At line 1178 in file test.s
   Uses
      At line 1175 in file test.s
Comment: C_42 used once
C_43 0000095E

Symbol: C_43
   Definitions
      At line 1186 in file test.s
   Uses
      At line 1183 in file test.s
Comment: C_43 used once
C_44 00000976

Symbol: C_44
   Definitions
      At line 1198 in file test.s
   Uses
      At line 1195 in file test.s
Comment: C_44 used once
C_45 00000992

Symbol: C_45
   Definitions
      At line 1209 in file test.s
   Uses
      At line 1206 in file test.s
Comment: C_45 used once
C_46 000009A4

Symbol: C_46
   Definitions
      At line 1217 in file test.s
   Uses
      At line 1214 in file test.s
Comment: C_46 used once
C_47 000009BC

Symbol: C_47
   Definitions
      At line 1229 in file test.s
   Uses
      At line 1226 in file test.s
Comment: C_47 used once
C_48 000009CC

Symbol: C_48
   Definitions
      At line 1237 in file test.s
   Uses



ARM Macro Assembler    Page 83 Alphabetic symbol ordering
Relocatable symbols

      At line 1234 in file test.s
Comment: C_48 used once
C_49 000009E4

Symbol: C_49
   Definitions
      At line 1249 in file test.s
   Uses
      At line 1246 in file test.s
Comment: C_49 used once
C_5 000000AA

Symbol: C_5
   Definitions
      At line 264 in file test.s
   Uses
      At line 261 in file test.s
Comment: C_5 used once
C_50 000009FA

Symbol: C_50
   Definitions
      At line 1258 in file test.s
   Uses
      At line 1255 in file test.s
Comment: C_50 used once
C_51 00000A0C

Symbol: C_51
   Definitions
      At line 1266 in file test.s
   Uses
      At line 1263 in file test.s
Comment: C_51 used once
C_52 00000A24

Symbol: C_52
   Definitions
      At line 1278 in file test.s
   Uses
      At line 1275 in file test.s
Comment: C_52 used once
C_53 00000A34

Symbol: C_53
   Definitions
      At line 1286 in file test.s
   Uses
      At line 1283 in file test.s
Comment: C_53 used once
C_54 00000A4C

Symbol: C_54
   Definitions
      At line 1298 in file test.s
   Uses
      At line 1295 in file test.s
Comment: C_54 used once
C_55 00000A5E



ARM Macro Assembler    Page 84 Alphabetic symbol ordering
Relocatable symbols


Symbol: C_55
   Definitions
      At line 1306 in file test.s
   Uses
      At line 1303 in file test.s
Comment: C_55 used once
C_56 00000A76

Symbol: C_56
   Definitions
      At line 1318 in file test.s
   Uses
      At line 1315 in file test.s
Comment: C_56 used once
C_57 00000A86

Symbol: C_57
   Definitions
      At line 1326 in file test.s
   Uses
      At line 1323 in file test.s
Comment: C_57 used once
C_58 00000B9A

Symbol: C_58
   Definitions
      At line 1341 in file test.s
   Uses
      At line 1338 in file test.s
Comment: C_58 used once
C_59 00000BB8

Symbol: C_59
   Definitions
      At line 1353 in file test.s
   Uses
      At line 1350 in file test.s
Comment: C_59 used once
C_6 000000BC

Symbol: C_6
   Definitions
      At line 273 in file test.s
   Uses
      At line 270 in file test.s
Comment: C_6 used once
C_60 00000BD0

Symbol: C_60
   Definitions
      At line 1365 in file test.s
   Uses
      At line 1362 in file test.s
Comment: C_60 used once
C_61 00000BE0

Symbol: C_61
   Definitions



ARM Macro Assembler    Page 85 Alphabetic symbol ordering
Relocatable symbols

      At line 1373 in file test.s
   Uses
      At line 1370 in file test.s
Comment: C_61 used once
C_62 00000BF8

Symbol: C_62
   Definitions
      At line 1385 in file test.s
   Uses
      At line 1382 in file test.s
Comment: C_62 used once
C_63 00000C08

Symbol: C_63
   Definitions
      At line 1392 in file test.s
   Uses
      At line 1389 in file test.s
Comment: C_63 used once
C_64 00000C1A

Symbol: C_64
   Definitions
      At line 1400 in file test.s
   Uses
      At line 1397 in file test.s
Comment: C_64 used once
C_65 00000C2C

Symbol: C_65
   Definitions
      At line 1408 in file test.s
   Uses
      At line 1405 in file test.s
Comment: C_65 used once
C_66 00000C44

Symbol: C_66
   Definitions
      At line 1420 in file test.s
   Uses
      At line 1417 in file test.s
Comment: C_66 used once
C_67 00000C54

Symbol: C_67
   Definitions
      At line 1428 in file test.s
   Uses
      At line 1425 in file test.s
Comment: C_67 used once
C_68 00000C6C

Symbol: C_68
   Definitions
      At line 1440 in file test.s
   Uses
      At line 1437 in file test.s



ARM Macro Assembler    Page 86 Alphabetic symbol ordering
Relocatable symbols

Comment: C_68 used once
C_69 00000C84

Symbol: C_69
   Definitions
      At line 1450 in file test.s
   Uses
      At line 1447 in file test.s
Comment: C_69 used once
C_7 000000CC

Symbol: C_7
   Definitions
      At line 281 in file test.s
   Uses
      At line 278 in file test.s
Comment: C_7 used once
C_70 00000C94

Symbol: C_70
   Definitions
      At line 1457 in file test.s
   Uses
      At line 1454 in file test.s
Comment: C_70 used once
C_71 00000CA6

Symbol: C_71
   Definitions
      At line 1465 in file test.s
   Uses
      At line 1462 in file test.s
Comment: C_71 used once
C_72 00000CBE

Symbol: C_72
   Definitions
      At line 1477 in file test.s
   Uses
      At line 1474 in file test.s
Comment: C_72 used once
C_73 00000CCE

Symbol: C_73
   Definitions
      At line 1485 in file test.s
   Uses
      At line 1482 in file test.s
Comment: C_73 used once
C_74 00000CE6

Symbol: C_74
   Definitions
      At line 1497 in file test.s
   Uses
      At line 1494 in file test.s
Comment: C_74 used once
C_75 00000CF6




ARM Macro Assembler    Page 87 Alphabetic symbol ordering
Relocatable symbols

Symbol: C_75
   Definitions
      At line 1504 in file test.s
   Uses
      At line 1501 in file test.s
Comment: C_75 used once
C_76 00000D0E

Symbol: C_76
   Definitions
      At line 1514 in file test.s
   Uses
      At line 1511 in file test.s
Comment: C_76 used once
C_77 00000D20

Symbol: C_77
   Definitions
      At line 1522 in file test.s
   Uses
      At line 1519 in file test.s
Comment: C_77 used once
C_78 00000D38

Symbol: C_78
   Definitions
      At line 1534 in file test.s
   Uses
      At line 1531 in file test.s
Comment: C_78 used once
C_79 00000D48

Symbol: C_79
   Definitions
      At line 1542 in file test.s
   Uses
      At line 1539 in file test.s
Comment: C_79 used once
C_8 000000E4

Symbol: C_8
   Definitions
      At line 293 in file test.s
   Uses
      At line 290 in file test.s
Comment: C_8 used once
C_80 00000D60

Symbol: C_80
   Definitions
      At line 1554 in file test.s
   Uses
      At line 1551 in file test.s
Comment: C_80 used once
C_81 00000D7E

Symbol: C_81
   Definitions
      At line 1566 in file test.s



ARM Macro Assembler    Page 88 Alphabetic symbol ordering
Relocatable symbols

   Uses
      At line 1563 in file test.s
Comment: C_81 used once
C_82 00000D96

Symbol: C_82
   Definitions
      At line 1578 in file test.s
   Uses
      At line 1575 in file test.s
Comment: C_82 used once
C_83 00000DA6

Symbol: C_83
   Definitions
      At line 1586 in file test.s
   Uses
      At line 1583 in file test.s
Comment: C_83 used once
C_84 00000DBE

Symbol: C_84
   Definitions
      At line 1598 in file test.s
   Uses
      At line 1595 in file test.s
Comment: C_84 used once
C_85 00000DD0

Symbol: C_85
   Definitions
      At line 1606 in file test.s
   Uses
      At line 1603 in file test.s
Comment: C_85 used once
C_86 00000DE2

Symbol: C_86
   Definitions
      At line 1614 in file test.s
   Uses
      At line 1611 in file test.s
Comment: C_86 used once
C_87 00000DFA

Symbol: C_87
   Definitions
      At line 1626 in file test.s
   Uses
      At line 1623 in file test.s
Comment: C_87 used once
C_88 00000E0A

Symbol: C_88
   Definitions
      At line 1634 in file test.s
   Uses
      At line 1631 in file test.s
Comment: C_88 used once



ARM Macro Assembler    Page 89 Alphabetic symbol ordering
Relocatable symbols

C_89 00000E22

Symbol: C_89
   Definitions
      At line 1646 in file test.s
   Uses
      At line 1643 in file test.s
Comment: C_89 used once
C_9 000000FC

Symbol: C_9
   Definitions
      At line 305 in file test.s
   Uses
      At line 302 in file test.s
Comment: C_9 used once
C_90 00000E3A

Symbol: C_90
   Definitions
      At line 1656 in file test.s
   Uses
      At line 1653 in file test.s
Comment: C_90 used once
C_91 00000E52

Symbol: C_91
   Definitions
      At line 1668 in file test.s
   Uses
      At line 1665 in file test.s
Comment: C_91 used once
C_92 00000E62

Symbol: C_92
   Definitions
      At line 1676 in file test.s
   Uses
      At line 1673 in file test.s
Comment: C_92 used once
C_93 00000E7A

Symbol: C_93
   Definitions
      At line 1688 in file test.s
   Uses
      At line 1685 in file test.s
Comment: C_93 used once
C_94 00000E8A

Symbol: C_94
   Definitions
      At line 1695 in file test.s
   Uses
      At line 1692 in file test.s
Comment: C_94 used once
C_95 00000E9C

Symbol: C_95



ARM Macro Assembler    Page 90 Alphabetic symbol ordering
Relocatable symbols

   Definitions
      At line 1703 in file test.s
   Uses
      At line 1700 in file test.s
Comment: C_95 used once
C_96 00000EB4

Symbol: C_96
   Definitions
      At line 1713 in file test.s
   Uses
      At line 1710 in file test.s
Comment: C_96 used once
C_97 00000FC0

Symbol: C_97
   Definitions
      At line 1728 in file test.s
   Uses
      At line 1725 in file test.s
Comment: C_97 used once
C_98 00000FD0

Symbol: C_98
   Definitions
      At line 1736 in file test.s
   Uses
      At line 1733 in file test.s
Comment: C_98 used once
C_99 00000FE8

Symbol: C_99
   Definitions
      At line 1748 in file test.s
   Uses
      At line 1745 in file test.s
Comment: C_99 used once
Clear_Mem 0000277E

Symbol: Clear_Mem
   Definitions
      At line 4005 in file test.s
   Uses
      At line 187 in file test.s
Comment: Clear_Mem used once
E_0 0000007A

Symbol: E_0
   Definitions
      At line 240 in file test.s
   Uses
      At line 209 in file test.s
Comment: E_0 used once
E_1 000000D8

Symbol: E_1
   Definitions
      At line 287 in file test.s
   Uses



ARM Macro Assembler    Page 91 Alphabetic symbol ordering
Relocatable symbols

      At line 256 in file test.s
Comment: E_1 used once
E_10 000022CE

Symbol: E_10
   Definitions
      At line 3554 in file test.s
   Uses
      At line 419 in file test.s
Comment: E_10 used once
E_100 00001EEA

Symbol: E_100
   Definitions
      At line 3199 in file test.s
   Uses
      At line 3153 in file test.s
Comment: E_100 used once
E_101 00002078

Symbol: E_101
   Definitions
      At line 3279 in file test.s
   Uses
      At line 3218 in file test.s
Comment: E_101 used once
E_102 000020FE

Symbol: E_102
   Definitions
      At line 3340 in file test.s
   Uses
      At line 3298 in file test.s
Comment: E_102 used once
E_103 00002184

Symbol: E_103
   Definitions
      At line 3401 in file test.s
   Uses
      At line 3359 in file test.s
Comment: E_103 used once
E_104 00002220

Symbol: E_104
   Definitions
      At line 3473 in file test.s
   Uses
      At line 3420 in file test.s
Comment: E_104 used once
E_105 000022BC

Symbol: E_105
   Definitions
      At line 3545 in file test.s
   Uses
      At line 3492 in file test.s
Comment: E_105 used once
E_106 00002342



ARM Macro Assembler    Page 92 Alphabetic symbol ordering
Relocatable symbols


Symbol: E_106
   Definitions
      At line 3606 in file test.s
   Uses
      At line 3564 in file test.s
Comment: E_106 used once
E_107 000024AA

Symbol: E_107
   Definitions
      At line 3668 in file test.s
   Uses
      At line 3628 in file test.s
Comment: E_107 used once
E_108 00002546

Symbol: E_108
   Definitions
      At line 3740 in file test.s
   Uses
      At line 3687 in file test.s
Comment: E_108 used once
E_109 000025E2

Symbol: E_109
   Definitions
      At line 3812 in file test.s
   Uses
      At line 3759 in file test.s
Comment: E_109 used once
E_11 00002232

Symbol: E_11
   Definitions
      At line 3482 in file test.s
   Uses
      At line 429 in file test.s
Comment: E_11 used once
E_110 0000264C

Symbol: E_110
   Definitions
      At line 3860 in file test.s
   Uses
      At line 3831 in file test.s
Comment: E_110 used once
E_111 000026CC

Symbol: E_111
   Definitions
      At line 3919 in file test.s
   Uses
      At line 3879 in file test.s
Comment: E_111 used once
E_12 00002196

Symbol: E_12
   Definitions



ARM Macro Assembler    Page 93 Alphabetic symbol ordering
Relocatable symbols

      At line 3410 in file test.s
   Uses
      At line 439 in file test.s
Comment: E_12 used once
E_13 00002110

Symbol: E_13
   Definitions
      At line 3349 in file test.s
   Uses
      At line 449 in file test.s
Comment: E_13 used once
E_14 0000208A

Symbol: E_14
   Definitions
      At line 3288 in file test.s
   Uses
      At line 459 in file test.s
Comment: E_14 used once
E_15 00001EFC

Symbol: E_15
   Definitions
      At line 3208 in file test.s
   Uses
      At line 469 in file test.s
Comment: E_15 used once
E_16 00001E70

Symbol: E_16
   Definitions
      At line 3143 in file test.s
   Uses
      At line 479 in file test.s
Comment: E_16 used once
E_17 00001E06

Symbol: E_17
   Definitions
      At line 3095 in file test.s
   Uses
      At line 489 in file test.s
Comment: E_17 used once
E_18 00001D92

Symbol: E_18
   Definitions
      At line 3042 in file test.s
   Uses
      At line 499 in file test.s
Comment: E_18 used once
E_19 00001D1E

Symbol: E_19
   Definitions
      At line 2989 in file test.s
   Uses
      At line 509 in file test.s



ARM Macro Assembler    Page 94 Alphabetic symbol ordering
Relocatable symbols

Comment: E_19 used once
E_2 0000011A

Symbol: E_2
   Definitions
      At line 320 in file test.s
   Uses
      At line 298 in file test.s
Comment: E_2 used once
E_20 00001CAA

Symbol: E_20
   Definitions
      At line 2936 in file test.s
   Uses
      At line 519 in file test.s
Comment: E_20 used once
E_21 00001C36

Symbol: E_21
   Definitions
      At line 2883 in file test.s
   Uses
      At line 529 in file test.s
Comment: E_21 used once
E_22 00001AE6

Symbol: E_22
   Definitions
      At line 2832 in file test.s
   Uses
      At line 539 in file test.s
Comment: E_22 used once
E_23 00001A70

Symbol: E_23
   Definitions
      At line 2778 in file test.s
   Uses
      At line 549 in file test.s
Comment: E_23 used once
E_24 000019FA

Symbol: E_24
   Definitions
      At line 2724 in file test.s
   Uses
      At line 559 in file test.s
Comment: E_24 used once
E_25 00001984

Symbol: E_25
   Definitions
      At line 2670 in file test.s
   Uses
      At line 569 in file test.s
Comment: E_25 used once
E_26 0000190E




ARM Macro Assembler    Page 95 Alphabetic symbol ordering
Relocatable symbols

Symbol: E_26
   Definitions
      At line 2616 in file test.s
   Uses
      At line 582 in file test.s
Comment: E_26 used once
E_27 00001892

Symbol: E_27
   Definitions
      At line 2560 in file test.s
   Uses
      At line 592 in file test.s
Comment: E_27 used once
E_28 000017EA

Symbol: E_28
   Definitions
      At line 2482 in file test.s
   Uses
      At line 602 in file test.s
Comment: E_28 used once
E_29 0000167C

Symbol: E_29
   Definitions
      At line 2420 in file test.s
   Uses
      At line 612 in file test.s
Comment: E_29 used once
E_3 00002716

Symbol: E_3
   Definitions
      At line 3951 in file test.s
   Uses
      At line 338 in file test.s
Comment: E_3 used once
E_30 000015F6

Symbol: E_30
   Definitions
      At line 2359 in file test.s
   Uses
      At line 622 in file test.s
Comment: E_30 used once
E_31 0000155A

Symbol: E_31
   Definitions
      At line 2287 in file test.s
   Uses
      At line 632 in file test.s
Comment: E_31 used once
E_32 000014F8

Symbol: E_32
   Definitions
      At line 2240 in file test.s



ARM Macro Assembler    Page 96 Alphabetic symbol ordering
Relocatable symbols

   Uses
      At line 642 in file test.s
Comment: E_32 used once
E_33 00001488

Symbol: E_33
   Definitions
      At line 2188 in file test.s
   Uses
      At line 652 in file test.s
Comment: E_33 used once
E_34 00001402

Symbol: E_34
   Definitions
      At line 2125 in file test.s
   Uses
      At line 662 in file test.s
Comment: E_34 used once
E_35 0000129A

Symbol: E_35
   Definitions
      At line 2072 in file test.s
   Uses
      At line 672 in file test.s
Comment: E_35 used once
E_36 00001248

Symbol: E_36
   Definitions
      At line 2032 in file test.s
   Uses
      At line 682 in file test.s
Comment: E_36 used once
E_37 000011CE

Symbol: E_37
   Definitions
      At line 1975 in file test.s
   Uses
      At line 692 in file test.s
Comment: E_37 used once
E_38 00001164

Symbol: E_38
   Definitions
      At line 1925 in file test.s
   Uses
      At line 702 in file test.s
Comment: E_38 used once
E_39 00001100

Symbol: E_39
   Definitions
      At line 1879 in file test.s
   Uses
      At line 712 in file test.s
Comment: E_39 used once



ARM Macro Assembler    Page 97 Alphabetic symbol ordering
Relocatable symbols

E_4 000026DE

Symbol: E_4
   Definitions
      At line 3928 in file test.s
   Uses
      At line 359 in file test.s
Comment: E_4 used once
E_40 000010A8

Symbol: E_40
   Definitions
      At line 1837 in file test.s
   Uses
      At line 722 in file test.s
Comment: E_40 used once
E_41 0000103A

Symbol: E_41
   Definitions
      At line 1786 in file test.s
   Uses
      At line 732 in file test.s
Comment: E_41 used once
E_42 00000FC6

Symbol: E_42
   Definitions
      At line 1731 in file test.s
   Uses
      At line 742 in file test.s
Comment: E_42 used once
E_43 00000E58

Symbol: E_43
   Definitions
      At line 1671 in file test.s
   Uses
      At line 752 in file test.s
Comment: E_43 used once
E_44 00000E00

Symbol: E_44
   Definitions
      At line 1629 in file test.s
   Uses
      At line 762 in file test.s
Comment: E_44 used once
E_45 00000D9C

Symbol: E_45
   Definitions
      At line 1581 in file test.s
   Uses
      At line 772 in file test.s
Comment: E_45 used once
E_46 00000D3E

Symbol: E_46



ARM Macro Assembler    Page 98 Alphabetic symbol ordering
Relocatable symbols

   Definitions
      At line 1537 in file test.s
   Uses
      At line 782 in file test.s
Comment: E_46 used once
E_47 00000CC4

Symbol: E_47
   Definitions
      At line 1480 in file test.s
   Uses
      At line 792 in file test.s
Comment: E_47 used once
E_48 00000C4A

Symbol: E_48
   Definitions
      At line 1423 in file test.s
   Uses
      At line 802 in file test.s
Comment: E_48 used once
E_49 00000BD6

Symbol: E_49
   Definitions
      At line 1368 in file test.s
   Uses
      At line 812 in file test.s
Comment: E_49 used once
E_5 0000265E

Symbol: E_5
   Definitions
      At line 3869 in file test.s
   Uses
      At line 369 in file test.s
Comment: E_5 used once
E_50 00000A7C

Symbol: E_50
   Definitions
      At line 1321 in file test.s
   Uses
      At line 822 in file test.s
Comment: E_50 used once
E_51 00000A2A

Symbol: E_51
   Definitions
      At line 1281 in file test.s
   Uses
      At line 832 in file test.s
Comment: E_51 used once
E_52 000009C2

Symbol: E_52
   Definitions
      At line 1232 in file test.s
   Uses



ARM Macro Assembler    Page 99 Alphabetic symbol ordering
Relocatable symbols

      At line 842 in file test.s
Comment: E_52 used once
E_53 00000954

Symbol: E_53
   Definitions
      At line 1181 in file test.s
   Uses
      At line 852 in file test.s
Comment: E_53 used once
E_54 000008EC

Symbol: E_54
   Definitions
      At line 1132 in file test.s
   Uses
      At line 862 in file test.s
Comment: E_54 used once
E_55 00000872

Symbol: E_55
   Definitions
      At line 1075 in file test.s
   Uses
      At line 872 in file test.s
Comment: E_55 used once
E_56 000007F8

Symbol: E_56
   Definitions
      At line 1018 in file test.s
   Uses
      At line 882 in file test.s
Comment: E_56 used once
E_57 00000788

Symbol: E_57
   Definitions
      At line 966 in file test.s
   Uses
      At line 892 in file test.s
Comment: E_57 used once
E_58 00000776

Symbol: E_58
   Definitions
      At line 957 in file test.s
   Uses
      At line 907 in file test.s
Comment: E_58 used once
E_59 000007E6

Symbol: E_59
   Definitions
      At line 1009 in file test.s
   Uses
      At line 976 in file test.s
Comment: E_59 used once
E_6 000025F4



ARM Macro Assembler    Page 100 Alphabetic symbol ordering
Relocatable symbols


Symbol: E_6
   Definitions
      At line 3821 in file test.s
   Uses
      At line 379 in file test.s
Comment: E_6 used once
E_60 00000860

Symbol: E_60
   Definitions
      At line 1066 in file test.s
   Uses
      At line 1028 in file test.s
Comment: E_60 used once
E_61 000008DA

Symbol: E_61
   Definitions
      At line 1123 in file test.s
   Uses
      At line 1085 in file test.s
Comment: E_61 used once
E_62 00000942

Symbol: E_62
   Definitions
      At line 1172 in file test.s
   Uses
      At line 1142 in file test.s
Comment: E_62 used once
E_63 000009B0

Symbol: E_63
   Definitions
      At line 1223 in file test.s
   Uses
      At line 1191 in file test.s
Comment: E_63 used once
E_64 00000A18

Symbol: E_64
   Definitions
      At line 1272 in file test.s
   Uses
      At line 1242 in file test.s
Comment: E_64 used once
E_65 00000A6A

Symbol: E_65
   Definitions
      At line 1312 in file test.s
   Uses
      At line 1291 in file test.s
Comment: E_65 used once
E_66 00000BC4

Symbol: E_66
   Definitions



ARM Macro Assembler    Page 101 Alphabetic symbol ordering
Relocatable symbols

      At line 1359 in file test.s
   Uses
      At line 1331 in file test.s
Comment: E_66 used once
E_67 00000C38

Symbol: E_67
   Definitions
      At line 1414 in file test.s
   Uses
      At line 1378 in file test.s
Comment: E_67 used once
E_68 00000CB2

Symbol: E_68
   Definitions
      At line 1471 in file test.s
   Uses
      At line 1433 in file test.s
Comment: E_68 used once
E_69 00000D2C

Symbol: E_69
   Definitions
      At line 1528 in file test.s
   Uses
      At line 1490 in file test.s
Comment: E_69 used once
E_7 00002558

Symbol: E_7
   Definitions
      At line 3749 in file test.s
   Uses
      At line 389 in file test.s
Comment: E_7 used once
E_70 00000D8A

Symbol: E_70
   Definitions
      At line 1572 in file test.s
   Uses
      At line 1547 in file test.s
Comment: E_70 used once
E_71 00000DEE

Symbol: E_71
   Definitions
      At line 1620 in file test.s
   Uses
      At line 1591 in file test.s
Comment: E_71 used once
E_72 00000E46

Symbol: E_72
   Definitions
      At line 1662 in file test.s
   Uses
      At line 1639 in file test.s



ARM Macro Assembler    Page 102 Alphabetic symbol ordering
Relocatable symbols

Comment: E_72 used once
E_73 00000FB4

Symbol: E_73
   Definitions
      At line 1722 in file test.s
   Uses
      At line 1681 in file test.s
Comment: E_73 used once
E_74 00001028

Symbol: E_74
   Definitions
      At line 1777 in file test.s
   Uses
      At line 1741 in file test.s
Comment: E_74 used once
E_75 00001096

Symbol: E_75
   Definitions
      At line 1828 in file test.s
   Uses
      At line 1796 in file test.s
Comment: E_75 used once
E_76 000010EE

Symbol: E_76
   Definitions
      At line 1870 in file test.s
   Uses
      At line 1847 in file test.s
Comment: E_76 used once
E_77 00001152

Symbol: E_77
   Definitions
      At line 1916 in file test.s
   Uses
      At line 1889 in file test.s
Comment: E_77 used once
E_78 000011BC

Symbol: E_78
   Definitions
      At line 1966 in file test.s
   Uses
      At line 1935 in file test.s
Comment: E_78 used once
E_79 00001236

Symbol: E_79
   Definitions
      At line 2023 in file test.s
   Uses
      At line 1985 in file test.s
Comment: E_79 used once
E_8 000024BC




ARM Macro Assembler    Page 103 Alphabetic symbol ordering
Relocatable symbols

Symbol: E_8
   Definitions
      At line 3677 in file test.s
   Uses
      At line 399 in file test.s
Comment: E_8 used once
E_80 00001288

Symbol: E_80
   Definitions
      At line 2063 in file test.s
   Uses
      At line 2042 in file test.s
Comment: E_80 used once
E_81 000013F0

Symbol: E_81
   Definitions
      At line 2116 in file test.s
   Uses
      At line 2082 in file test.s
Comment: E_81 used once
E_82 00001476

Symbol: E_82
   Definitions
      At line 2179 in file test.s
   Uses
      At line 2135 in file test.s
Comment: E_82 used once
E_83 000014E6

Symbol: E_83
   Definitions
      At line 2231 in file test.s
   Uses
      At line 2198 in file test.s
Comment: E_83 used once
E_84 00001548

Symbol: E_84
   Definitions
      At line 2278 in file test.s
   Uses
      At line 2250 in file test.s
Comment: E_84 used once
E_85 000015E4

Symbol: E_85
   Definitions
      At line 2350 in file test.s
   Uses
      At line 2297 in file test.s
Comment: E_85 used once
E_86 0000166A

Symbol: E_86
   Definitions
      At line 2411 in file test.s



ARM Macro Assembler    Page 104 Alphabetic symbol ordering
Relocatable symbols

   Uses
      At line 2369 in file test.s
Comment: E_86 used once
E_87 000016EA

Symbol: E_87
   Definitions
      At line 2470 in file test.s
   Uses
      At line 2430 in file test.s
Comment: E_87 used once
E_88 00001880

Symbol: E_88
   Definitions
      At line 2551 in file test.s
   Uses
      At line 2492 in file test.s
Comment: E_88 used once
E_89 000018FC

Symbol: E_89
   Definitions
      At line 2607 in file test.s
   Uses
      At line 2570 in file test.s
Comment: E_89 used once
E_9 00002354

Symbol: E_9
   Definitions
      At line 3615 in file test.s
   Uses
      At line 409 in file test.s
Comment: E_9 used once
E_90 00001972

Symbol: E_90
   Definitions
      At line 2661 in file test.s
   Uses
      At line 2626 in file test.s
Comment: E_90 used once
E_91 000019E8

Symbol: E_91
   Definitions
      At line 2715 in file test.s
   Uses
      At line 2680 in file test.s
Comment: E_91 used once
E_92 00001A5E

Symbol: E_92
   Definitions
      At line 2769 in file test.s
   Uses
      At line 2734 in file test.s
Comment: E_92 used once



ARM Macro Assembler    Page 105 Alphabetic symbol ordering
Relocatable symbols

E_93 00001AD4

Symbol: E_93
   Definitions
      At line 2823 in file test.s
   Uses
      At line 2788 in file test.s
Comment: E_93 used once
E_94 00001C24

Symbol: E_94
   Definitions
      At line 2874 in file test.s
   Uses
      At line 2842 in file test.s
Comment: E_94 used once
E_95 00001C98

Symbol: E_95
   Definitions
      At line 2927 in file test.s
   Uses
      At line 2893 in file test.s
Comment: E_95 used once
E_96 00001D0C

Symbol: E_96
   Definitions
      At line 2980 in file test.s
   Uses
      At line 2946 in file test.s
Comment: E_96 used once
E_97 00001D80

Symbol: E_97
   Definitions
      At line 3033 in file test.s
   Uses
      At line 2999 in file test.s
Comment: E_97 used once
E_98 00001DF4

Symbol: E_98
   Definitions
      At line 3086 in file test.s
   Uses
      At line 3052 in file test.s
Comment: E_98 used once
E_99 00001E5E

Symbol: E_99
   Definitions
      At line 3134 in file test.s
   Uses
      At line 3105 in file test.s
Comment: E_99 used once
EndPutS 0000283C

Symbol: EndPutS



ARM Macro Assembler    Page 106 Alphabetic symbol ordering
Relocatable symbols

   Definitions
      At line 4164 in file test.s
   Uses
      At line 4154 in file test.s
      At line 4160 in file test.s

End_BF 0000277C

Symbol: End_BF
   Definitions
      At line 4002 in file test.s
   Uses
      At line 3994 in file test.s
      At line 3998 in file test.s

End_OF 0000276C

Symbol: End_OF
   Definitions
      At line 3992 in file test.s
   Uses
      At line 199 in file test.s
      At line 223 in file test.s
      At line 232 in file test.s
      At line 262 in file test.s
      At line 271 in file test.s
      At line 291 in file test.s
      At line 312 in file test.s
      At line 324 in file test.s
      At line 352 in file test.s
      At line 931 in file test.s
      At line 946 in file test.s
      At line 961 in file test.s
      At line 991 in file test.s
      At line 1001 in file test.s
      At line 1013 in file test.s
      At line 1041 in file test.s
      At line 1058 in file test.s
      At line 1070 in file test.s
      At line 1098 in file test.s
      At line 1115 in file test.s
      At line 1127 in file test.s
      At line 1164 in file test.s
      At line 1176 in file test.s
      At line 1215 in file test.s
      At line 1227 in file test.s
      At line 1264 in file test.s
      At line 1276 in file test.s
      At line 1304 in file test.s
      At line 1316 in file test.s
      At line 1351 in file test.s
      At line 1363 in file test.s
      At line 1398 in file test.s
      At line 1406 in file test.s
      At line 1418 in file test.s
      At line 1448 in file test.s
      At line 1463 in file test.s
      At line 1475 in file test.s
      At line 1512 in file test.s



ARM Macro Assembler    Page 107 Alphabetic symbol ordering
Relocatable symbols

      At line 1520 in file test.s
      At line 1532 in file test.s
      At line 1564 in file test.s
      At line 1576 in file test.s
      At line 1604 in file test.s
      At line 1612 in file test.s
      At line 1624 in file test.s
      At line 1654 in file test.s
      At line 1666 in file test.s
      At line 1701 in file test.s
      At line 1711 in file test.s
      At line 1726 in file test.s
      At line 1754 in file test.s
      At line 1769 in file test.s
      At line 1781 in file test.s
      At line 1820 in file test.s
      At line 1832 in file test.s
      At line 1862 in file test.s
      At line 1874 in file test.s
      At line 1908 in file test.s
      At line 1920 in file test.s
      At line 1950 in file test.s
      At line 1958 in file test.s
      At line 1970 in file test.s
      At line 2007 in file test.s
      At line 2015 in file test.s
      At line 2027 in file test.s
      At line 2055 in file test.s
      At line 2067 in file test.s
      At line 2095 in file test.s
      At line 2108 in file test.s
      At line 2120 in file test.s
      At line 2148 in file test.s
      At line 2163 in file test.s
      At line 2171 in file test.s
      At line 2183 in file test.s
      At line 2211 in file test.s
      At line 2223 in file test.s
      At line 2235 in file test.s
      At line 2270 in file test.s
      At line 2282 in file test.s
      At line 2319 in file test.s
      At line 2334 in file test.s
      At line 2342 in file test.s
      At line 2354 in file test.s
      At line 2393 in file test.s
      At line 2403 in file test.s
      At line 2415 in file test.s
      At line 2443 in file test.s
      At line 2462 in file test.s
      At line 2474 in file test.s
      At line 2505 in file test.s
      At line 2520 in file test.s
      At line 2535 in file test.s
      At line 2543 in file test.s
      At line 2555 in file test.s
      At line 2587 in file test.s
      At line 2599 in file test.s
      At line 2611 in file test.s



ARM Macro Assembler    Page 108 Alphabetic symbol ordering
Relocatable symbols

      At line 2645 in file test.s
      At line 2653 in file test.s
      At line 2665 in file test.s
      At line 2697 in file test.s
      At line 2707 in file test.s
      At line 2719 in file test.s
      At line 2749 in file test.s
      At line 2761 in file test.s
      At line 2773 in file test.s
      At line 2801 in file test.s
      At line 2815 in file test.s
      At line 2827 in file test.s
      At line 2866 in file test.s
      At line 2878 in file test.s
      At line 2919 in file test.s
      At line 2931 in file test.s
      At line 2972 in file test.s
      At line 2984 in file test.s
      At line 3025 in file test.s
      At line 3037 in file test.s
      At line 3078 in file test.s
      At line 3090 in file test.s
      At line 3126 in file test.s
      At line 3138 in file test.s
      At line 3166 in file test.s
      At line 3183 in file test.s
      At line 3191 in file test.s
      At line 3203 in file test.s
      At line 3241 in file test.s
      At line 3256 in file test.s
      At line 3271 in file test.s
      At line 3283 in file test.s
      At line 3311 in file test.s
      At line 3332 in file test.s
      At line 3344 in file test.s
      At line 3374 in file test.s
      At line 3393 in file test.s
      At line 3405 in file test.s
      At line 3433 in file test.s
      At line 3450 in file test.s
      At line 3465 in file test.s
      At line 3477 in file test.s
      At line 3505 in file test.s
      At line 3522 in file test.s
      At line 3537 in file test.s
      At line 3549 in file test.s
      At line 3590 in file test.s
      At line 3598 in file test.s
      At line 3610 in file test.s
      At line 3648 in file test.s
      At line 3660 in file test.s
      At line 3672 in file test.s
      At line 3707 in file test.s
      At line 3724 in file test.s
      At line 3732 in file test.s
      At line 3744 in file test.s
      At line 3772 in file test.s
      At line 3787 in file test.s
      At line 3804 in file test.s



ARM Macro Assembler    Page 109 Alphabetic symbol ordering
Relocatable symbols

      At line 3816 in file test.s
      At line 3852 in file test.s
      At line 3864 in file test.s
      At line 3892 in file test.s
      At line 3911 in file test.s
      At line 3923 in file test.s
      At line 3939 in file test.s
      At line 3969 in file test.s
      At line 3984 in file test.s

End_UF 00002774

Symbol: End_UF
   Definitions
      At line 3996 in file test.s
   Uses
      At line 214 in file test.s
      At line 246 in file test.s
      At line 279 in file test.s
      At line 303 in file test.s
      At line 343 in file test.s
      At line 900 in file test.s
      At line 912 in file test.s
      At line 921 in file test.s
      At line 938 in file test.s
      At line 969 in file test.s
      At line 981 in file test.s
      At line 1021 in file test.s
      At line 1033 in file test.s
      At line 1048 in file test.s
      At line 1078 in file test.s
      At line 1090 in file test.s
      At line 1107 in file test.s
      At line 1135 in file test.s
      At line 1147 in file test.s
      At line 1154 in file test.s
      At line 1184 in file test.s
      At line 1196 in file test.s
      At line 1207 in file test.s
      At line 1235 in file test.s
      At line 1247 in file test.s
      At line 1256 in file test.s
      At line 1284 in file test.s
      At line 1296 in file test.s
      At line 1324 in file test.s
      At line 1339 in file test.s
      At line 1371 in file test.s
      At line 1383 in file test.s
      At line 1390 in file test.s
      At line 1426 in file test.s
      At line 1438 in file test.s
      At line 1455 in file test.s
      At line 1483 in file test.s
      At line 1495 in file test.s
      At line 1502 in file test.s
      At line 1540 in file test.s
      At line 1552 in file test.s
      At line 1584 in file test.s
      At line 1596 in file test.s



ARM Macro Assembler    Page 110 Alphabetic symbol ordering
Relocatable symbols

      At line 1632 in file test.s
      At line 1644 in file test.s
      At line 1674 in file test.s
      At line 1686 in file test.s
      At line 1693 in file test.s
      At line 1734 in file test.s
      At line 1746 in file test.s
      At line 1761 in file test.s
      At line 1789 in file test.s
      At line 1801 in file test.s
      At line 1808 in file test.s
      At line 1840 in file test.s
      At line 1852 in file test.s
      At line 1882 in file test.s
      At line 1894 in file test.s
      At line 1928 in file test.s
      At line 1940 in file test.s
      At line 1978 in file test.s
      At line 1990 in file test.s
      At line 1999 in file test.s
      At line 2035 in file test.s
      At line 2047 in file test.s
      At line 2075 in file test.s
      At line 2087 in file test.s
      At line 2128 in file test.s
      At line 2140 in file test.s
      At line 2155 in file test.s
      At line 2191 in file test.s
      At line 2203 in file test.s
      At line 2243 in file test.s
      At line 2255 in file test.s
      At line 2262 in file test.s
      At line 2290 in file test.s
      At line 2302 in file test.s
      At line 2309 in file test.s
      At line 2326 in file test.s
      At line 2362 in file test.s
      At line 2374 in file test.s
      At line 2383 in file test.s
      At line 2423 in file test.s
      At line 2435 in file test.s
      At line 2454 in file test.s
      At line 2485 in file test.s
      At line 2497 in file test.s
      At line 2512 in file test.s
      At line 2527 in file test.s
      At line 2563 in file test.s
      At line 2575 in file test.s
      At line 2619 in file test.s
      At line 2631 in file test.s
      At line 2673 in file test.s
      At line 2685 in file test.s
      At line 2727 in file test.s
      At line 2739 in file test.s
      At line 2781 in file test.s
      At line 2793 in file test.s
      At line 2835 in file test.s
      At line 2847 in file test.s
      At line 2886 in file test.s



ARM Macro Assembler    Page 111 Alphabetic symbol ordering
Relocatable symbols

      At line 2898 in file test.s
      At line 2911 in file test.s
      At line 2939 in file test.s
      At line 2951 in file test.s
      At line 2962 in file test.s
      At line 2992 in file test.s
      At line 3004 in file test.s
      At line 3013 in file test.s
      At line 3045 in file test.s
      At line 3057 in file test.s
      At line 3064 in file test.s
      At line 3098 in file test.s
      At line 3110 in file test.s
      At line 3146 in file test.s
      At line 3158 in file test.s
      At line 3175 in file test.s
      At line 3211 in file test.s
      At line 3223 in file test.s
      At line 3230 in file test.s
      At line 3248 in file test.s
      At line 3263 in file test.s
      At line 3291 in file test.s
      At line 3303 in file test.s
      At line 3324 in file test.s
      At line 3352 in file test.s
      At line 3364 in file test.s
      At line 3383 in file test.s
      At line 3413 in file test.s
      At line 3425 in file test.s
      At line 3440 in file test.s
      At line 3457 in file test.s
      At line 3485 in file test.s
      At line 3497 in file test.s
      At line 3512 in file test.s
      At line 3529 in file test.s
      At line 3557 in file test.s
      At line 3569 in file test.s
      At line 3576 in file test.s
      At line 3621 in file test.s
      At line 3633 in file test.s
      At line 3640 in file test.s
      At line 3680 in file test.s
      At line 3692 in file test.s
      At line 3699 in file test.s
      At line 3716 in file test.s
      At line 3752 in file test.s
      At line 3764 in file test.s
      At line 3779 in file test.s
      At line 3794 in file test.s
      At line 3824 in file test.s
      At line 3836 in file test.s
      At line 3872 in file test.s
      At line 3884 in file test.s
      At line 3903 in file test.s
      At line 3931 in file test.s
      At line 3954 in file test.s
      At line 3961 in file test.s
      At line 3976 in file test.s




ARM Macro Assembler    Page 112 Alphabetic symbol ordering
Relocatable symbols

End_cm 0000278E

Symbol: End_cm
   Definitions
      At line 4018 in file test.s
   Uses
      At line 4015 in file test.s
Comment: End_cm used once
GetChar 00002810

Symbol: GetChar
   Definitions
      At line 4124 in file test.s
   Uses
      At line 329 in file test.s
      At line 3944 in file test.s

Init_UART0_Polling 00002792

Symbol: Init_UART0_Polling
   Definitions
      At line 4024 in file test.s
   Uses
      At line 173 in file test.s
      At line 183 in file test.s

L_0 000003D0

Symbol: L_0
   Definitions
      At line 574 in file test.s
   Uses
      At line 572 in file test.s
Comment: L_0 used once
L_1 00000770

Symbol: L_1
   Definitions
      At line 954 in file test.s
   Uses
      At line 952 in file test.s
Comment: L_1 used once
L_2 00000B90

Symbol: L_2
   Definitions
      At line 1336 in file test.s
   Uses
      At line 1334 in file test.s
Comment: L_2 used once
L_3 00000FA8

Symbol: L_3
   Definitions
      At line 1716 in file test.s
   Uses
      At line 1714 in file test.s
Comment: L_3 used once
L_4 000013CC



ARM Macro Assembler    Page 113 Alphabetic symbol ordering
Relocatable symbols


Symbol: L_4
   Definitions
      At line 2100 in file test.s
   Uses
      At line 2098 in file test.s
Comment: L_4 used once
L_5 000017E4

Symbol: L_5
   Definitions
      At line 2479 in file test.s
   Uses
      At line 2477 in file test.s
Comment: L_5 used once
L_6 00001C00

Symbol: L_6
   Definitions
      At line 2858 in file test.s
   Uses
      At line 2856 in file test.s
Comment: L_6 used once
L_7 0000201C

Symbol: L_7
   Definitions
      At line 3237 in file test.s
   Uses
      At line 3235 in file test.s
Comment: L_7 used once
L_8 0000243C

Symbol: L_8
   Definitions
      At line 3618 in file test.s
   Uses
      At line 3616 in file test.s
Comment: L_8 used once
MyCode 00000000

Symbol: MyCode
   Definitions
      At line 168 in file test.s
   Uses
      None
Comment: MyCode unused
PollRx 00002816

Symbol: PollRx
   Definitions
      At line 4132 in file test.s
   Uses
      At line 4134 in file test.s
Comment: PollRx used once
PollTx 00002804

Symbol: PollTx
   Definitions



ARM Macro Assembler    Page 114 Alphabetic symbol ordering
Relocatable symbols

      At line 4111 in file test.s
   Uses
      At line 4113 in file test.s
Comment: PollTx used once
PutChar 000027FE

Symbol: PutChar
   Definitions
      At line 4104 in file test.s
   Uses
      At line 172 in file test.s
      At line 330 in file test.s
      At line 916 in file test.s
      At line 918 in file test.s
      At line 925 in file test.s
      At line 927 in file test.s
      At line 935 in file test.s
      At line 942 in file test.s
      At line 985 in file test.s
      At line 987 in file test.s
      At line 995 in file test.s
      At line 997 in file test.s
      At line 1037 in file test.s
      At line 1045 in file test.s
      At line 1052 in file test.s
      At line 1054 in file test.s
      At line 1094 in file test.s
      At line 1102 in file test.s
      At line 1104 in file test.s
      At line 1111 in file test.s
      At line 1151 in file test.s
      At line 1158 in file test.s
      At line 1160 in file test.s
      At line 1200 in file test.s
      At line 1202 in file test.s
      At line 1204 in file test.s
      At line 1211 in file test.s
      At line 1251 in file test.s
      At line 1253 in file test.s
      At line 1260 in file test.s
      At line 1300 in file test.s
      At line 1343 in file test.s
      At line 1345 in file test.s
      At line 1347 in file test.s
      At line 1387 in file test.s
      At line 1394 in file test.s
      At line 1402 in file test.s
      At line 1442 in file test.s
      At line 1444 in file test.s
      At line 1452 in file test.s
      At line 1459 in file test.s
      At line 1499 in file test.s
      At line 1506 in file test.s
      At line 1508 in file test.s
      At line 1516 in file test.s
      At line 1556 in file test.s
      At line 1558 in file test.s
      At line 1560 in file test.s
      At line 1600 in file test.s



ARM Macro Assembler    Page 115 Alphabetic symbol ordering
Relocatable symbols

      At line 1608 in file test.s
      At line 1648 in file test.s
      At line 1650 in file test.s
      At line 1690 in file test.s
      At line 1697 in file test.s
      At line 1705 in file test.s
      At line 1707 in file test.s
      At line 1750 in file test.s
      At line 1758 in file test.s
      At line 1765 in file test.s
      At line 1805 in file test.s
      At line 1812 in file test.s
      At line 1814 in file test.s
      At line 1816 in file test.s
      At line 1856 in file test.s
      At line 1858 in file test.s
      At line 1898 in file test.s
      At line 1900 in file test.s
      At line 1902 in file test.s
      At line 1904 in file test.s
      At line 1944 in file test.s
      At line 1946 in file test.s
      At line 1954 in file test.s
      At line 1994 in file test.s
      At line 1996 in file test.s
      At line 2003 in file test.s
      At line 2011 in file test.s
      At line 2051 in file test.s
      At line 2091 in file test.s
      At line 2102 in file test.s
      At line 2104 in file test.s
      At line 2144 in file test.s
      At line 2152 in file test.s
      At line 2159 in file test.s
      At line 2167 in file test.s
      At line 2207 in file test.s
      At line 2215 in file test.s
      At line 2217 in file test.s
      At line 2219 in file test.s
      At line 2259 in file test.s
      At line 2266 in file test.s
      At line 2306 in file test.s
      At line 2313 in file test.s
      At line 2315 in file test.s
      At line 2323 in file test.s
      At line 2330 in file test.s
      At line 2338 in file test.s
      At line 2378 in file test.s
      At line 2380 in file test.s
      At line 2387 in file test.s
      At line 2389 in file test.s
      At line 2397 in file test.s
      At line 2399 in file test.s
      At line 2439 in file test.s
      At line 2447 in file test.s
      At line 2449 in file test.s
      At line 2451 in file test.s
      At line 2458 in file test.s
      At line 2501 in file test.s



ARM Macro Assembler    Page 116 Alphabetic symbol ordering
Relocatable symbols

      At line 2509 in file test.s
      At line 2516 in file test.s
      At line 2524 in file test.s
      At line 2531 in file test.s
      At line 2539 in file test.s
      At line 2579 in file test.s
      At line 2581 in file test.s
      At line 2583 in file test.s
      At line 2591 in file test.s
      At line 2593 in file test.s
      At line 2595 in file test.s
      At line 2635 in file test.s
      At line 2637 in file test.s
      At line 2639 in file test.s
      At line 2641 in file test.s
      At line 2649 in file test.s
      At line 2689 in file test.s
      At line 2691 in file test.s
      At line 2693 in file test.s
      At line 2701 in file test.s
      At line 2703 in file test.s
      At line 2743 in file test.s
      At line 2745 in file test.s
      At line 2753 in file test.s
      At line 2755 in file test.s
      At line 2757 in file test.s
      At line 2797 in file test.s
      At line 2805 in file test.s
      At line 2807 in file test.s
      At line 2809 in file test.s
      At line 2811 in file test.s
      At line 2851 in file test.s
      At line 2853 in file test.s
      At line 2855 in file test.s
      At line 2860 in file test.s
      At line 2862 in file test.s
      At line 2902 in file test.s
      At line 2904 in file test.s
      At line 2906 in file test.s
      At line 2908 in file test.s
      At line 2915 in file test.s
      At line 2955 in file test.s
      At line 2957 in file test.s
      At line 2959 in file test.s
      At line 2966 in file test.s
      At line 2968 in file test.s
      At line 3008 in file test.s
      At line 3010 in file test.s
      At line 3017 in file test.s
      At line 3019 in file test.s
      At line 3021 in file test.s
      At line 3061 in file test.s
      At line 3068 in file test.s
      At line 3070 in file test.s
      At line 3072 in file test.s
      At line 3074 in file test.s
      At line 3114 in file test.s
      At line 3116 in file test.s
      At line 3118 in file test.s



ARM Macro Assembler    Page 117 Alphabetic symbol ordering
Relocatable symbols

      At line 3120 in file test.s
      At line 3122 in file test.s
      At line 3162 in file test.s
      At line 3170 in file test.s
      At line 3172 in file test.s
      At line 3179 in file test.s
      At line 3187 in file test.s
      At line 3227 in file test.s
      At line 3234 in file test.s
      At line 3245 in file test.s
      At line 3252 in file test.s
      At line 3260 in file test.s
      At line 3267 in file test.s
      At line 3307 in file test.s
      At line 3315 in file test.s
      At line 3317 in file test.s
      At line 3319 in file test.s
      At line 3321 in file test.s
      At line 3328 in file test.s
      At line 3368 in file test.s
      At line 3370 in file test.s
      At line 3378 in file test.s
      At line 3380 in file test.s
      At line 3387 in file test.s
      At line 3389 in file test.s
      At line 3429 in file test.s
      At line 3437 in file test.s
      At line 3444 in file test.s
      At line 3446 in file test.s
      At line 3454 in file test.s
      At line 3461 in file test.s
      At line 3501 in file test.s
      At line 3509 in file test.s
      At line 3516 in file test.s
      At line 3518 in file test.s
      At line 3526 in file test.s
      At line 3533 in file test.s
      At line 3573 in file test.s
      At line 3580 in file test.s
      At line 3582 in file test.s
      At line 3584 in file test.s
      At line 3586 in file test.s
      At line 3594 in file test.s
      At line 3637 in file test.s
      At line 3644 in file test.s
      At line 3652 in file test.s
      At line 3654 in file test.s
      At line 3656 in file test.s
      At line 3696 in file test.s
      At line 3703 in file test.s
      At line 3711 in file test.s
      At line 3713 in file test.s
      At line 3720 in file test.s
      At line 3728 in file test.s
      At line 3768 in file test.s
      At line 3776 in file test.s
      At line 3783 in file test.s
      At line 3791 in file test.s
      At line 3798 in file test.s



ARM Macro Assembler    Page 118 Alphabetic symbol ordering
Relocatable symbols

      At line 3800 in file test.s
      At line 3840 in file test.s
      At line 3842 in file test.s
      At line 3844 in file test.s
      At line 3846 in file test.s
      At line 3848 in file test.s
      At line 3888 in file test.s
      At line 3896 in file test.s
      At line 3898 in file test.s
      At line 3900 in file test.s
      At line 3907 in file test.s
      At line 3935 in file test.s
      At line 3945 in file test.s
      At line 3958 in file test.s
      At line 3965 in file test.s
      At line 3973 in file test.s
      At line 3980 in file test.s
      At line 3988 in file test.s
      At line 4156 in file test.s

PutLoop 0000282A

Symbol: PutLoop
   Definitions
      At line 4152 in file test.s
   Uses
      At line 4162 in file test.s
Comment: PutLoop used once
PutStringSB 00002822

Symbol: PutStringSB
   Definitions
      At line 4145 in file test.s
   Uses
      At line 328 in file test.s
      At line 333 in file test.s
      At line 3943 in file test.s
      At line 3948 in file test.s
      At line 3993 in file test.s
      At line 3997 in file test.s

Reset_Handler 00000000

Symbol: Reset_Handler
   Definitions
      At line 174 in file test.s
   Uses
      At line 170 in file test.s
      At line 4182 in file test.s

Start 00000020

Symbol: Start
   Definitions
      At line 190 in file test.s
   Uses
      At line 188 in file test.s
Comment: Start used once
W_0 00000034



ARM Macro Assembler    Page 119 Alphabetic symbol ordering
Relocatable symbols


Symbol: W_0
   Definitions
      At line 205 in file test.s
   Uses
      At line 238 in file test.s
Comment: W_0 used once
W_1 00000092

Symbol: W_1
   Definitions
      At line 252 in file test.s
   Uses
      At line 285 in file test.s
Comment: W_1 used once
W_10 000001E0

Symbol: W_10
   Definitions
      At line 415 in file test.s
   Uses
      At line 3552 in file test.s
Comment: W_10 used once
W_100 00001E7C

Symbol: W_100
   Definitions
      At line 3149 in file test.s
   Uses
      At line 3197 in file test.s
Comment: W_100 used once
W_101 00001F08

Symbol: W_101
   Definitions
      At line 3214 in file test.s
   Uses
      At line 3277 in file test.s
Comment: W_101 used once
W_102 00002096

Symbol: W_102
   Definitions
      At line 3294 in file test.s
   Uses
      At line 3338 in file test.s
Comment: W_102 used once
W_103 0000211C

Symbol: W_103
   Definitions
      At line 3355 in file test.s
   Uses
      At line 3399 in file test.s
Comment: W_103 used once
W_104 000021A2

Symbol: W_104
   Definitions



ARM Macro Assembler    Page 120 Alphabetic symbol ordering
Relocatable symbols

      At line 3416 in file test.s
   Uses
      At line 3471 in file test.s
Comment: W_104 used once
W_105 0000223E

Symbol: W_105
   Definitions
      At line 3488 in file test.s
   Uses
      At line 3543 in file test.s
Comment: W_105 used once
W_106 000022DA

Symbol: W_106
   Definitions
      At line 3560 in file test.s
   Uses
      At line 3604 in file test.s
Comment: W_106 used once
W_107 00002448

Symbol: W_107
   Definitions
      At line 3624 in file test.s
   Uses
      At line 3666 in file test.s
Comment: W_107 used once
W_108 000024C8

Symbol: W_108
   Definitions
      At line 3683 in file test.s
   Uses
      At line 3738 in file test.s
Comment: W_108 used once
W_109 00002564

Symbol: W_109
   Definitions
      At line 3755 in file test.s
   Uses
      At line 3810 in file test.s
Comment: W_109 used once
W_11 000001F4

Symbol: W_11
   Definitions
      At line 425 in file test.s
   Uses
      At line 3480 in file test.s
Comment: W_11 used once
W_110 00002600

Symbol: W_110
   Definitions
      At line 3827 in file test.s
   Uses
      At line 3858 in file test.s



ARM Macro Assembler    Page 121 Alphabetic symbol ordering
Relocatable symbols

Comment: W_110 used once
W_111 0000266A

Symbol: W_111
   Definitions
      At line 3875 in file test.s
   Uses
      At line 3917 in file test.s
Comment: W_111 used once
W_12 00000208

Symbol: W_12
   Definitions
      At line 435 in file test.s
   Uses
      At line 3408 in file test.s
Comment: W_12 used once
W_13 0000021C

Symbol: W_13
   Definitions
      At line 445 in file test.s
   Uses
      At line 3347 in file test.s
Comment: W_13 used once
W_14 00000230

Symbol: W_14
   Definitions
      At line 455 in file test.s
   Uses
      At line 3286 in file test.s
Comment: W_14 used once
W_15 00000244

Symbol: W_15
   Definitions
      At line 465 in file test.s
   Uses
      At line 3206 in file test.s
Comment: W_15 used once
W_16 00000258

Symbol: W_16
   Definitions
      At line 475 in file test.s
   Uses
      At line 3141 in file test.s
Comment: W_16 used once
W_17 0000026C

Symbol: W_17
   Definitions
      At line 485 in file test.s
   Uses
      At line 3093 in file test.s
Comment: W_17 used once
W_18 00000280




ARM Macro Assembler    Page 122 Alphabetic symbol ordering
Relocatable symbols

Symbol: W_18
   Definitions
      At line 495 in file test.s
   Uses
      At line 3040 in file test.s
Comment: W_18 used once
W_19 00000294

Symbol: W_19
   Definitions
      At line 505 in file test.s
   Uses
      At line 2987 in file test.s
Comment: W_19 used once
W_2 000000E6

Symbol: W_2
   Definitions
      At line 294 in file test.s
   Uses
      At line 318 in file test.s
Comment: W_2 used once
W_20 000002A8

Symbol: W_20
   Definitions
      At line 515 in file test.s
   Uses
      At line 2934 in file test.s
Comment: W_20 used once
W_21 000002BC

Symbol: W_21
   Definitions
      At line 525 in file test.s
   Uses
      At line 2881 in file test.s
Comment: W_21 used once
W_22 000002D0

Symbol: W_22
   Definitions
      At line 535 in file test.s
   Uses
      At line 2830 in file test.s
Comment: W_22 used once
W_23 000002E4

Symbol: W_23
   Definitions
      At line 545 in file test.s
   Uses
      At line 2776 in file test.s
Comment: W_23 used once
W_24 000002F8

Symbol: W_24
   Definitions
      At line 555 in file test.s



ARM Macro Assembler    Page 123 Alphabetic symbol ordering
Relocatable symbols

   Uses
      At line 2722 in file test.s
Comment: W_24 used once
W_25 0000030C

Symbol: W_25
   Definitions
      At line 565 in file test.s
   Uses
      At line 2668 in file test.s
Comment: W_25 used once
W_26 000003D8

Symbol: W_26
   Definitions
      At line 578 in file test.s
   Uses
      At line 2614 in file test.s
Comment: W_26 used once
W_27 000003EC

Symbol: W_27
   Definitions
      At line 588 in file test.s
   Uses
      At line 2558 in file test.s
Comment: W_27 used once
W_28 00000400

Symbol: W_28
   Definitions
      At line 598 in file test.s
   Uses
      At line 2480 in file test.s
Comment: W_28 used once
W_29 00000414

Symbol: W_29
   Definitions
      At line 608 in file test.s
   Uses
      At line 2418 in file test.s
Comment: W_29 used once
W_3 0000013E

Symbol: W_3
   Definitions
      At line 334 in file test.s
   Uses
      At line 3949 in file test.s
Comment: W_3 used once
W_30 00000428

Symbol: W_30
   Definitions
      At line 618 in file test.s
   Uses
      At line 2357 in file test.s
Comment: W_30 used once



ARM Macro Assembler    Page 124 Alphabetic symbol ordering
Relocatable symbols

W_31 0000043C

Symbol: W_31
   Definitions
      At line 628 in file test.s
   Uses
      At line 2285 in file test.s
Comment: W_31 used once
W_32 00000450

Symbol: W_32
   Definitions
      At line 638 in file test.s
   Uses
      At line 2238 in file test.s
Comment: W_32 used once
W_33 00000464

Symbol: W_33
   Definitions
      At line 648 in file test.s
   Uses
      At line 2186 in file test.s
Comment: W_33 used once
W_34 00000478

Symbol: W_34
   Definitions
      At line 658 in file test.s
   Uses
      At line 2123 in file test.s
Comment: W_34 used once
W_35 0000048C

Symbol: W_35
   Definitions
      At line 668 in file test.s
   Uses
      At line 2070 in file test.s
Comment: W_35 used once
W_36 000004A0

Symbol: W_36
   Definitions
      At line 678 in file test.s
   Uses
      At line 2030 in file test.s
Comment: W_36 used once
W_37 000004B4

Symbol: W_37
   Definitions
      At line 688 in file test.s
   Uses
      At line 1973 in file test.s
Comment: W_37 used once
W_38 000004C8

Symbol: W_38



ARM Macro Assembler    Page 125 Alphabetic symbol ordering
Relocatable symbols

   Definitions
      At line 698 in file test.s
   Uses
      At line 1923 in file test.s
Comment: W_38 used once
W_39 000004DC

Symbol: W_39
   Definitions
      At line 708 in file test.s
   Uses
      At line 1877 in file test.s
Comment: W_39 used once
W_4 00000168

Symbol: W_4
   Definitions
      At line 355 in file test.s
   Uses
      At line 3926 in file test.s
Comment: W_4 used once
W_40 000004F0

Symbol: W_40
   Definitions
      At line 718 in file test.s
   Uses
      At line 1835 in file test.s
Comment: W_40 used once
W_41 00000504

Symbol: W_41
   Definitions
      At line 728 in file test.s
   Uses
      At line 1784 in file test.s
Comment: W_41 used once
W_42 00000518

Symbol: W_42
   Definitions
      At line 738 in file test.s
   Uses
      At line 1729 in file test.s
Comment: W_42 used once
W_43 0000052C

Symbol: W_43
   Definitions
      At line 748 in file test.s
   Uses
      At line 1669 in file test.s
Comment: W_43 used once
W_44 00000540

Symbol: W_44
   Definitions
      At line 758 in file test.s
   Uses



ARM Macro Assembler    Page 126 Alphabetic symbol ordering
Relocatable symbols

      At line 1627 in file test.s
Comment: W_44 used once
W_45 00000554

Symbol: W_45
   Definitions
      At line 768 in file test.s
   Uses
      At line 1579 in file test.s
Comment: W_45 used once
W_46 00000568

Symbol: W_46
   Definitions
      At line 778 in file test.s
   Uses
      At line 1535 in file test.s
Comment: W_46 used once
W_47 0000057C

Symbol: W_47
   Definitions
      At line 788 in file test.s
   Uses
      At line 1478 in file test.s
Comment: W_47 used once
W_48 00000590

Symbol: W_48
   Definitions
      At line 798 in file test.s
   Uses
      At line 1421 in file test.s
Comment: W_48 used once
W_49 000005A4

Symbol: W_49
   Definitions
      At line 808 in file test.s
   Uses
      At line 1366 in file test.s
Comment: W_49 used once
W_5 0000017C

Symbol: W_5
   Definitions
      At line 365 in file test.s
   Uses
      At line 3867 in file test.s
Comment: W_5 used once
W_50 000005B8

Symbol: W_50
   Definitions
      At line 818 in file test.s
   Uses
      At line 1319 in file test.s
Comment: W_50 used once
W_51 000005CC



ARM Macro Assembler    Page 127 Alphabetic symbol ordering
Relocatable symbols


Symbol: W_51
   Definitions
      At line 828 in file test.s
   Uses
      At line 1279 in file test.s
Comment: W_51 used once
W_52 000005E0

Symbol: W_52
   Definitions
      At line 838 in file test.s
   Uses
      At line 1230 in file test.s
Comment: W_52 used once
W_53 000005F4

Symbol: W_53
   Definitions
      At line 848 in file test.s
   Uses
      At line 1179 in file test.s
Comment: W_53 used once
W_54 00000608

Symbol: W_54
   Definitions
      At line 858 in file test.s
   Uses
      At line 1130 in file test.s
Comment: W_54 used once
W_55 0000061C

Symbol: W_55
   Definitions
      At line 868 in file test.s
   Uses
      At line 1073 in file test.s
Comment: W_55 used once
W_56 00000630

Symbol: W_56
   Definitions
      At line 878 in file test.s
   Uses
      At line 1016 in file test.s
Comment: W_56 used once
W_57 00000644

Symbol: W_57
   Definitions
      At line 888 in file test.s
   Uses
      At line 964 in file test.s
Comment: W_57 used once
W_58 00000662

Symbol: W_58
   Definitions



ARM Macro Assembler    Page 128 Alphabetic symbol ordering
Relocatable symbols

      At line 903 in file test.s
   Uses
      At line 955 in file test.s
Comment: W_58 used once
W_59 00000794

Symbol: W_59
   Definitions
      At line 972 in file test.s
   Uses
      At line 1007 in file test.s
Comment: W_59 used once
W_6 00000190

Symbol: W_6
   Definitions
      At line 375 in file test.s
   Uses
      At line 3819 in file test.s
Comment: W_6 used once
W_60 00000804

Symbol: W_60
   Definitions
      At line 1024 in file test.s
   Uses
      At line 1064 in file test.s
Comment: W_60 used once
W_61 0000087E

Symbol: W_61
   Definitions
      At line 1081 in file test.s
   Uses
      At line 1121 in file test.s
Comment: W_61 used once
W_62 000008F8

Symbol: W_62
   Definitions
      At line 1138 in file test.s
   Uses
      At line 1170 in file test.s
Comment: W_62 used once
W_63 00000960

Symbol: W_63
   Definitions
      At line 1187 in file test.s
   Uses
      At line 1221 in file test.s
Comment: W_63 used once
W_64 000009CE

Symbol: W_64
   Definitions
      At line 1238 in file test.s
   Uses
      At line 1270 in file test.s



ARM Macro Assembler    Page 129 Alphabetic symbol ordering
Relocatable symbols

Comment: W_64 used once
W_65 00000A36

Symbol: W_65
   Definitions
      At line 1287 in file test.s
   Uses
      At line 1310 in file test.s
Comment: W_65 used once
W_66 00000A88

Symbol: W_66
   Definitions
      At line 1327 in file test.s
   Uses
      At line 1357 in file test.s
Comment: W_66 used once
W_67 00000BE2

Symbol: W_67
   Definitions
      At line 1374 in file test.s
   Uses
      At line 1412 in file test.s
Comment: W_67 used once
W_68 00000C56

Symbol: W_68
   Definitions
      At line 1429 in file test.s
   Uses
      At line 1469 in file test.s
Comment: W_68 used once
W_69 00000CD0

Symbol: W_69
   Definitions
      At line 1486 in file test.s
   Uses
      At line 1526 in file test.s
Comment: W_69 used once
W_7 000001A4

Symbol: W_7
   Definitions
      At line 385 in file test.s
   Uses
      At line 3747 in file test.s
Comment: W_7 used once
W_70 00000D4A

Symbol: W_70
   Definitions
      At line 1543 in file test.s
   Uses
      At line 1570 in file test.s
Comment: W_70 used once
W_71 00000DA8




ARM Macro Assembler    Page 130 Alphabetic symbol ordering
Relocatable symbols

Symbol: W_71
   Definitions
      At line 1587 in file test.s
   Uses
      At line 1618 in file test.s
Comment: W_71 used once
W_72 00000E0C

Symbol: W_72
   Definitions
      At line 1635 in file test.s
   Uses
      At line 1660 in file test.s
Comment: W_72 used once
W_73 00000E64

Symbol: W_73
   Definitions
      At line 1677 in file test.s
   Uses
      At line 1720 in file test.s
Comment: W_73 used once
W_74 00000FD2

Symbol: W_74
   Definitions
      At line 1737 in file test.s
   Uses
      At line 1775 in file test.s
Comment: W_74 used once
W_75 00001046

Symbol: W_75
   Definitions
      At line 1792 in file test.s
   Uses
      At line 1826 in file test.s
Comment: W_75 used once
W_76 000010B4

Symbol: W_76
   Definitions
      At line 1843 in file test.s
   Uses
      At line 1868 in file test.s
Comment: W_76 used once
W_77 0000110C

Symbol: W_77
   Definitions
      At line 1885 in file test.s
   Uses
      At line 1914 in file test.s
Comment: W_77 used once
W_78 00001170

Symbol: W_78
   Definitions
      At line 1931 in file test.s



ARM Macro Assembler    Page 131 Alphabetic symbol ordering
Relocatable symbols

   Uses
      At line 1964 in file test.s
Comment: W_78 used once
W_79 000011DA

Symbol: W_79
   Definitions
      At line 1981 in file test.s
   Uses
      At line 2021 in file test.s
Comment: W_79 used once
W_8 000001B8

Symbol: W_8
   Definitions
      At line 395 in file test.s
   Uses
      At line 3675 in file test.s
Comment: W_8 used once
W_80 00001254

Symbol: W_80
   Definitions
      At line 2038 in file test.s
   Uses
      At line 2061 in file test.s
Comment: W_80 used once
W_81 000012A6

Symbol: W_81
   Definitions
      At line 2078 in file test.s
   Uses
      At line 2114 in file test.s
Comment: W_81 used once
W_82 0000140E

Symbol: W_82
   Definitions
      At line 2131 in file test.s
   Uses
      At line 2177 in file test.s
Comment: W_82 used once
W_83 00001494

Symbol: W_83
   Definitions
      At line 2194 in file test.s
   Uses
      At line 2229 in file test.s
Comment: W_83 used once
W_84 00001504

Symbol: W_84
   Definitions
      At line 2246 in file test.s
   Uses
      At line 2276 in file test.s
Comment: W_84 used once



ARM Macro Assembler    Page 132 Alphabetic symbol ordering
Relocatable symbols

W_85 00001566

Symbol: W_85
   Definitions
      At line 2293 in file test.s
   Uses
      At line 2348 in file test.s
Comment: W_85 used once
W_86 00001602

Symbol: W_86
   Definitions
      At line 2365 in file test.s
   Uses
      At line 2409 in file test.s
Comment: W_86 used once
W_87 00001688

Symbol: W_87
   Definitions
      At line 2426 in file test.s
   Uses
      At line 2468 in file test.s
Comment: W_87 used once
W_88 000017F6

Symbol: W_88
   Definitions
      At line 2488 in file test.s
   Uses
      At line 2549 in file test.s
Comment: W_88 used once
W_89 0000189E

Symbol: W_89
   Definitions
      At line 2566 in file test.s
   Uses
      At line 2605 in file test.s
Comment: W_89 used once
W_9 000001CC

Symbol: W_9
   Definitions
      At line 405 in file test.s
   Uses
      At line 3613 in file test.s
Comment: W_9 used once
W_90 0000191A

Symbol: W_90
   Definitions
      At line 2622 in file test.s
   Uses
      At line 2659 in file test.s
Comment: W_90 used once
W_91 00001990

Symbol: W_91



ARM Macro Assembler    Page 133 Alphabetic symbol ordering
Relocatable symbols

   Definitions
      At line 2676 in file test.s
   Uses
      At line 2713 in file test.s
Comment: W_91 used once
W_92 00001A06

Symbol: W_92
   Definitions
      At line 2730 in file test.s
   Uses
      At line 2767 in file test.s
Comment: W_92 used once
W_93 00001A7C

Symbol: W_93
   Definitions
      At line 2784 in file test.s
   Uses
      At line 2821 in file test.s
Comment: W_93 used once
W_94 00001AF2

Symbol: W_94
   Definitions
      At line 2838 in file test.s
   Uses
      At line 2872 in file test.s
Comment: W_94 used once
W_95 00001C42

Symbol: W_95
   Definitions
      At line 2889 in file test.s
   Uses
      At line 2925 in file test.s
Comment: W_95 used once
W_96 00001CB6

Symbol: W_96
   Definitions
      At line 2942 in file test.s
   Uses
      At line 2978 in file test.s
Comment: W_96 used once
W_97 00001D2A

Symbol: W_97
   Definitions
      At line 2995 in file test.s
   Uses
      At line 3031 in file test.s
Comment: W_97 used once
W_98 00001D9E

Symbol: W_98
   Definitions
      At line 3048 in file test.s
   Uses



ARM Macro Assembler    Page 134 Alphabetic symbol ordering
Relocatable symbols

      At line 3084 in file test.s
Comment: W_98 used once
W_99 00001E12

Symbol: W_99
   Definitions
      At line 3101 in file test.s
   Uses
      At line 3132 in file test.s
Comment: W_99 used once
cm_Loop 00002784

Symbol: cm_Loop
   Definitions
      At line 4012 in file test.s
   Uses
      At line 4016 in file test.s
Comment: cm_Loop used once
main 00000000

Symbol: main
   Definitions
      At line 175 in file test.s
   Uses
      None
Comment: main unused
912 symbols



ARM Macro Assembler    Page 1 Alphabetic symbol ordering
Relocatable symbols

RESET 00000000

Symbol: RESET
   Definitions
      At line 4172 in file test.s
   Uses
      None
Comment: RESET unused
__Vectors 00000000

Symbol: __Vectors
   Definitions
      At line 4179 in file test.s
   Uses
      At line 4173 in file test.s
      At line 4232 in file test.s

__Vectors_End 000000C0

Symbol: __Vectors_End
   Definitions
      At line 4231 in file test.s
   Uses
      At line 4174 in file test.s
      At line 4232 in file test.s

3 symbols



ARM Macro Assembler    Page 1 Alphabetic symbol ordering
Relocatable symbols

CRLF 0000000A

Symbol: CRLF
   Definitions
      At line 4239 in file test.s
   Uses
      At line 332 in file test.s
      At line 3947 in file test.s

MyConst 00000000

Symbol: MyConst
   Definitions
      At line 4236 in file test.s
   Uses
      None
Comment: MyConst unused
OF_message 0000000D

Symbol: OF_message
   Definitions
      At line 4240 in file test.s
   Uses
      At line 3992 in file test.s
Comment: OF_message used once
UF_message 0000001F

Symbol: UF_message
   Definitions
      At line 4241 in file test.s
   Uses
      At line 3996 in file test.s
Comment: UF_message used once
input_mes 00000000

Symbol: input_mes
   Definitions
      At line 4238 in file test.s
   Uses
      At line 327 in file test.s
      At line 3942 in file test.s

5 symbols



ARM Macro Assembler    Page 1 Alphabetic symbol ordering
Relocatable symbols

Memory 00000000

Symbol: Memory
   Definitions
      At line 4248 in file test.s
   Uses
      At line 184 in file test.s
Comment: Memory used once
MyData 00000000

Symbol: MyData
   Definitions
      At line 4246 in file test.s
   Uses
      None
Comment: MyData unused
2 symbols



ARM Macro Assembler    Page 1 Alphabetic symbol ordering
Absolute symbols

ADC0_BASE 4003B000

Symbol: ADC0_BASE
   Definitions
      At line 163 in file MKL46Z4.s
   Uses
      At line 191 in file MKL46Z4.s
      At line 192 in file MKL46Z4.s
      At line 193 in file MKL46Z4.s
      At line 194 in file MKL46Z4.s
      At line 195 in file MKL46Z4.s
      At line 196 in file MKL46Z4.s
      At line 197 in file MKL46Z4.s
      At line 198 in file MKL46Z4.s
      At line 199 in file MKL46Z4.s
      At line 200 in file MKL46Z4.s
      At line 201 in file MKL46Z4.s
      At line 202 in file MKL46Z4.s
      At line 203 in file MKL46Z4.s
      At line 204 in file MKL46Z4.s
      At line 205 in file MKL46Z4.s
      At line 206 in file MKL46Z4.s
      At line 207 in file MKL46Z4.s
      At line 208 in file MKL46Z4.s
      At line 209 in file MKL46Z4.s
      At line 210 in file MKL46Z4.s
      At line 211 in file MKL46Z4.s
      At line 212 in file MKL46Z4.s
      At line 213 in file MKL46Z4.s
      At line 214 in file MKL46Z4.s
      At line 215 in file MKL46Z4.s
      At line 216 in file MKL46Z4.s
      At line 217 in file MKL46Z4.s

ADC0_CFG1 4003B008

Symbol: ADC0_CFG1
   Definitions
      At line 191 in file MKL46Z4.s
   Uses
      None
Comment: ADC0_CFG1 unused
ADC0_CFG2 4003B00C

Symbol: ADC0_CFG2
   Definitions
      At line 192 in file MKL46Z4.s
   Uses
      None
Comment: ADC0_CFG2 unused
ADC0_CLM0 4003B06C

Symbol: ADC0_CLM0
   Definitions
      At line 195 in file MKL46Z4.s
   Uses
      None
Comment: ADC0_CLM0 unused
ADC0_CLM1 4003B068



ARM Macro Assembler    Page 2 Alphabetic symbol ordering
Absolute symbols


Symbol: ADC0_CLM1
   Definitions
      At line 196 in file MKL46Z4.s
   Uses
      None
Comment: ADC0_CLM1 unused
ADC0_CLM2 4003B064

Symbol: ADC0_CLM2
   Definitions
      At line 197 in file MKL46Z4.s
   Uses
      None
Comment: ADC0_CLM2 unused
ADC0_CLM3 4003B060

Symbol: ADC0_CLM3
   Definitions
      At line 198 in file MKL46Z4.s
   Uses
      None
Comment: ADC0_CLM3 unused
ADC0_CLM4 4003B05C

Symbol: ADC0_CLM4
   Definitions
      At line 199 in file MKL46Z4.s
   Uses
      None
Comment: ADC0_CLM4 unused
ADC0_CLMD 4003B054

Symbol: ADC0_CLMD
   Definitions
      At line 193 in file MKL46Z4.s
   Uses
      None
Comment: ADC0_CLMD unused
ADC0_CLMS 4003B058

Symbol: ADC0_CLMS
   Definitions
      At line 194 in file MKL46Z4.s
   Uses
      None
Comment: ADC0_CLMS unused
ADC0_CLP0 4003B04C

Symbol: ADC0_CLP0
   Definitions
      At line 202 in file MKL46Z4.s
   Uses
      None
Comment: ADC0_CLP0 unused
ADC0_CLP1 4003B048

Symbol: ADC0_CLP1
   Definitions



ARM Macro Assembler    Page 3 Alphabetic symbol ordering
Absolute symbols

      At line 203 in file MKL46Z4.s
   Uses
      None
Comment: ADC0_CLP1 unused
ADC0_CLP2 4003B044

Symbol: ADC0_CLP2
   Definitions
      At line 204 in file MKL46Z4.s
   Uses
      None
Comment: ADC0_CLP2 unused
ADC0_CLP3 4003B040

Symbol: ADC0_CLP3
   Definitions
      At line 205 in file MKL46Z4.s
   Uses
      None
Comment: ADC0_CLP3 unused
ADC0_CLP4 4003B03C

Symbol: ADC0_CLP4
   Definitions
      At line 206 in file MKL46Z4.s
   Uses
      None
Comment: ADC0_CLP4 unused
ADC0_CLPD 4003B034

Symbol: ADC0_CLPD
   Definitions
      At line 200 in file MKL46Z4.s
   Uses
      None
Comment: ADC0_CLPD unused
ADC0_CLPS 4003B038

Symbol: ADC0_CLPS
   Definitions
      At line 201 in file MKL46Z4.s
   Uses
      None
Comment: ADC0_CLPS unused
ADC0_CV1 4003B018

Symbol: ADC0_CV1
   Definitions
      At line 207 in file MKL46Z4.s
   Uses
      None
Comment: ADC0_CV1 unused
ADC0_CV2 4003B01C

Symbol: ADC0_CV2
   Definitions
      At line 208 in file MKL46Z4.s
   Uses
      None



ARM Macro Assembler    Page 4 Alphabetic symbol ordering
Absolute symbols

Comment: ADC0_CV2 unused
ADC0_IPR E000E40C

Symbol: ADC0_IPR
   Definitions
      At line 2655 in file MKL46Z4.s
   Uses
      None
Comment: ADC0_IPR unused
ADC0_IRQ 0000000F

Symbol: ADC0_IRQ
   Definitions
      At line 2725 in file MKL46Z4.s
   Uses
      At line 2759 in file MKL46Z4.s
Comment: ADC0_IRQ used once
ADC0_IRQ_MASK 00008000

Symbol: ADC0_IRQ_MASK
   Definitions
      At line 2759 in file MKL46Z4.s
   Uses
      None
Comment: ADC0_IRQ_MASK unused
ADC0_IRQn 0000000F

Symbol: ADC0_IRQn
   Definitions
      At line 138 in file MKL46Z4.s
   Uses
      None
Comment: ADC0_IRQn unused
ADC0_MG 4003B030

Symbol: ADC0_MG
   Definitions
      At line 209 in file MKL46Z4.s
   Uses
      None
Comment: ADC0_MG unused
ADC0_OFS 4003B028

Symbol: ADC0_OFS
   Definitions
      At line 210 in file MKL46Z4.s
   Uses
      None
Comment: ADC0_OFS unused
ADC0_PG 4003B02C

Symbol: ADC0_PG
   Definitions
      At line 211 in file MKL46Z4.s
   Uses
      None
Comment: ADC0_PG unused
ADC0_PRI_POS 0000001E




ARM Macro Assembler    Page 5 Alphabetic symbol ordering
Absolute symbols

Symbol: ADC0_PRI_POS
   Definitions
      At line 2691 in file MKL46Z4.s
   Uses
      None
Comment: ADC0_PRI_POS unused
ADC0_RA 4003B010

Symbol: ADC0_RA
   Definitions
      At line 212 in file MKL46Z4.s
   Uses
      None
Comment: ADC0_RA unused
ADC0_RB 4003B014

Symbol: ADC0_RB
   Definitions
      At line 213 in file MKL46Z4.s
   Uses
      None
Comment: ADC0_RB unused
ADC0_SC1A 4003B000

Symbol: ADC0_SC1A
   Definitions
      At line 214 in file MKL46Z4.s
   Uses
      None
Comment: ADC0_SC1A unused
ADC0_SC1B 4003B004

Symbol: ADC0_SC1B
   Definitions
      At line 215 in file MKL46Z4.s
   Uses
      None
Comment: ADC0_SC1B unused
ADC0_SC2 4003B020

Symbol: ADC0_SC2
   Definitions
      At line 216 in file MKL46Z4.s
   Uses
      None
Comment: ADC0_SC2 unused
ADC0_SC3 4003B024

Symbol: ADC0_SC3
   Definitions
      At line 217 in file MKL46Z4.s
   Uses
      None
Comment: ADC0_SC3 unused
ADC0_Vector 0000001F

Symbol: ADC0_Vector
   Definitions
      At line 2809 in file MKL46Z4.s



ARM Macro Assembler    Page 6 Alphabetic symbol ordering
Absolute symbols

   Uses
      None
Comment: ADC0_Vector unused
ADC_ACFE_MASK 00000020

Symbol: ADC_ACFE_MASK
   Definitions
      At line 470 in file MKL46Z4.s
   Uses
      None
Comment: ADC_ACFE_MASK unused
ADC_ACFE_SHIFT 00000005

Symbol: ADC_ACFE_SHIFT
   Definitions
      At line 471 in file MKL46Z4.s
   Uses
      None
Comment: ADC_ACFE_SHIFT unused
ADC_ACFGT_MASK 00000010

Symbol: ADC_ACFGT_MASK
   Definitions
      At line 472 in file MKL46Z4.s
   Uses
      None
Comment: ADC_ACFGT_MASK unused
ADC_ACFGT_SHIFT 00000004

Symbol: ADC_ACFGT_SHIFT
   Definitions
      At line 473 in file MKL46Z4.s
   Uses
      None
Comment: ADC_ACFGT_SHIFT unused
ADC_ACREN_MASK 00000008

Symbol: ADC_ACREN_MASK
   Definitions
      At line 474 in file MKL46Z4.s
   Uses
      None
Comment: ADC_ACREN_MASK unused
ADC_ACREN_SHIFT 00000003

Symbol: ADC_ACREN_SHIFT
   Definitions
      At line 475 in file MKL46Z4.s
   Uses
      None
Comment: ADC_ACREN_SHIFT unused
ADC_ADACT_MASK 00000080

Symbol: ADC_ADACT_MASK
   Definitions
      At line 466 in file MKL46Z4.s
   Uses
      None
Comment: ADC_ADACT_MASK unused



ARM Macro Assembler    Page 7 Alphabetic symbol ordering
Absolute symbols

ADC_ADACT_SHIFT 00000007

Symbol: ADC_ADACT_SHIFT
   Definitions
      At line 467 in file MKL46Z4.s
   Uses
      None
Comment: ADC_ADACT_SHIFT unused
ADC_ADCH_MASK 0000001F

Symbol: ADC_ADCH_MASK
   Definitions
      At line 443 in file MKL46Z4.s
   Uses
      None
Comment: ADC_ADCH_MASK unused
ADC_ADCH_SHIFT 00000000

Symbol: ADC_ADCH_SHIFT
   Definitions
      At line 444 in file MKL46Z4.s
   Uses
      None
Comment: ADC_ADCH_SHIFT unused
ADC_ADCO_MASK 00000008

Symbol: ADC_ADCO_MASK
   Definitions
      At line 497 in file MKL46Z4.s
   Uses
      None
Comment: ADC_ADCO_MASK unused
ADC_ADCO_SHIFT 00000003

Symbol: ADC_ADCO_SHIFT
   Definitions
      At line 498 in file MKL46Z4.s
   Uses
      None
Comment: ADC_ADCO_SHIFT unused
ADC_ADTRG_MASK 00000040

Symbol: ADC_ADTRG_MASK
   Definitions
      At line 468 in file MKL46Z4.s
   Uses
      None
Comment: ADC_ADTRG_MASK unused
ADC_ADTRG_SHIFT 00000006

Symbol: ADC_ADTRG_SHIFT
   Definitions
      At line 469 in file MKL46Z4.s
   Uses
      None
Comment: ADC_ADTRG_SHIFT unused
ADC_AIEN_MASK 00000040

Symbol: ADC_AIEN_MASK



ARM Macro Assembler    Page 8 Alphabetic symbol ordering
Absolute symbols

   Definitions
      At line 439 in file MKL46Z4.s
   Uses
      None
Comment: ADC_AIEN_MASK unused
ADC_AIEN_SHIFT 00000006

Symbol: ADC_AIEN_SHIFT
   Definitions
      At line 440 in file MKL46Z4.s
   Uses
      None
Comment: ADC_AIEN_SHIFT unused
ADC_AVGE_MASK 00000004

Symbol: ADC_AVGE_MASK
   Definitions
      At line 499 in file MKL46Z4.s
   Uses
      None
Comment: ADC_AVGE_MASK unused
ADC_AVGE_SHIFT 00000002

Symbol: ADC_AVGE_SHIFT
   Definitions
      At line 500 in file MKL46Z4.s
   Uses
      None
Comment: ADC_AVGE_SHIFT unused
ADC_AVGS_MASK 00000003

Symbol: ADC_AVGS_MASK
   Definitions
      At line 501 in file MKL46Z4.s
   Uses
      None
Comment: ADC_AVGS_MASK unused
ADC_AVGS_SHIFT 00000000

Symbol: ADC_AVGS_SHIFT
   Definitions
      At line 502 in file MKL46Z4.s
   Uses
      None
Comment: ADC_AVGS_SHIFT unused
ADC_CALF_MASK 00000040

Symbol: ADC_CALF_MASK
   Definitions
      At line 495 in file MKL46Z4.s
   Uses
      None
Comment: ADC_CALF_MASK unused
ADC_CALF_SHIFT 00000006

Symbol: ADC_CALF_SHIFT
   Definitions
      At line 496 in file MKL46Z4.s
   Uses



ARM Macro Assembler    Page 9 Alphabetic symbol ordering
Absolute symbols

      None
Comment: ADC_CALF_SHIFT unused
ADC_CAL_MASK 00000080

Symbol: ADC_CAL_MASK
   Definitions
      At line 493 in file MKL46Z4.s
   Uses
      None
Comment: ADC_CAL_MASK unused
ADC_CAL_SHIFT 00000007

Symbol: ADC_CAL_SHIFT
   Definitions
      At line 494 in file MKL46Z4.s
   Uses
      None
Comment: ADC_CAL_SHIFT unused
ADC_CFG1_ADICLK_MASK 00000003

Symbol: ADC_CFG1_ADICLK_MASK
   Definitions
      At line 249 in file MKL46Z4.s
   Uses
      None
Comment: ADC_CFG1_ADICLK_MASK unused
ADC_CFG1_ADICLK_SHIFT 00000000

Symbol: ADC_CFG1_ADICLK_SHIFT
   Definitions
      At line 250 in file MKL46Z4.s
   Uses
      None
Comment: ADC_CFG1_ADICLK_SHIFT unused
ADC_CFG1_ADIV_MASK 00000060

Symbol: ADC_CFG1_ADIV_MASK
   Definitions
      At line 243 in file MKL46Z4.s
   Uses
      None
Comment: ADC_CFG1_ADIV_MASK unused
ADC_CFG1_ADIV_SHIFT 00000005

Symbol: ADC_CFG1_ADIV_SHIFT
   Definitions
      At line 244 in file MKL46Z4.s
   Uses
      None
Comment: ADC_CFG1_ADIV_SHIFT unused
ADC_CFG1_ADLPC_MASK 00000080

Symbol: ADC_CFG1_ADLPC_MASK
   Definitions
      At line 241 in file MKL46Z4.s
   Uses
      None
Comment: ADC_CFG1_ADLPC_MASK unused
ADC_CFG1_ADLPC_SHIFT 00000007



ARM Macro Assembler    Page 10 Alphabetic symbol ordering
Absolute symbols


Symbol: ADC_CFG1_ADLPC_SHIFT
   Definitions
      At line 242 in file MKL46Z4.s
   Uses
      None
Comment: ADC_CFG1_ADLPC_SHIFT unused
ADC_CFG1_ADLSMP_MASK 00000010

Symbol: ADC_CFG1_ADLSMP_MASK
   Definitions
      At line 245 in file MKL46Z4.s
   Uses
      None
Comment: ADC_CFG1_ADLSMP_MASK unused
ADC_CFG1_ADLSMP_SHIFT 00000004

Symbol: ADC_CFG1_ADLSMP_SHIFT
   Definitions
      At line 246 in file MKL46Z4.s
   Uses
      None
Comment: ADC_CFG1_ADLSMP_SHIFT unused
ADC_CFG1_MODE_MASK 0000000C

Symbol: ADC_CFG1_MODE_MASK
   Definitions
      At line 247 in file MKL46Z4.s
   Uses
      None
Comment: ADC_CFG1_MODE_MASK unused
ADC_CFG1_MODE_SHIFT 00000002

Symbol: ADC_CFG1_MODE_SHIFT
   Definitions
      At line 248 in file MKL46Z4.s
   Uses
      None
Comment: ADC_CFG1_MODE_SHIFT unused
ADC_CFG1_OFFSET 00000008

Symbol: ADC_CFG1_OFFSET
   Definitions
      At line 166 in file MKL46Z4.s
   Uses
      At line 191 in file MKL46Z4.s
Comment: ADC_CFG1_OFFSET used once
ADC_CFG2_ADACKEN_MASK 00000008

Symbol: ADC_CFG2_ADACKEN_MASK
   Definitions
      At line 272 in file MKL46Z4.s
   Uses
      None
Comment: ADC_CFG2_ADACKEN_MASK unused
ADC_CFG2_ADACKEN_SHIFT 00000003

Symbol: ADC_CFG2_ADACKEN_SHIFT
   Definitions



ARM Macro Assembler    Page 11 Alphabetic symbol ordering
Absolute symbols

      At line 273 in file MKL46Z4.s
   Uses
      None
Comment: ADC_CFG2_ADACKEN_SHIFT unused
ADC_CFG2_ADHSC_MASK 00000004

Symbol: ADC_CFG2_ADHSC_MASK
   Definitions
      At line 274 in file MKL46Z4.s
   Uses
      None
Comment: ADC_CFG2_ADHSC_MASK unused
ADC_CFG2_ADHSC_SHIFT 00000002

Symbol: ADC_CFG2_ADHSC_SHIFT
   Definitions
      At line 275 in file MKL46Z4.s
   Uses
      None
Comment: ADC_CFG2_ADHSC_SHIFT unused
ADC_CFG2_ADLSTS_MASK 00000003

Symbol: ADC_CFG2_ADLSTS_MASK
   Definitions
      At line 276 in file MKL46Z4.s
   Uses
      None
Comment: ADC_CFG2_ADLSTS_MASK unused
ADC_CFG2_ADLSTS_SHIFT 00000000

Symbol: ADC_CFG2_ADLSTS_SHIFT
   Definitions
      At line 277 in file MKL46Z4.s
   Uses
      None
Comment: ADC_CFG2_ADLSTS_SHIFT unused
ADC_CFG2_MUXSEL_MASK 00000010

Symbol: ADC_CFG2_MUXSEL_MASK
   Definitions
      At line 270 in file MKL46Z4.s
   Uses
      None
Comment: ADC_CFG2_MUXSEL_MASK unused
ADC_CFG2_MUXSEL_SHIFT 00000004

Symbol: ADC_CFG2_MUXSEL_SHIFT
   Definitions
      At line 271 in file MKL46Z4.s
   Uses
      None
Comment: ADC_CFG2_MUXSEL_SHIFT unused
ADC_CFG2_OFFSET 0000000C

Symbol: ADC_CFG2_OFFSET
   Definitions
      At line 167 in file MKL46Z4.s
   Uses
      At line 192 in file MKL46Z4.s



ARM Macro Assembler    Page 12 Alphabetic symbol ordering
Absolute symbols

Comment: ADC_CFG2_OFFSET used once
ADC_CLM0_MASK 0000003F

Symbol: ADC_CLM0_MASK
   Definitions
      At line 294 in file MKL46Z4.s
   Uses
      None
Comment: ADC_CLM0_MASK unused
ADC_CLM0_OFFSET 0000006C

Symbol: ADC_CLM0_OFFSET
   Definitions
      At line 190 in file MKL46Z4.s
   Uses
      At line 195 in file MKL46Z4.s
Comment: ADC_CLM0_OFFSET used once
ADC_CLM0_SHIFT 00000000

Symbol: ADC_CLM0_SHIFT
   Definitions
      At line 295 in file MKL46Z4.s
   Uses
      None
Comment: ADC_CLM0_SHIFT unused
ADC_CLM1_MASK 0000007F

Symbol: ADC_CLM1_MASK
   Definitions
      At line 300 in file MKL46Z4.s
   Uses
      None
Comment: ADC_CLM1_MASK unused
ADC_CLM1_OFFSET 00000068

Symbol: ADC_CLM1_OFFSET
   Definitions
      At line 189 in file MKL46Z4.s
   Uses
      At line 196 in file MKL46Z4.s
Comment: ADC_CLM1_OFFSET used once
ADC_CLM1_SHIFT 00000000

Symbol: ADC_CLM1_SHIFT
   Definitions
      At line 301 in file MKL46Z4.s
   Uses
      None
Comment: ADC_CLM1_SHIFT unused
ADC_CLM2_MASK 000000FF

Symbol: ADC_CLM2_MASK
   Definitions
      At line 306 in file MKL46Z4.s
   Uses
      None
Comment: ADC_CLM2_MASK unused
ADC_CLM2_OFFSET 00000064




ARM Macro Assembler    Page 13 Alphabetic symbol ordering
Absolute symbols

Symbol: ADC_CLM2_OFFSET
   Definitions
      At line 188 in file MKL46Z4.s
   Uses
      At line 197 in file MKL46Z4.s
Comment: ADC_CLM2_OFFSET used once
ADC_CLM2_SHIFT 00000000

Symbol: ADC_CLM2_SHIFT
   Definitions
      At line 307 in file MKL46Z4.s
   Uses
      None
Comment: ADC_CLM2_SHIFT unused
ADC_CLM3_MASK 000001FF

Symbol: ADC_CLM3_MASK
   Definitions
      At line 312 in file MKL46Z4.s
   Uses
      None
Comment: ADC_CLM3_MASK unused
ADC_CLM3_OFFSET 00000060

Symbol: ADC_CLM3_OFFSET
   Definitions
      At line 187 in file MKL46Z4.s
   Uses
      At line 198 in file MKL46Z4.s
Comment: ADC_CLM3_OFFSET used once
ADC_CLM3_SHIFT 00000000

Symbol: ADC_CLM3_SHIFT
   Definitions
      At line 313 in file MKL46Z4.s
   Uses
      None
Comment: ADC_CLM3_SHIFT unused
ADC_CLM4_MASK 000003FF

Symbol: ADC_CLM4_MASK
   Definitions
      At line 318 in file MKL46Z4.s
   Uses
      None
Comment: ADC_CLM4_MASK unused
ADC_CLM4_OFFSET 0000005C

Symbol: ADC_CLM4_OFFSET
   Definitions
      At line 186 in file MKL46Z4.s
   Uses
      At line 199 in file MKL46Z4.s
Comment: ADC_CLM4_OFFSET used once
ADC_CLM4_SHIFT 00000000

Symbol: ADC_CLM4_SHIFT
   Definitions
      At line 319 in file MKL46Z4.s



ARM Macro Assembler    Page 14 Alphabetic symbol ordering
Absolute symbols

   Uses
      None
Comment: ADC_CLM4_SHIFT unused
ADC_CLMD_MASK 0000003F

Symbol: ADC_CLMD_MASK
   Definitions
      At line 282 in file MKL46Z4.s
   Uses
      None
Comment: ADC_CLMD_MASK unused
ADC_CLMD_OFFSET 00000054

Symbol: ADC_CLMD_OFFSET
   Definitions
      At line 184 in file MKL46Z4.s
   Uses
      At line 193 in file MKL46Z4.s
Comment: ADC_CLMD_OFFSET used once
ADC_CLMD_SHIFT 00000000

Symbol: ADC_CLMD_SHIFT
   Definitions
      At line 283 in file MKL46Z4.s
   Uses
      None
Comment: ADC_CLMD_SHIFT unused
ADC_CLMS_MASK 0000003F

Symbol: ADC_CLMS_MASK
   Definitions
      At line 288 in file MKL46Z4.s
   Uses
      None
Comment: ADC_CLMS_MASK unused
ADC_CLMS_OFFSET 00000058

Symbol: ADC_CLMS_OFFSET
   Definitions
      At line 185 in file MKL46Z4.s
   Uses
      At line 194 in file MKL46Z4.s
Comment: ADC_CLMS_OFFSET used once
ADC_CLMS_SHIFT 00000000

Symbol: ADC_CLMS_SHIFT
   Definitions
      At line 289 in file MKL46Z4.s
   Uses
      None
Comment: ADC_CLMS_SHIFT unused
ADC_CLP0_MASK 0000003F

Symbol: ADC_CLP0_MASK
   Definitions
      At line 336 in file MKL46Z4.s
   Uses
      None
Comment: ADC_CLP0_MASK unused



ARM Macro Assembler    Page 15 Alphabetic symbol ordering
Absolute symbols

ADC_CLP0_OFFSET 0000004C

Symbol: ADC_CLP0_OFFSET
   Definitions
      At line 183 in file MKL46Z4.s
   Uses
      At line 202 in file MKL46Z4.s
Comment: ADC_CLP0_OFFSET used once
ADC_CLP0_SHIFT 00000000

Symbol: ADC_CLP0_SHIFT
   Definitions
      At line 337 in file MKL46Z4.s
   Uses
      None
Comment: ADC_CLP0_SHIFT unused
ADC_CLP1_MASK 0000007F

Symbol: ADC_CLP1_MASK
   Definitions
      At line 342 in file MKL46Z4.s
   Uses
      None
Comment: ADC_CLP1_MASK unused
ADC_CLP1_OFFSET 00000048

Symbol: ADC_CLP1_OFFSET
   Definitions
      At line 182 in file MKL46Z4.s
   Uses
      At line 203 in file MKL46Z4.s
Comment: ADC_CLP1_OFFSET used once
ADC_CLP1_SHIFT 00000000

Symbol: ADC_CLP1_SHIFT
   Definitions
      At line 343 in file MKL46Z4.s
   Uses
      None
Comment: ADC_CLP1_SHIFT unused
ADC_CLP2_MASK 000000FF

Symbol: ADC_CLP2_MASK
   Definitions
      At line 348 in file MKL46Z4.s
   Uses
      None
Comment: ADC_CLP2_MASK unused
ADC_CLP2_OFFSET 00000044

Symbol: ADC_CLP2_OFFSET
   Definitions
      At line 181 in file MKL46Z4.s
   Uses
      At line 204 in file MKL46Z4.s
Comment: ADC_CLP2_OFFSET used once
ADC_CLP2_SHIFT 00000000

Symbol: ADC_CLP2_SHIFT



ARM Macro Assembler    Page 16 Alphabetic symbol ordering
Absolute symbols

   Definitions
      At line 349 in file MKL46Z4.s
   Uses
      None
Comment: ADC_CLP2_SHIFT unused
ADC_CLP3_MASK 000001FF

Symbol: ADC_CLP3_MASK
   Definitions
      At line 354 in file MKL46Z4.s
   Uses
      None
Comment: ADC_CLP3_MASK unused
ADC_CLP3_OFFSET 00000040

Symbol: ADC_CLP3_OFFSET
   Definitions
      At line 180 in file MKL46Z4.s
   Uses
      At line 205 in file MKL46Z4.s
Comment: ADC_CLP3_OFFSET used once
ADC_CLP3_SHIFT 00000000

Symbol: ADC_CLP3_SHIFT
   Definitions
      At line 355 in file MKL46Z4.s
   Uses
      None
Comment: ADC_CLP3_SHIFT unused
ADC_CLP4_MASK 000003FF

Symbol: ADC_CLP4_MASK
   Definitions
      At line 360 in file MKL46Z4.s
   Uses
      None
Comment: ADC_CLP4_MASK unused
ADC_CLP4_OFFSET 0000003C

Symbol: ADC_CLP4_OFFSET
   Definitions
      At line 179 in file MKL46Z4.s
   Uses
      At line 206 in file MKL46Z4.s
Comment: ADC_CLP4_OFFSET used once
ADC_CLP4_SHIFT 00000000

Symbol: ADC_CLP4_SHIFT
   Definitions
      At line 361 in file MKL46Z4.s
   Uses
      None
Comment: ADC_CLP4_SHIFT unused
ADC_CLPD_MASK 0000003F

Symbol: ADC_CLPD_MASK
   Definitions
      At line 324 in file MKL46Z4.s
   Uses



ARM Macro Assembler    Page 17 Alphabetic symbol ordering
Absolute symbols

      None
Comment: ADC_CLPD_MASK unused
ADC_CLPD_OFFSET 00000034

Symbol: ADC_CLPD_OFFSET
   Definitions
      At line 177 in file MKL46Z4.s
   Uses
      At line 200 in file MKL46Z4.s
Comment: ADC_CLPD_OFFSET used once
ADC_CLPD_SHIFT 00000000

Symbol: ADC_CLPD_SHIFT
   Definitions
      At line 325 in file MKL46Z4.s
   Uses
      None
Comment: ADC_CLPD_SHIFT unused
ADC_CLPS_MASK 0000003F

Symbol: ADC_CLPS_MASK
   Definitions
      At line 330 in file MKL46Z4.s
   Uses
      None
Comment: ADC_CLPS_MASK unused
ADC_CLPS_OFFSET 00000038

Symbol: ADC_CLPS_OFFSET
   Definitions
      At line 178 in file MKL46Z4.s
   Uses
      At line 201 in file MKL46Z4.s
Comment: ADC_CLPS_OFFSET used once
ADC_CLPS_SHIFT 00000000

Symbol: ADC_CLPS_SHIFT
   Definitions
      At line 331 in file MKL46Z4.s
   Uses
      None
Comment: ADC_CLPS_SHIFT unused
ADC_COCO_MASK 00000080

Symbol: ADC_COCO_MASK
   Definitions
      At line 437 in file MKL46Z4.s
   Uses
      None
Comment: ADC_COCO_MASK unused
ADC_COCO_SHIFT 00000007

Symbol: ADC_COCO_SHIFT
   Definitions
      At line 438 in file MKL46Z4.s
   Uses
      None
Comment: ADC_COCO_SHIFT unused
ADC_CV1_OFFSET 00000018



ARM Macro Assembler    Page 18 Alphabetic symbol ordering
Absolute symbols


Symbol: ADC_CV1_OFFSET
   Definitions
      At line 170 in file MKL46Z4.s
   Uses
      At line 207 in file MKL46Z4.s
Comment: ADC_CV1_OFFSET used once
ADC_CV2_OFFSET 0000001C

Symbol: ADC_CV2_OFFSET
   Definitions
      At line 171 in file MKL46Z4.s
   Uses
      At line 208 in file MKL46Z4.s
Comment: ADC_CV2_OFFSET used once
ADC_CV_MASK 0000FFFF

Symbol: ADC_CV_MASK
   Definitions
      At line 368 in file MKL46Z4.s
   Uses
      None
Comment: ADC_CV_MASK unused
ADC_CV_SHIFT 00000000

Symbol: ADC_CV_SHIFT
   Definitions
      At line 369 in file MKL46Z4.s
   Uses
      None
Comment: ADC_CV_SHIFT unused
ADC_DIFF_MASK 00000020

Symbol: ADC_DIFF_MASK
   Definitions
      At line 441 in file MKL46Z4.s
   Uses
      None
Comment: ADC_DIFF_MASK unused
ADC_DIFF_SHIFT 00000005

Symbol: ADC_DIFF_SHIFT
   Definitions
      At line 442 in file MKL46Z4.s
   Uses
      None
Comment: ADC_DIFF_SHIFT unused
ADC_DMAEN_MASK 00000004

Symbol: ADC_DMAEN_MASK
   Definitions
      At line 476 in file MKL46Z4.s
   Uses
      None
Comment: ADC_DMAEN_MASK unused
ADC_DMAEN_SHIFT 00000002

Symbol: ADC_DMAEN_SHIFT
   Definitions



ARM Macro Assembler    Page 19 Alphabetic symbol ordering
Absolute symbols

      At line 477 in file MKL46Z4.s
   Uses
      None
Comment: ADC_DMAEN_SHIFT unused
ADC_D_MASK 0000FFFF

Symbol: ADC_D_MASK
   Definitions
      At line 392 in file MKL46Z4.s
   Uses
      None
Comment: ADC_D_MASK unused
ADC_D_SHIFT 00000000

Symbol: ADC_D_SHIFT
   Definitions
      At line 393 in file MKL46Z4.s
   Uses
      None
Comment: ADC_D_SHIFT unused
ADC_MG_MASK 0000FFFF

Symbol: ADC_MG_MASK
   Definitions
      At line 374 in file MKL46Z4.s
   Uses
      None
Comment: ADC_MG_MASK unused
ADC_MG_OFFSET 00000030

Symbol: ADC_MG_OFFSET
   Definitions
      At line 176 in file MKL46Z4.s
   Uses
      At line 209 in file MKL46Z4.s
Comment: ADC_MG_OFFSET used once
ADC_MG_SHIFT 00000000

Symbol: ADC_MG_SHIFT
   Definitions
      At line 375 in file MKL46Z4.s
   Uses
      None
Comment: ADC_MG_SHIFT unused
ADC_OFS_MASK 0000FFFF

Symbol: ADC_OFS_MASK
   Definitions
      At line 380 in file MKL46Z4.s
   Uses
      None
Comment: ADC_OFS_MASK unused
ADC_OFS_OFFSET 00000028

Symbol: ADC_OFS_OFFSET
   Definitions
      At line 174 in file MKL46Z4.s
   Uses
      At line 210 in file MKL46Z4.s



ARM Macro Assembler    Page 20 Alphabetic symbol ordering
Absolute symbols

Comment: ADC_OFS_OFFSET used once
ADC_OFS_SHIFT 00000000

Symbol: ADC_OFS_SHIFT
   Definitions
      At line 381 in file MKL46Z4.s
   Uses
      None
Comment: ADC_OFS_SHIFT unused
ADC_PG_MASK 0000FFFF

Symbol: ADC_PG_MASK
   Definitions
      At line 386 in file MKL46Z4.s
   Uses
      None
Comment: ADC_PG_MASK unused
ADC_PG_OFFSET 0000002C

Symbol: ADC_PG_OFFSET
   Definitions
      At line 175 in file MKL46Z4.s
   Uses
      At line 211 in file MKL46Z4.s
Comment: ADC_PG_OFFSET used once
ADC_PG_SHIFT 00000000

Symbol: ADC_PG_SHIFT
   Definitions
      At line 387 in file MKL46Z4.s
   Uses
      None
Comment: ADC_PG_SHIFT unused
ADC_RA_OFFSET 00000010

Symbol: ADC_RA_OFFSET
   Definitions
      At line 168 in file MKL46Z4.s
   Uses
      At line 212 in file MKL46Z4.s
Comment: ADC_RA_OFFSET used once
ADC_RB_OFFSET 00000014

Symbol: ADC_RB_OFFSET
   Definitions
      At line 169 in file MKL46Z4.s
   Uses
      At line 213 in file MKL46Z4.s
Comment: ADC_RB_OFFSET used once
ADC_REFSEL_MASK 00000003

Symbol: ADC_REFSEL_MASK
   Definitions
      At line 478 in file MKL46Z4.s
   Uses
      None
Comment: ADC_REFSEL_MASK unused
ADC_REFSEL_SHIFT 00000000




ARM Macro Assembler    Page 21 Alphabetic symbol ordering
Absolute symbols

Symbol: ADC_REFSEL_SHIFT
   Definitions
      At line 479 in file MKL46Z4.s
   Uses
      None
Comment: ADC_REFSEL_SHIFT unused
ADC_SC1A_OFFSET 00000000

Symbol: ADC_SC1A_OFFSET
   Definitions
      At line 164 in file MKL46Z4.s
   Uses
      At line 214 in file MKL46Z4.s
Comment: ADC_SC1A_OFFSET used once
ADC_SC1B_OFFSET 00000004

Symbol: ADC_SC1B_OFFSET
   Definitions
      At line 165 in file MKL46Z4.s
   Uses
      At line 215 in file MKL46Z4.s
Comment: ADC_SC1B_OFFSET used once
ADC_SC2_OFFSET 00000020

Symbol: ADC_SC2_OFFSET
   Definitions
      At line 172 in file MKL46Z4.s
   Uses
      At line 216 in file MKL46Z4.s
Comment: ADC_SC2_OFFSET used once
ADC_SC3_OFFSET 00000024

Symbol: ADC_SC3_OFFSET
   Definitions
      At line 173 in file MKL46Z4.s
   Uses
      At line 217 in file MKL46Z4.s
Comment: ADC_SC3_OFFSET used once
APSR_C_MASK 20000000

Symbol: APSR_C_MASK
   Definitions
      At line 57 in file MKL46Z4.s
   Uses
      At line 96 in file MKL46Z4.s
Comment: APSR_C_MASK used once
APSR_C_SHIFT 0000001D

Symbol: APSR_C_SHIFT
   Definitions
      At line 58 in file MKL46Z4.s
   Uses
      At line 97 in file MKL46Z4.s
Comment: APSR_C_SHIFT used once
APSR_MASK F0000000

Symbol: APSR_MASK
   Definitions
      At line 51 in file MKL46Z4.s



ARM Macro Assembler    Page 22 Alphabetic symbol ordering
Absolute symbols

   Uses
      None
Comment: APSR_MASK unused
APSR_N_MASK 80000000

Symbol: APSR_N_MASK
   Definitions
      At line 53 in file MKL46Z4.s
   Uses
      At line 92 in file MKL46Z4.s
Comment: APSR_N_MASK used once
APSR_N_SHIFT 0000001F

Symbol: APSR_N_SHIFT
   Definitions
      At line 54 in file MKL46Z4.s
   Uses
      At line 93 in file MKL46Z4.s
Comment: APSR_N_SHIFT used once
APSR_SHIFT 0000001C

Symbol: APSR_SHIFT
   Definitions
      At line 52 in file MKL46Z4.s
   Uses
      None
Comment: APSR_SHIFT unused
APSR_V_MASK 10000000

Symbol: APSR_V_MASK
   Definitions
      At line 59 in file MKL46Z4.s
   Uses
      At line 98 in file MKL46Z4.s
Comment: APSR_V_MASK used once
APSR_V_SHIFT 0000001C

Symbol: APSR_V_SHIFT
   Definitions
      At line 60 in file MKL46Z4.s
   Uses
      At line 99 in file MKL46Z4.s
Comment: APSR_V_SHIFT used once
APSR_Z_MASK 40000000

Symbol: APSR_Z_MASK
   Definitions
      At line 55 in file MKL46Z4.s
   Uses
      At line 94 in file MKL46Z4.s
Comment: APSR_Z_MASK used once
APSR_Z_SHIFT 0000001E

Symbol: APSR_Z_SHIFT
   Definitions
      At line 56 in file MKL46Z4.s
   Uses
      At line 95 in file MKL46Z4.s
Comment: APSR_Z_SHIFT used once



ARM Macro Assembler    Page 23 Alphabetic symbol ordering
Absolute symbols

BYTE_BITS 00000008

Symbol: BYTE_BITS
   Definitions
      At line 26 in file MKL46Z4.s
   Uses
      None
Comment: BYTE_BITS unused
BYTE_MASK 000000FF

Symbol: BYTE_MASK
   Definitions
      At line 23 in file MKL46Z4.s
   Uses
      None
Comment: BYTE_MASK unused
CMP0_BASE 40073000

Symbol: CMP0_BASE
   Definitions
      At line 505 in file MKL46Z4.s
   Uses
      At line 512 in file MKL46Z4.s
      At line 513 in file MKL46Z4.s
      At line 514 in file MKL46Z4.s
      At line 515 in file MKL46Z4.s
      At line 516 in file MKL46Z4.s
      At line 517 in file MKL46Z4.s

CMP0_CR0 40073000

Symbol: CMP0_CR0
   Definitions
      At line 512 in file MKL46Z4.s
   Uses
      None
Comment: CMP0_CR0 unused
CMP0_CR0_OFFSET 00000000

Symbol: CMP0_CR0_OFFSET
   Definitions
      At line 506 in file MKL46Z4.s
   Uses
      At line 512 in file MKL46Z4.s
Comment: CMP0_CR0_OFFSET used once
CMP0_CR1 40073001

Symbol: CMP0_CR1
   Definitions
      At line 513 in file MKL46Z4.s
   Uses
      None
Comment: CMP0_CR1 unused
CMP0_CR1_OFFSET 00000001

Symbol: CMP0_CR1_OFFSET
   Definitions
      At line 507 in file MKL46Z4.s
   Uses



ARM Macro Assembler    Page 24 Alphabetic symbol ordering
Absolute symbols

      At line 513 in file MKL46Z4.s
Comment: CMP0_CR1_OFFSET used once
CMP0_DACCR 40073004

Symbol: CMP0_DACCR
   Definitions
      At line 516 in file MKL46Z4.s
   Uses
      None
Comment: CMP0_DACCR unused
CMP0_DACCR_OFFSET 00000004

Symbol: CMP0_DACCR_OFFSET
   Definitions
      At line 510 in file MKL46Z4.s
   Uses
      At line 516 in file MKL46Z4.s
Comment: CMP0_DACCR_OFFSET used once
CMP0_FPR 40073002

Symbol: CMP0_FPR
   Definitions
      At line 514 in file MKL46Z4.s
   Uses
      None
Comment: CMP0_FPR unused
CMP0_FPR_OFFSET 00000002

Symbol: CMP0_FPR_OFFSET
   Definitions
      At line 508 in file MKL46Z4.s
   Uses
      At line 514 in file MKL46Z4.s
Comment: CMP0_FPR_OFFSET used once
CMP0_IPR E000E410

Symbol: CMP0_IPR
   Definitions
      At line 2656 in file MKL46Z4.s
   Uses
      None
Comment: CMP0_IPR unused
CMP0_IRQ 00000010

Symbol: CMP0_IRQ
   Definitions
      At line 2726 in file MKL46Z4.s
   Uses
      At line 2760 in file MKL46Z4.s
Comment: CMP0_IRQ used once
CMP0_IRQ_MASK 00010000

Symbol: CMP0_IRQ_MASK
   Definitions
      At line 2760 in file MKL46Z4.s
   Uses
      None
Comment: CMP0_IRQ_MASK unused
CMP0_IRQn 00000010



ARM Macro Assembler    Page 25 Alphabetic symbol ordering
Absolute symbols


Symbol: CMP0_IRQn
   Definitions
      At line 139 in file MKL46Z4.s
   Uses
      None
Comment: CMP0_IRQn unused
CMP0_MUXCR 40073005

Symbol: CMP0_MUXCR
   Definitions
      At line 517 in file MKL46Z4.s
   Uses
      None
Comment: CMP0_MUXCR unused
CMP0_MUXCR_OFFSET 00000005

Symbol: CMP0_MUXCR_OFFSET
   Definitions
      At line 511 in file MKL46Z4.s
   Uses
      At line 517 in file MKL46Z4.s
Comment: CMP0_MUXCR_OFFSET used once
CMP0_PRI_POS 00000006

Symbol: CMP0_PRI_POS
   Definitions
      At line 2692 in file MKL46Z4.s
   Uses
      None
Comment: CMP0_PRI_POS unused
CMP0_SCR 40073003

Symbol: CMP0_SCR
   Definitions
      At line 515 in file MKL46Z4.s
   Uses
      None
Comment: CMP0_SCR unused
CMP0_SCR_OFFSET 00000003

Symbol: CMP0_SCR_OFFSET
   Definitions
      At line 509 in file MKL46Z4.s
   Uses
      At line 515 in file MKL46Z4.s
Comment: CMP0_SCR_OFFSET used once
CMP0_Vector 00000020

Symbol: CMP0_Vector
   Definitions
      At line 2810 in file MKL46Z4.s
   Uses
      None
Comment: CMP0_Vector unused
CMP_CR0_FILTER_CNT_MASK 00000070

Symbol: CMP_CR0_FILTER_CNT_MASK
   Definitions



ARM Macro Assembler    Page 26 Alphabetic symbol ordering
Absolute symbols

      At line 527 in file MKL46Z4.s
   Uses
      None
Comment: CMP_CR0_FILTER_CNT_MASK unused
CMP_CR0_FILTER_CNT_SHIFT 00000004

Symbol: CMP_CR0_FILTER_CNT_SHIFT
   Definitions
      At line 528 in file MKL46Z4.s
   Uses
      None
Comment: CMP_CR0_FILTER_CNT_SHIFT unused
CMP_CR0_HYSTCTR_MASK 00000003

Symbol: CMP_CR0_HYSTCTR_MASK
   Definitions
      At line 525 in file MKL46Z4.s
   Uses
      None
Comment: CMP_CR0_HYSTCTR_MASK unused
CMP_CR0_HYSTCTR_SHIFT 00000000

Symbol: CMP_CR0_HYSTCTR_SHIFT
   Definitions
      At line 526 in file MKL46Z4.s
   Uses
      None
Comment: CMP_CR0_HYSTCTR_SHIFT unused
CMP_CR1_COS_MASK 00000004

Symbol: CMP_CR1_COS_MASK
   Definitions
      At line 543 in file MKL46Z4.s
   Uses
      None
Comment: CMP_CR1_COS_MASK unused
CMP_CR1_COS_SHIFT 00000002

Symbol: CMP_CR1_COS_SHIFT
   Definitions
      At line 544 in file MKL46Z4.s
   Uses
      None
Comment: CMP_CR1_COS_SHIFT unused
CMP_CR1_EN_MASK 00000001

Symbol: CMP_CR1_EN_MASK
   Definitions
      At line 539 in file MKL46Z4.s
   Uses
      None
Comment: CMP_CR1_EN_MASK unused
CMP_CR1_EN_SHIFT 00000000

Symbol: CMP_CR1_EN_SHIFT
   Definitions
      At line 540 in file MKL46Z4.s
   Uses
      None



ARM Macro Assembler    Page 27 Alphabetic symbol ordering
Absolute symbols

Comment: CMP_CR1_EN_SHIFT unused
CMP_CR1_INV_MASK 00000008

Symbol: CMP_CR1_INV_MASK
   Definitions
      At line 545 in file MKL46Z4.s
   Uses
      None
Comment: CMP_CR1_INV_MASK unused
CMP_CR1_INV_SHIFT 00000003

Symbol: CMP_CR1_INV_SHIFT
   Definitions
      At line 546 in file MKL46Z4.s
   Uses
      None
Comment: CMP_CR1_INV_SHIFT unused
CMP_CR1_OPE_MASK 00000002

Symbol: CMP_CR1_OPE_MASK
   Definitions
      At line 541 in file MKL46Z4.s
   Uses
      None
Comment: CMP_CR1_OPE_MASK unused
CMP_CR1_OPE_SHIFT 00000001

Symbol: CMP_CR1_OPE_SHIFT
   Definitions
      At line 542 in file MKL46Z4.s
   Uses
      None
Comment: CMP_CR1_OPE_SHIFT unused
CMP_CR1_PMODE_MASK 00000010

Symbol: CMP_CR1_PMODE_MASK
   Definitions
      At line 547 in file MKL46Z4.s
   Uses
      None
Comment: CMP_CR1_PMODE_MASK unused
CMP_CR1_PMODE_SHIFT 00000004

Symbol: CMP_CR1_PMODE_SHIFT
   Definitions
      At line 548 in file MKL46Z4.s
   Uses
      None
Comment: CMP_CR1_PMODE_SHIFT unused
CMP_CR1_SE_MASK 00000080

Symbol: CMP_CR1_SE_MASK
   Definitions
      At line 553 in file MKL46Z4.s
   Uses
      None
Comment: CMP_CR1_SE_MASK unused
CMP_CR1_SE_SHIFT 00000007




ARM Macro Assembler    Page 28 Alphabetic symbol ordering
Absolute symbols

Symbol: CMP_CR1_SE_SHIFT
   Definitions
      At line 554 in file MKL46Z4.s
   Uses
      None
Comment: CMP_CR1_SE_SHIFT unused
CMP_CR1_TRIGM_MASK 00000020

Symbol: CMP_CR1_TRIGM_MASK
   Definitions
      At line 549 in file MKL46Z4.s
   Uses
      None
Comment: CMP_CR1_TRIGM_MASK unused
CMP_CR1_TRIGM_SHIFT 00000005

Symbol: CMP_CR1_TRIGM_SHIFT
   Definitions
      At line 550 in file MKL46Z4.s
   Uses
      None
Comment: CMP_CR1_TRIGM_SHIFT unused
CMP_CR1_WE_MASK 00000040

Symbol: CMP_CR1_WE_MASK
   Definitions
      At line 551 in file MKL46Z4.s
   Uses
      None
Comment: CMP_CR1_WE_MASK unused
CMP_CR1_WE_SHIFT 00000006

Symbol: CMP_CR1_WE_SHIFT
   Definitions
      At line 552 in file MKL46Z4.s
   Uses
      None
Comment: CMP_CR1_WE_SHIFT unused
CMP_DACCR_DACEN_MASK 00000080

Symbol: CMP_DACCR_DACEN_MASK
   Definitions
      At line 592 in file MKL46Z4.s
   Uses
      None
Comment: CMP_DACCR_DACEN_MASK unused
CMP_DACCR_DACEN_SHIFT 00000007

Symbol: CMP_DACCR_DACEN_SHIFT
   Definitions
      At line 593 in file MKL46Z4.s
   Uses
      None
Comment: CMP_DACCR_DACEN_SHIFT unused
CMP_DACCR_VOSEL_MASK 0000003F

Symbol: CMP_DACCR_VOSEL_MASK
   Definitions
      At line 588 in file MKL46Z4.s



ARM Macro Assembler    Page 29 Alphabetic symbol ordering
Absolute symbols

   Uses
      None
Comment: CMP_DACCR_VOSEL_MASK unused
CMP_DACCR_VOSEL_SHIFT 00000000

Symbol: CMP_DACCR_VOSEL_SHIFT
   Definitions
      At line 589 in file MKL46Z4.s
   Uses
      None
Comment: CMP_DACCR_VOSEL_SHIFT unused
CMP_DACCR_VRSEL_MASK 00000040

Symbol: CMP_DACCR_VRSEL_MASK
   Definitions
      At line 590 in file MKL46Z4.s
   Uses
      None
Comment: CMP_DACCR_VRSEL_MASK unused
CMP_DACCR_VRSEL_SHIFT 00000006

Symbol: CMP_DACCR_VRSEL_SHIFT
   Definitions
      At line 591 in file MKL46Z4.s
   Uses
      None
Comment: CMP_DACCR_VRSEL_SHIFT unused
CMP_FPR_FILT_PER_MASK 000000FF

Symbol: CMP_FPR_FILT_PER_MASK
   Definitions
      At line 558 in file MKL46Z4.s
   Uses
      None
Comment: CMP_FPR_FILT_PER_MASK unused
CMP_FPR_FILT_PER_SHIFT 00000000

Symbol: CMP_FPR_FILT_PER_SHIFT
   Definitions
      At line 559 in file MKL46Z4.s
   Uses
      None
Comment: CMP_FPR_FILT_PER_SHIFT unused
CMP_MUXCR_MSEL_MASK 00000007

Symbol: CMP_MUXCR_MSEL_MASK
   Definitions
      At line 601 in file MKL46Z4.s
   Uses
      None
Comment: CMP_MUXCR_MSEL_MASK unused
CMP_MUXCR_MSEL_SHIFT 00000000

Symbol: CMP_MUXCR_MSEL_SHIFT
   Definitions
      At line 602 in file MKL46Z4.s
   Uses
      None
Comment: CMP_MUXCR_MSEL_SHIFT unused



ARM Macro Assembler    Page 30 Alphabetic symbol ordering
Absolute symbols

CMP_MUXCR_PSEL_MASK 00000038

Symbol: CMP_MUXCR_PSEL_MASK
   Definitions
      At line 603 in file MKL46Z4.s
   Uses
      None
Comment: CMP_MUXCR_PSEL_MASK unused
CMP_MUXCR_PSEL_SHIFT 00000003

Symbol: CMP_MUXCR_PSEL_SHIFT
   Definitions
      At line 604 in file MKL46Z4.s
   Uses
      None
Comment: CMP_MUXCR_PSEL_SHIFT unused
CMP_MUXCR_PSTM_MASK 00000080

Symbol: CMP_MUXCR_PSTM_MASK
   Definitions
      At line 605 in file MKL46Z4.s
   Uses
      None
Comment: CMP_MUXCR_PSTM_MASK unused
CMP_MUXCR_PSTM_SHIFT 00000007

Symbol: CMP_MUXCR_PSTM_SHIFT
   Definitions
      At line 606 in file MKL46Z4.s
   Uses
      None
Comment: CMP_MUXCR_PSTM_SHIFT unused
CMP_SCR_CFF_MASK 00000002

Symbol: CMP_SCR_CFF_MASK
   Definitions
      At line 572 in file MKL46Z4.s
   Uses
      None
Comment: CMP_SCR_CFF_MASK unused
CMP_SCR_CFF_SHIFT 00000001

Symbol: CMP_SCR_CFF_SHIFT
   Definitions
      At line 573 in file MKL46Z4.s
   Uses
      None
Comment: CMP_SCR_CFF_SHIFT unused
CMP_SCR_CFR_MASK 00000004

Symbol: CMP_SCR_CFR_MASK
   Definitions
      At line 574 in file MKL46Z4.s
   Uses
      None
Comment: CMP_SCR_CFR_MASK unused
CMP_SCR_CFR_SHIFT 00000002

Symbol: CMP_SCR_CFR_SHIFT



ARM Macro Assembler    Page 31 Alphabetic symbol ordering
Absolute symbols

   Definitions
      At line 575 in file MKL46Z4.s
   Uses
      None
Comment: CMP_SCR_CFR_SHIFT unused
CMP_SCR_COUT_MASK 00000001

Symbol: CMP_SCR_COUT_MASK
   Definitions
      At line 570 in file MKL46Z4.s
   Uses
      None
Comment: CMP_SCR_COUT_MASK unused
CMP_SCR_COUT_SHIFT 00000000

Symbol: CMP_SCR_COUT_SHIFT
   Definitions
      At line 571 in file MKL46Z4.s
   Uses
      None
Comment: CMP_SCR_COUT_SHIFT unused
CMP_SCR_DMAEN_MASK 00000040

Symbol: CMP_SCR_DMAEN_MASK
   Definitions
      At line 580 in file MKL46Z4.s
   Uses
      None
Comment: CMP_SCR_DMAEN_MASK unused
CMP_SCR_DMAEN_SHIFT 00000006

Symbol: CMP_SCR_DMAEN_SHIFT
   Definitions
      At line 581 in file MKL46Z4.s
   Uses
      None
Comment: CMP_SCR_DMAEN_SHIFT unused
CMP_SCR_IEF_MASK 00000008

Symbol: CMP_SCR_IEF_MASK
   Definitions
      At line 576 in file MKL46Z4.s
   Uses
      None
Comment: CMP_SCR_IEF_MASK unused
CMP_SCR_IEF_SHIFT 00000003

Symbol: CMP_SCR_IEF_SHIFT
   Definitions
      At line 577 in file MKL46Z4.s
   Uses
      None
Comment: CMP_SCR_IEF_SHIFT unused
CMP_SCR_IER_MASK 00000010

Symbol: CMP_SCR_IER_MASK
   Definitions
      At line 578 in file MKL46Z4.s
   Uses



ARM Macro Assembler    Page 32 Alphabetic symbol ordering
Absolute symbols

      None
Comment: CMP_SCR_IER_MASK unused
CMP_SCR_IER_SHIFT 00000004

Symbol: CMP_SCR_IER_SHIFT
   Definitions
      At line 579 in file MKL46Z4.s
   Uses
      None
Comment: CMP_SCR_IER_SHIFT unused
COP_COPCLKS_MASK 00000002

Symbol: COP_COPCLKS_MASK
   Definitions
      At line 3431 in file MKL46Z4.s
   Uses
      None
Comment: COP_COPCLKS_MASK unused
COP_COPCLKS_SHIFT 00000001

Symbol: COP_COPCLKS_SHIFT
   Definitions
      At line 3432 in file MKL46Z4.s
   Uses
      None
Comment: COP_COPCLKS_SHIFT unused
COP_COPT_MASK 0000000C

Symbol: COP_COPT_MASK
   Definitions
      At line 3429 in file MKL46Z4.s
   Uses
      None
Comment: COP_COPT_MASK unused
COP_COPT_SHIFT 00000002

Symbol: COP_COPT_SHIFT
   Definitions
      At line 3430 in file MKL46Z4.s
   Uses
      None
Comment: COP_COPT_SHIFT unused
COP_COPW_MASK 00000001

Symbol: COP_COPW_MASK
   Definitions
      At line 3433 in file MKL46Z4.s
   Uses
      None
Comment: COP_COPW_MASK unused
COP_COPW_SHIFT 00000001

Symbol: COP_COPW_SHIFT
   Definitions
      At line 3434 in file MKL46Z4.s
   Uses
      None
Comment: COP_COPW_SHIFT unused
CR 0000000D



ARM Macro Assembler    Page 33 Alphabetic symbol ordering
Absolute symbols


Symbol: CR
   Definitions
      At line 25 in file test.s
   Uses
      At line 4238 in file test.s
      At line 4239 in file test.s
      At line 4240 in file test.s
      At line 4241 in file test.s

DAC0_BASE 4003F000

Symbol: DAC0_BASE
   Definitions
      At line 609 in file MKL46Z4.s
   Uses
      At line 618 in file MKL46Z4.s
      At line 619 in file MKL46Z4.s
      At line 620 in file MKL46Z4.s
      At line 621 in file MKL46Z4.s
      At line 622 in file MKL46Z4.s
      At line 623 in file MKL46Z4.s
      At line 624 in file MKL46Z4.s
      At line 625 in file MKL46Z4.s

DAC0_C0 4003F021

Symbol: DAC0_C0
   Definitions
      At line 623 in file MKL46Z4.s
   Uses
      None
Comment: DAC0_C0 unused
DAC0_C0_OFFSET 00000021

Symbol: DAC0_C0_OFFSET
   Definitions
      At line 615 in file MKL46Z4.s
   Uses
      At line 623 in file MKL46Z4.s
Comment: DAC0_C0_OFFSET used once
DAC0_C1 4003F022

Symbol: DAC0_C1
   Definitions
      At line 624 in file MKL46Z4.s
   Uses
      None
Comment: DAC0_C1 unused
DAC0_C1_OFFSET 00000022

Symbol: DAC0_C1_OFFSET
   Definitions
      At line 616 in file MKL46Z4.s
   Uses
      At line 624 in file MKL46Z4.s
Comment: DAC0_C1_OFFSET used once
DAC0_C2 4003F023




ARM Macro Assembler    Page 34 Alphabetic symbol ordering
Absolute symbols

Symbol: DAC0_C2
   Definitions
      At line 625 in file MKL46Z4.s
   Uses
      None
Comment: DAC0_C2 unused
DAC0_C2_OFFSET 00000023

Symbol: DAC0_C2_OFFSET
   Definitions
      At line 617 in file MKL46Z4.s
   Uses
      At line 625 in file MKL46Z4.s
Comment: DAC0_C2_OFFSET used once
DAC0_DAT0H 4003F001

Symbol: DAC0_DAT0H
   Definitions
      At line 619 in file MKL46Z4.s
   Uses
      None
Comment: DAC0_DAT0H unused
DAC0_DAT0H_OFFSET 00000001

Symbol: DAC0_DAT0H_OFFSET
   Definitions
      At line 611 in file MKL46Z4.s
   Uses
      At line 619 in file MKL46Z4.s
Comment: DAC0_DAT0H_OFFSET used once
DAC0_DAT0L 4003F000

Symbol: DAC0_DAT0L
   Definitions
      At line 618 in file MKL46Z4.s
   Uses
      None
Comment: DAC0_DAT0L unused
DAC0_DAT0L_OFFSET 00000000

Symbol: DAC0_DAT0L_OFFSET
   Definitions
      At line 610 in file MKL46Z4.s
   Uses
      At line 618 in file MKL46Z4.s
Comment: DAC0_DAT0L_OFFSET used once
DAC0_DAT1H 4003F003

Symbol: DAC0_DAT1H
   Definitions
      At line 621 in file MKL46Z4.s
   Uses
      None
Comment: DAC0_DAT1H unused
DAC0_DAT1H_OFFSET 00000003

Symbol: DAC0_DAT1H_OFFSET
   Definitions
      At line 613 in file MKL46Z4.s



ARM Macro Assembler    Page 35 Alphabetic symbol ordering
Absolute symbols

   Uses
      At line 621 in file MKL46Z4.s
Comment: DAC0_DAT1H_OFFSET used once
DAC0_DAT1L 4003F002

Symbol: DAC0_DAT1L
   Definitions
      At line 620 in file MKL46Z4.s
   Uses
      None
Comment: DAC0_DAT1L unused
DAC0_DAT1L_OFFSET 00000002

Symbol: DAC0_DAT1L_OFFSET
   Definitions
      At line 612 in file MKL46Z4.s
   Uses
      At line 620 in file MKL46Z4.s
Comment: DAC0_DAT1L_OFFSET used once
DAC0_IPR E000E418

Symbol: DAC0_IPR
   Definitions
      At line 2665 in file MKL46Z4.s
   Uses
      None
Comment: DAC0_IPR unused
DAC0_IRQ 00000019

Symbol: DAC0_IRQ
   Definitions
      At line 2735 in file MKL46Z4.s
   Uses
      At line 2769 in file MKL46Z4.s
Comment: DAC0_IRQ used once
DAC0_IRQ_MASK 02000000

Symbol: DAC0_IRQ_MASK
   Definitions
      At line 2769 in file MKL46Z4.s
   Uses
      None
Comment: DAC0_IRQ_MASK unused
DAC0_IRQn 00000019

Symbol: DAC0_IRQn
   Definitions
      At line 148 in file MKL46Z4.s
   Uses
      None
Comment: DAC0_IRQn unused
DAC0_PRI_POS 0000000E

Symbol: DAC0_PRI_POS
   Definitions
      At line 2701 in file MKL46Z4.s
   Uses
      None
Comment: DAC0_PRI_POS unused



ARM Macro Assembler    Page 36 Alphabetic symbol ordering
Absolute symbols

DAC0_SR 4003F020

Symbol: DAC0_SR
   Definitions
      At line 622 in file MKL46Z4.s
   Uses
      None
Comment: DAC0_SR unused
DAC0_SR_OFFSET 00000020

Symbol: DAC0_SR_OFFSET
   Definitions
      At line 614 in file MKL46Z4.s
   Uses
      At line 622 in file MKL46Z4.s
Comment: DAC0_SR_OFFSET used once
DAC0_Vector 00000029

Symbol: DAC0_Vector
   Definitions
      At line 2819 in file MKL46Z4.s
   Uses
      None
Comment: DAC0_Vector unused
DAC_C0_DACBBIEN_MASK 00000001

Symbol: DAC_C0_DACBBIEN_MASK
   Definitions
      At line 678 in file MKL46Z4.s
   Uses
      None
Comment: DAC_C0_DACBBIEN_MASK unused
DAC_C0_DACBBIEN_SHIFT 00000000

Symbol: DAC_C0_DACBBIEN_SHIFT
   Definitions
      At line 679 in file MKL46Z4.s
   Uses
      None
Comment: DAC_C0_DACBBIEN_SHIFT unused
DAC_C0_DACBTIEN_MASK 00000002

Symbol: DAC_C0_DACBTIEN_MASK
   Definitions
      At line 676 in file MKL46Z4.s
   Uses
      None
Comment: DAC_C0_DACBTIEN_MASK unused
DAC_C0_DACBTIEN_SHIFT 00000001

Symbol: DAC_C0_DACBTIEN_SHIFT
   Definitions
      At line 677 in file MKL46Z4.s
   Uses
      None
Comment: DAC_C0_DACBTIEN_SHIFT unused
DAC_C0_DACEN_MASK 00000080

Symbol: DAC_C0_DACEN_MASK



ARM Macro Assembler    Page 37 Alphabetic symbol ordering
Absolute symbols

   Definitions
      At line 666 in file MKL46Z4.s
   Uses
      None
Comment: DAC_C0_DACEN_MASK unused
DAC_C0_DACEN_SHIFT 00000007

Symbol: DAC_C0_DACEN_SHIFT
   Definitions
      At line 667 in file MKL46Z4.s
   Uses
      None
Comment: DAC_C0_DACEN_SHIFT unused
DAC_C0_DACRFS_MASK 00000040

Symbol: DAC_C0_DACRFS_MASK
   Definitions
      At line 668 in file MKL46Z4.s
   Uses
      None
Comment: DAC_C0_DACRFS_MASK unused
DAC_C0_DACRFS_SHIFT 00000006

Symbol: DAC_C0_DACRFS_SHIFT
   Definitions
      At line 669 in file MKL46Z4.s
   Uses
      None
Comment: DAC_C0_DACRFS_SHIFT unused
DAC_C0_DACSWTRG_MASK 00000010

Symbol: DAC_C0_DACSWTRG_MASK
   Definitions
      At line 672 in file MKL46Z4.s
   Uses
      None
Comment: DAC_C0_DACSWTRG_MASK unused
DAC_C0_DACSWTRG_SHIFT 00000004

Symbol: DAC_C0_DACSWTRG_SHIFT
   Definitions
      At line 673 in file MKL46Z4.s
   Uses
      None
Comment: DAC_C0_DACSWTRG_SHIFT unused
DAC_C0_DACTRGSEL_MASK 00000020

Symbol: DAC_C0_DACTRGSEL_MASK
   Definitions
      At line 670 in file MKL46Z4.s
   Uses
      None
Comment: DAC_C0_DACTRGSEL_MASK unused
DAC_C0_DACTRGSEL_SHIFT 00000005

Symbol: DAC_C0_DACTRGSEL_SHIFT
   Definitions
      At line 671 in file MKL46Z4.s
   Uses



ARM Macro Assembler    Page 38 Alphabetic symbol ordering
Absolute symbols

      None
Comment: DAC_C0_DACTRGSEL_SHIFT unused
DAC_C0_LPEN_MASK 00000008

Symbol: DAC_C0_LPEN_MASK
   Definitions
      At line 674 in file MKL46Z4.s
   Uses
      None
Comment: DAC_C0_LPEN_MASK unused
DAC_C0_LPEN_SHIFT 00000003

Symbol: DAC_C0_LPEN_SHIFT
   Definitions
      At line 675 in file MKL46Z4.s
   Uses
      None
Comment: DAC_C0_LPEN_SHIFT unused
DAC_C1_DACBFEN_MASK 00000001

Symbol: DAC_C1_DACBFEN_MASK
   Definitions
      At line 695 in file MKL46Z4.s
   Uses
      None
Comment: DAC_C1_DACBFEN_MASK unused
DAC_C1_DACBFEN_SHIFT 00000000

Symbol: DAC_C1_DACBFEN_SHIFT
   Definitions
      At line 696 in file MKL46Z4.s
   Uses
      None
Comment: DAC_C1_DACBFEN_SHIFT unused
DAC_C1_DACBFMD_MASK 00000004

Symbol: DAC_C1_DACBFMD_MASK
   Definitions
      At line 693 in file MKL46Z4.s
   Uses
      None
Comment: DAC_C1_DACBFMD_MASK unused
DAC_C1_DACBFMD_SHIFT 00000002

Symbol: DAC_C1_DACBFMD_SHIFT
   Definitions
      At line 694 in file MKL46Z4.s
   Uses
      None
Comment: DAC_C1_DACBFMD_SHIFT unused
DAC_C1_DMAEN_MASK 00000080

Symbol: DAC_C1_DMAEN_MASK
   Definitions
      At line 691 in file MKL46Z4.s
   Uses
      None
Comment: DAC_C1_DMAEN_MASK unused
DAC_C1_DMAEN_SHIFT 00000007



ARM Macro Assembler    Page 39 Alphabetic symbol ordering
Absolute symbols


Symbol: DAC_C1_DMAEN_SHIFT
   Definitions
      At line 692 in file MKL46Z4.s
   Uses
      None
Comment: DAC_C1_DMAEN_SHIFT unused
DAC_C2_DACBFRP_MASK 00000010

Symbol: DAC_C2_DACBFRP_MASK
   Definitions
      At line 703 in file MKL46Z4.s
   Uses
      None
Comment: DAC_C2_DACBFRP_MASK unused
DAC_C2_DACBFRP_SHIFT 00000004

Symbol: DAC_C2_DACBFRP_SHIFT
   Definitions
      At line 704 in file MKL46Z4.s
   Uses
      None
Comment: DAC_C2_DACBFRP_SHIFT unused
DAC_C2_DACBFUP_MASK 00000001

Symbol: DAC_C2_DACBFUP_MASK
   Definitions
      At line 705 in file MKL46Z4.s
   Uses
      None
Comment: DAC_C2_DACBFUP_MASK unused
DAC_C2_DACBFUP_SHIFT 00000000

Symbol: DAC_C2_DACBFUP_SHIFT
   Definitions
      At line 706 in file MKL46Z4.s
   Uses
      None
Comment: DAC_C2_DACBFUP_SHIFT unused
DAC_DAT0H_MASK 0000000F

Symbol: DAC_DAT0H_MASK
   Definitions
      At line 631 in file MKL46Z4.s
   Uses
      None
Comment: DAC_DAT0H_MASK unused
DAC_DAT0H_SHIFT 00000000

Symbol: DAC_DAT0H_SHIFT
   Definitions
      At line 632 in file MKL46Z4.s
   Uses
      None
Comment: DAC_DAT0H_SHIFT unused
DAC_DAT1H_MASK 0000000F

Symbol: DAC_DAT1H_MASK
   Definitions



ARM Macro Assembler    Page 40 Alphabetic symbol ordering
Absolute symbols

      At line 642 in file MKL46Z4.s
   Uses
      None
Comment: DAC_DAT1H_MASK unused
DAC_DAT1H_SHIFT 00000000

Symbol: DAC_DAT1H_SHIFT
   Definitions
      At line 643 in file MKL46Z4.s
   Uses
      None
Comment: DAC_DAT1H_SHIFT unused
DAC_SR_DACBFRPBF_MASK 00000001

Symbol: DAC_SR_DACBFRPBF_MASK
   Definitions
      At line 717 in file MKL46Z4.s
   Uses
      None
Comment: DAC_SR_DACBFRPBF_MASK unused
DAC_SR_DACBFRPBF_SHIFT 00000000

Symbol: DAC_SR_DACBFRPBF_SHIFT
   Definitions
      At line 718 in file MKL46Z4.s
   Uses
      None
Comment: DAC_SR_DACBFRPBF_SHIFT unused
DAC_SR_DACBFRPTF_MASK 00000002

Symbol: DAC_SR_DACBFRPTF_MASK
   Definitions
      At line 715 in file MKL46Z4.s
   Uses
      None
Comment: DAC_SR_DACBFRPTF_MASK unused
DAC_SR_DACBFRPTF_SHIFT 00000001

Symbol: DAC_SR_DACBFRPTF_SHIFT
   Definitions
      At line 716 in file MKL46Z4.s
   Uses
      None
Comment: DAC_SR_DACBFRPTF_SHIFT unused
DMA0_IPR E000E400

Symbol: DMA0_IPR
   Definitions
      At line 2640 in file MKL46Z4.s
   Uses
      None
Comment: DMA0_IPR unused
DMA0_IRQ 00000000

Symbol: DMA0_IRQ
   Definitions
      At line 2710 in file MKL46Z4.s
   Uses
      At line 2744 in file MKL46Z4.s



ARM Macro Assembler    Page 41 Alphabetic symbol ordering
Absolute symbols

Comment: DMA0_IRQ used once
DMA0_IRQ_MASK 00000001

Symbol: DMA0_IRQ_MASK
   Definitions
      At line 2744 in file MKL46Z4.s
   Uses
      None
Comment: DMA0_IRQ_MASK unused
DMA0_IRQn 00000000

Symbol: DMA0_IRQn
   Definitions
      At line 123 in file MKL46Z4.s
   Uses
      None
Comment: DMA0_IRQn unused
DMA0_PRI_POS 00000006

Symbol: DMA0_PRI_POS
   Definitions
      At line 2676 in file MKL46Z4.s
   Uses
      None
Comment: DMA0_PRI_POS unused
DMA0_Vector 00000010

Symbol: DMA0_Vector
   Definitions
      At line 2794 in file MKL46Z4.s
   Uses
      None
Comment: DMA0_Vector unused
DMA1_IPR E000E400

Symbol: DMA1_IPR
   Definitions
      At line 2641 in file MKL46Z4.s
   Uses
      None
Comment: DMA1_IPR unused
DMA1_IRQ 00000001

Symbol: DMA1_IRQ
   Definitions
      At line 2711 in file MKL46Z4.s
   Uses
      At line 2745 in file MKL46Z4.s
Comment: DMA1_IRQ used once
DMA1_IRQ_MASK 00000002

Symbol: DMA1_IRQ_MASK
   Definitions
      At line 2745 in file MKL46Z4.s
   Uses
      None
Comment: DMA1_IRQ_MASK unused
DMA1_IRQn 00000001




ARM Macro Assembler    Page 42 Alphabetic symbol ordering
Absolute symbols

Symbol: DMA1_IRQn
   Definitions
      At line 124 in file MKL46Z4.s
   Uses
      None
Comment: DMA1_IRQn unused
DMA1_PRI_POS 0000000E

Symbol: DMA1_PRI_POS
   Definitions
      At line 2677 in file MKL46Z4.s
   Uses
      None
Comment: DMA1_PRI_POS unused
DMA1_Vector 00000011

Symbol: DMA1_Vector
   Definitions
      At line 2795 in file MKL46Z4.s
   Uses
      None
Comment: DMA1_Vector unused
DMA2_IPR E000E400

Symbol: DMA2_IPR
   Definitions
      At line 2642 in file MKL46Z4.s
   Uses
      None
Comment: DMA2_IPR unused
DMA2_IRQ 00000002

Symbol: DMA2_IRQ
   Definitions
      At line 2712 in file MKL46Z4.s
   Uses
      At line 2746 in file MKL46Z4.s
Comment: DMA2_IRQ used once
DMA2_IRQ_MASK 00000004

Symbol: DMA2_IRQ_MASK
   Definitions
      At line 2746 in file MKL46Z4.s
   Uses
      None
Comment: DMA2_IRQ_MASK unused
DMA2_IRQn 00000002

Symbol: DMA2_IRQn
   Definitions
      At line 125 in file MKL46Z4.s
   Uses
      None
Comment: DMA2_IRQn unused
DMA2_PRI_POS 00000016

Symbol: DMA2_PRI_POS
   Definitions
      At line 2678 in file MKL46Z4.s



ARM Macro Assembler    Page 43 Alphabetic symbol ordering
Absolute symbols

   Uses
      None
Comment: DMA2_PRI_POS unused
DMA2_Vector 00000012

Symbol: DMA2_Vector
   Definitions
      At line 2796 in file MKL46Z4.s
   Uses
      None
Comment: DMA2_Vector unused
DMA3_IPR E000E400

Symbol: DMA3_IPR
   Definitions
      At line 2643 in file MKL46Z4.s
   Uses
      None
Comment: DMA3_IPR unused
DMA3_IRQ 00000003

Symbol: DMA3_IRQ
   Definitions
      At line 2713 in file MKL46Z4.s
   Uses
      At line 2747 in file MKL46Z4.s
Comment: DMA3_IRQ used once
DMA3_IRQ_MASK 00000008

Symbol: DMA3_IRQ_MASK
   Definitions
      At line 2747 in file MKL46Z4.s
   Uses
      None
Comment: DMA3_IRQ_MASK unused
DMA3_IRQn 00000003

Symbol: DMA3_IRQn
   Definitions
      At line 126 in file MKL46Z4.s
   Uses
      None
Comment: DMA3_IRQn unused
DMA3_PRI_POS 0000001E

Symbol: DMA3_PRI_POS
   Definitions
      At line 2679 in file MKL46Z4.s
   Uses
      None
Comment: DMA3_PRI_POS unused
DMA3_Vector 00000013

Symbol: DMA3_Vector
   Definitions
      At line 2797 in file MKL46Z4.s
   Uses
      None
Comment: DMA3_Vector unused



ARM Macro Assembler    Page 44 Alphabetic symbol ordering
Absolute symbols

EPSR_MASK 01000000

Symbol: EPSR_MASK
   Definitions
      At line 66 in file MKL46Z4.s
   Uses
      None
Comment: EPSR_MASK unused
EPSR_SHIFT 00000018

Symbol: EPSR_SHIFT
   Definitions
      At line 67 in file MKL46Z4.s
   Uses
      None
Comment: EPSR_SHIFT unused
EPSR_T_MASK 01000000

Symbol: EPSR_T_MASK
   Definitions
      At line 68 in file MKL46Z4.s
   Uses
      At line 100 in file MKL46Z4.s
Comment: EPSR_T_MASK used once
EPSR_T_SHIFT 00000018

Symbol: EPSR_T_SHIFT
   Definitions
      At line 69 in file MKL46Z4.s
   Uses
      At line 101 in file MKL46Z4.s
Comment: EPSR_T_SHIFT used once
FCF_BACKDOOR_KEY0 000000FF

Symbol: FCF_BACKDOOR_KEY0
   Definitions
      At line 781 in file MKL46Z4.s
   Uses
      None
Comment: FCF_BACKDOOR_KEY0 unused
FCF_BACKDOOR_KEY1 000000FF

Symbol: FCF_BACKDOOR_KEY1
   Definitions
      At line 785 in file MKL46Z4.s
   Uses
      None
Comment: FCF_BACKDOOR_KEY1 unused
FCF_BACKDOOR_KEY2 000000FF

Symbol: FCF_BACKDOOR_KEY2
   Definitions
      At line 789 in file MKL46Z4.s
   Uses
      None
Comment: FCF_BACKDOOR_KEY2 unused
FCF_BACKDOOR_KEY3 000000FF

Symbol: FCF_BACKDOOR_KEY3



ARM Macro Assembler    Page 45 Alphabetic symbol ordering
Absolute symbols

   Definitions
      At line 793 in file MKL46Z4.s
   Uses
      None
Comment: FCF_BACKDOOR_KEY3 unused
FCF_BACKDOOR_KEY4 000000FF

Symbol: FCF_BACKDOOR_KEY4
   Definitions
      At line 797 in file MKL46Z4.s
   Uses
      None
Comment: FCF_BACKDOOR_KEY4 unused
FCF_BACKDOOR_KEY5 000000FF

Symbol: FCF_BACKDOOR_KEY5
   Definitions
      At line 801 in file MKL46Z4.s
   Uses
      None
Comment: FCF_BACKDOOR_KEY5 unused
FCF_BACKDOOR_KEY6 000000FF

Symbol: FCF_BACKDOOR_KEY6
   Definitions
      At line 805 in file MKL46Z4.s
   Uses
      None
Comment: FCF_BACKDOOR_KEY6 unused
FCF_BACKDOOR_KEY7 000000FF

Symbol: FCF_BACKDOOR_KEY7
   Definitions
      At line 809 in file MKL46Z4.s
   Uses
      None
Comment: FCF_BACKDOOR_KEY7 unused
FCF_FOPT 000000FF

Symbol: FCF_FOPT
   Definitions
      At line 820 in file MKL46Z4.s
   Uses
      None
Comment: FCF_FOPT unused
FCF_FPROT0 000000FF

Symbol: FCF_FPROT0
   Definitions
      At line 835 in file MKL46Z4.s
   Uses
      None
Comment: FCF_FPROT0 unused
FCF_FPROT1 000000FF

Symbol: FCF_FPROT1
   Definitions
      At line 846 in file MKL46Z4.s
   Uses



ARM Macro Assembler    Page 46 Alphabetic symbol ordering
Absolute symbols

      None
Comment: FCF_FPROT1 unused
FCF_FPROT2 000000FF

Symbol: FCF_FPROT2
   Definitions
      At line 857 in file MKL46Z4.s
   Uses
      None
Comment: FCF_FPROT2 unused
FCF_FPROT3 000000FF

Symbol: FCF_FPROT3
   Definitions
      At line 868 in file MKL46Z4.s
   Uses
      None
Comment: FCF_FPROT3 unused
FCF_FSEC 0000007E

Symbol: FCF_FSEC
   Definitions
      At line 897 in file MKL46Z4.s
   Uses
      None
Comment: FCF_FSEC unused
FGPIOA_BASE F80FF000

Symbol: FGPIOA_BASE
   Definitions
      At line 729 in file MKL46Z4.s
   Uses
      At line 730 in file MKL46Z4.s
      At line 731 in file MKL46Z4.s
      At line 732 in file MKL46Z4.s
      At line 733 in file MKL46Z4.s
      At line 734 in file MKL46Z4.s
      At line 735 in file MKL46Z4.s

FGPIOA_PCOR F80FF008

Symbol: FGPIOA_PCOR
   Definitions
      At line 732 in file MKL46Z4.s
   Uses
      None
Comment: FGPIOA_PCOR unused
FGPIOA_PDDR F80FF014

Symbol: FGPIOA_PDDR
   Definitions
      At line 735 in file MKL46Z4.s
   Uses
      None
Comment: FGPIOA_PDDR unused
FGPIOA_PDIR F80FF010

Symbol: FGPIOA_PDIR
   Definitions



ARM Macro Assembler    Page 47 Alphabetic symbol ordering
Absolute symbols

      At line 734 in file MKL46Z4.s
   Uses
      None
Comment: FGPIOA_PDIR unused
FGPIOA_PDOR F80FF000

Symbol: FGPIOA_PDOR
   Definitions
      At line 730 in file MKL46Z4.s
   Uses
      None
Comment: FGPIOA_PDOR unused
FGPIOA_PSOR F80FF004

Symbol: FGPIOA_PSOR
   Definitions
      At line 731 in file MKL46Z4.s
   Uses
      None
Comment: FGPIOA_PSOR unused
FGPIOA_PTOR F80FF00C

Symbol: FGPIOA_PTOR
   Definitions
      At line 733 in file MKL46Z4.s
   Uses
      None
Comment: FGPIOA_PTOR unused
FGPIOB_BASE F80FF040

Symbol: FGPIOB_BASE
   Definitions
      At line 737 in file MKL46Z4.s
   Uses
      At line 738 in file MKL46Z4.s
      At line 739 in file MKL46Z4.s
      At line 740 in file MKL46Z4.s
      At line 741 in file MKL46Z4.s
      At line 742 in file MKL46Z4.s
      At line 743 in file MKL46Z4.s

FGPIOB_PCOR F80FF048

Symbol: FGPIOB_PCOR
   Definitions
      At line 740 in file MKL46Z4.s
   Uses
      None
Comment: FGPIOB_PCOR unused
FGPIOB_PDDR F80FF054

Symbol: FGPIOB_PDDR
   Definitions
      At line 743 in file MKL46Z4.s
   Uses
      None
Comment: FGPIOB_PDDR unused
FGPIOB_PDIR F80FF050




ARM Macro Assembler    Page 48 Alphabetic symbol ordering
Absolute symbols

Symbol: FGPIOB_PDIR
   Definitions
      At line 742 in file MKL46Z4.s
   Uses
      None
Comment: FGPIOB_PDIR unused
FGPIOB_PDOR F80FF040

Symbol: FGPIOB_PDOR
   Definitions
      At line 738 in file MKL46Z4.s
   Uses
      None
Comment: FGPIOB_PDOR unused
FGPIOB_PSOR F80FF044

Symbol: FGPIOB_PSOR
   Definitions
      At line 739 in file MKL46Z4.s
   Uses
      None
Comment: FGPIOB_PSOR unused
FGPIOB_PTOR F80FF04C

Symbol: FGPIOB_PTOR
   Definitions
      At line 741 in file MKL46Z4.s
   Uses
      None
Comment: FGPIOB_PTOR unused
FGPIOC_BASE F80FF080

Symbol: FGPIOC_BASE
   Definitions
      At line 745 in file MKL46Z4.s
   Uses
      At line 746 in file MKL46Z4.s
      At line 747 in file MKL46Z4.s
      At line 748 in file MKL46Z4.s
      At line 749 in file MKL46Z4.s
      At line 750 in file MKL46Z4.s
      At line 751 in file MKL46Z4.s

FGPIOC_PCOR F80FF088

Symbol: FGPIOC_PCOR
   Definitions
      At line 748 in file MKL46Z4.s
   Uses
      None
Comment: FGPIOC_PCOR unused
FGPIOC_PDDR F80FF094

Symbol: FGPIOC_PDDR
   Definitions
      At line 751 in file MKL46Z4.s
   Uses
      None
Comment: FGPIOC_PDDR unused



ARM Macro Assembler    Page 49 Alphabetic symbol ordering
Absolute symbols

FGPIOC_PDIR F80FF090

Symbol: FGPIOC_PDIR
   Definitions
      At line 750 in file MKL46Z4.s
   Uses
      None
Comment: FGPIOC_PDIR unused
FGPIOC_PDOR F80FF080

Symbol: FGPIOC_PDOR
   Definitions
      At line 746 in file MKL46Z4.s
   Uses
      None
Comment: FGPIOC_PDOR unused
FGPIOC_PSOR F80FF084

Symbol: FGPIOC_PSOR
   Definitions
      At line 747 in file MKL46Z4.s
   Uses
      None
Comment: FGPIOC_PSOR unused
FGPIOC_PTOR F80FF08C

Symbol: FGPIOC_PTOR
   Definitions
      At line 749 in file MKL46Z4.s
   Uses
      None
Comment: FGPIOC_PTOR unused
FGPIOD_BASE F80FF0C0

Symbol: FGPIOD_BASE
   Definitions
      At line 753 in file MKL46Z4.s
   Uses
      At line 754 in file MKL46Z4.s
      At line 755 in file MKL46Z4.s
      At line 756 in file MKL46Z4.s
      At line 757 in file MKL46Z4.s
      At line 758 in file MKL46Z4.s
      At line 759 in file MKL46Z4.s

FGPIOD_PCOR F80FF0C8

Symbol: FGPIOD_PCOR
   Definitions
      At line 756 in file MKL46Z4.s
   Uses
      None
Comment: FGPIOD_PCOR unused
FGPIOD_PDDR F80FF0D4

Symbol: FGPIOD_PDDR
   Definitions
      At line 759 in file MKL46Z4.s
   Uses



ARM Macro Assembler    Page 50 Alphabetic symbol ordering
Absolute symbols

      None
Comment: FGPIOD_PDDR unused
FGPIOD_PDIR F80FF0D0

Symbol: FGPIOD_PDIR
   Definitions
      At line 758 in file MKL46Z4.s
   Uses
      None
Comment: FGPIOD_PDIR unused
FGPIOD_PDOR F80FF0C0

Symbol: FGPIOD_PDOR
   Definitions
      At line 754 in file MKL46Z4.s
   Uses
      None
Comment: FGPIOD_PDOR unused
FGPIOD_PSOR F80FF0C4

Symbol: FGPIOD_PSOR
   Definitions
      At line 755 in file MKL46Z4.s
   Uses
      None
Comment: FGPIOD_PSOR unused
FGPIOD_PTOR F80FF0CC

Symbol: FGPIOD_PTOR
   Definitions
      At line 757 in file MKL46Z4.s
   Uses
      None
Comment: FGPIOD_PTOR unused
FGPIOE_BASE F80FF100

Symbol: FGPIOE_BASE
   Definitions
      At line 761 in file MKL46Z4.s
   Uses
      At line 762 in file MKL46Z4.s
      At line 763 in file MKL46Z4.s
      At line 764 in file MKL46Z4.s
      At line 765 in file MKL46Z4.s
      At line 766 in file MKL46Z4.s
      At line 767 in file MKL46Z4.s

FGPIOE_PCOR F80FF108

Symbol: FGPIOE_PCOR
   Definitions
      At line 764 in file MKL46Z4.s
   Uses
      None
Comment: FGPIOE_PCOR unused
FGPIOE_PDDR F80FF114

Symbol: FGPIOE_PDDR
   Definitions



ARM Macro Assembler    Page 51 Alphabetic symbol ordering
Absolute symbols

      At line 767 in file MKL46Z4.s
   Uses
      None
Comment: FGPIOE_PDDR unused
FGPIOE_PDIR F80FF110

Symbol: FGPIOE_PDIR
   Definitions
      At line 766 in file MKL46Z4.s
   Uses
      None
Comment: FGPIOE_PDIR unused
FGPIOE_PDOR F80FF100

Symbol: FGPIOE_PDOR
   Definitions
      At line 762 in file MKL46Z4.s
   Uses
      None
Comment: FGPIOE_PDOR unused
FGPIOE_PSOR F80FF104

Symbol: FGPIOE_PSOR
   Definitions
      At line 763 in file MKL46Z4.s
   Uses
      None
Comment: FGPIOE_PSOR unused
FGPIOE_PTOR F80FF10C

Symbol: FGPIOE_PTOR
   Definitions
      At line 765 in file MKL46Z4.s
   Uses
      None
Comment: FGPIOE_PTOR unused
FGPIO_BASE F80FF000

Symbol: FGPIO_BASE
   Definitions
      At line 724 in file MKL46Z4.s
   Uses
      None
Comment: FGPIO_BASE unused
FTFA_IPR E000E404

Symbol: FTFA_IPR
   Definitions
      At line 2645 in file MKL46Z4.s
   Uses
      None
Comment: FTFA_IPR unused
FTFA_IRQ 00000005

Symbol: FTFA_IRQ
   Definitions
      At line 2715 in file MKL46Z4.s
   Uses
      At line 2749 in file MKL46Z4.s



ARM Macro Assembler    Page 52 Alphabetic symbol ordering
Absolute symbols

Comment: FTFA_IRQ used once
FTFA_IRQ_MASK 00000020

Symbol: FTFA_IRQ_MASK
   Definitions
      At line 2749 in file MKL46Z4.s
   Uses
      None
Comment: FTFA_IRQ_MASK unused
FTFA_IRQn 00000005

Symbol: FTFA_IRQn
   Definitions
      At line 128 in file MKL46Z4.s
   Uses
      None
Comment: FTFA_IRQn unused
FTFA_PRI_POS 0000000E

Symbol: FTFA_PRI_POS
   Definitions
      At line 2681 in file MKL46Z4.s
   Uses
      None
Comment: FTFA_PRI_POS unused
FTFA_Vector 00000015

Symbol: FTFA_Vector
   Definitions
      At line 2799 in file MKL46Z4.s
   Uses
      None
Comment: FTFA_Vector unused
GPIOA_BASE 400FF000

Symbol: GPIOA_BASE
   Definitions
      At line 916 in file MKL46Z4.s
   Uses
      At line 917 in file MKL46Z4.s
      At line 918 in file MKL46Z4.s
      At line 919 in file MKL46Z4.s
      At line 920 in file MKL46Z4.s
      At line 921 in file MKL46Z4.s
      At line 922 in file MKL46Z4.s

GPIOA_OFFSET 00000000

Symbol: GPIOA_OFFSET
   Definitions
      At line 910 in file MKL46Z4.s
   Uses
      None
Comment: GPIOA_OFFSET unused
GPIOA_PCOR 400FF008

Symbol: GPIOA_PCOR
   Definitions
      At line 919 in file MKL46Z4.s



ARM Macro Assembler    Page 53 Alphabetic symbol ordering
Absolute symbols

   Uses
      None
Comment: GPIOA_PCOR unused
GPIOA_PDDR 400FF014

Symbol: GPIOA_PDDR
   Definitions
      At line 922 in file MKL46Z4.s
   Uses
      None
Comment: GPIOA_PDDR unused
GPIOA_PDIR 400FF010

Symbol: GPIOA_PDIR
   Definitions
      At line 921 in file MKL46Z4.s
   Uses
      None
Comment: GPIOA_PDIR unused
GPIOA_PDOR 400FF000

Symbol: GPIOA_PDOR
   Definitions
      At line 917 in file MKL46Z4.s
   Uses
      None
Comment: GPIOA_PDOR unused
GPIOA_PSOR 400FF004

Symbol: GPIOA_PSOR
   Definitions
      At line 918 in file MKL46Z4.s
   Uses
      None
Comment: GPIOA_PSOR unused
GPIOA_PTOR 400FF00C

Symbol: GPIOA_PTOR
   Definitions
      At line 920 in file MKL46Z4.s
   Uses
      None
Comment: GPIOA_PTOR unused
GPIOB_BASE 400FF040

Symbol: GPIOB_BASE
   Definitions
      At line 924 in file MKL46Z4.s
   Uses
      At line 925 in file MKL46Z4.s
      At line 926 in file MKL46Z4.s
      At line 927 in file MKL46Z4.s
      At line 928 in file MKL46Z4.s
      At line 929 in file MKL46Z4.s
      At line 930 in file MKL46Z4.s

GPIOB_OFFSET 00000040

Symbol: GPIOB_OFFSET



ARM Macro Assembler    Page 54 Alphabetic symbol ordering
Absolute symbols

   Definitions
      At line 911 in file MKL46Z4.s
   Uses
      None
Comment: GPIOB_OFFSET unused
GPIOB_PCOR 400FF048

Symbol: GPIOB_PCOR
   Definitions
      At line 927 in file MKL46Z4.s
   Uses
      None
Comment: GPIOB_PCOR unused
GPIOB_PDDR 400FF054

Symbol: GPIOB_PDDR
   Definitions
      At line 930 in file MKL46Z4.s
   Uses
      None
Comment: GPIOB_PDDR unused
GPIOB_PDIR 400FF050

Symbol: GPIOB_PDIR
   Definitions
      At line 929 in file MKL46Z4.s
   Uses
      None
Comment: GPIOB_PDIR unused
GPIOB_PDOR 400FF040

Symbol: GPIOB_PDOR
   Definitions
      At line 925 in file MKL46Z4.s
   Uses
      None
Comment: GPIOB_PDOR unused
GPIOB_PSOR 400FF044

Symbol: GPIOB_PSOR
   Definitions
      At line 926 in file MKL46Z4.s
   Uses
      None
Comment: GPIOB_PSOR unused
GPIOB_PTOR 400FF04C

Symbol: GPIOB_PTOR
   Definitions
      At line 928 in file MKL46Z4.s
   Uses
      None
Comment: GPIOB_PTOR unused
GPIOC_BASE 400FF080

Symbol: GPIOC_BASE
   Definitions
      At line 932 in file MKL46Z4.s
   Uses



ARM Macro Assembler    Page 55 Alphabetic symbol ordering
Absolute symbols

      At line 933 in file MKL46Z4.s
      At line 934 in file MKL46Z4.s
      At line 935 in file MKL46Z4.s
      At line 936 in file MKL46Z4.s
      At line 937 in file MKL46Z4.s
      At line 938 in file MKL46Z4.s

GPIOC_OFFSET 00000080

Symbol: GPIOC_OFFSET
   Definitions
      At line 912 in file MKL46Z4.s
   Uses
      None
Comment: GPIOC_OFFSET unused
GPIOC_PCOR 400FF088

Symbol: GPIOC_PCOR
   Definitions
      At line 935 in file MKL46Z4.s
   Uses
      None
Comment: GPIOC_PCOR unused
GPIOC_PDDR 400FF094

Symbol: GPIOC_PDDR
   Definitions
      At line 938 in file MKL46Z4.s
   Uses
      None
Comment: GPIOC_PDDR unused
GPIOC_PDIR 400FF090

Symbol: GPIOC_PDIR
   Definitions
      At line 937 in file MKL46Z4.s
   Uses
      None
Comment: GPIOC_PDIR unused
GPIOC_PDOR 400FF080

Symbol: GPIOC_PDOR
   Definitions
      At line 933 in file MKL46Z4.s
   Uses
      None
Comment: GPIOC_PDOR unused
GPIOC_PSOR 400FF084

Symbol: GPIOC_PSOR
   Definitions
      At line 934 in file MKL46Z4.s
   Uses
      None
Comment: GPIOC_PSOR unused
GPIOC_PTOR 400FF08C

Symbol: GPIOC_PTOR
   Definitions



ARM Macro Assembler    Page 56 Alphabetic symbol ordering
Absolute symbols

      At line 936 in file MKL46Z4.s
   Uses
      None
Comment: GPIOC_PTOR unused
GPIOD_BASE 400FF0C0

Symbol: GPIOD_BASE
   Definitions
      At line 940 in file MKL46Z4.s
   Uses
      At line 941 in file MKL46Z4.s
      At line 942 in file MKL46Z4.s
      At line 943 in file MKL46Z4.s
      At line 944 in file MKL46Z4.s
      At line 945 in file MKL46Z4.s
      At line 946 in file MKL46Z4.s

GPIOD_OFFSET 000000C0

Symbol: GPIOD_OFFSET
   Definitions
      At line 913 in file MKL46Z4.s
   Uses
      None
Comment: GPIOD_OFFSET unused
GPIOD_PCOR 400FF0C8

Symbol: GPIOD_PCOR
   Definitions
      At line 943 in file MKL46Z4.s
   Uses
      None
Comment: GPIOD_PCOR unused
GPIOD_PDDR 400FF0D4

Symbol: GPIOD_PDDR
   Definitions
      At line 946 in file MKL46Z4.s
   Uses
      None
Comment: GPIOD_PDDR unused
GPIOD_PDIR 400FF0D0

Symbol: GPIOD_PDIR
   Definitions
      At line 945 in file MKL46Z4.s
   Uses
      None
Comment: GPIOD_PDIR unused
GPIOD_PDOR 400FF0C0

Symbol: GPIOD_PDOR
   Definitions
      At line 941 in file MKL46Z4.s
   Uses
      None
Comment: GPIOD_PDOR unused
GPIOD_PSOR 400FF0C4




ARM Macro Assembler    Page 57 Alphabetic symbol ordering
Absolute symbols

Symbol: GPIOD_PSOR
   Definitions
      At line 942 in file MKL46Z4.s
   Uses
      None
Comment: GPIOD_PSOR unused
GPIOD_PTOR 400FF0CC

Symbol: GPIOD_PTOR
   Definitions
      At line 944 in file MKL46Z4.s
   Uses
      None
Comment: GPIOD_PTOR unused
GPIOE_BASE 400FF100

Symbol: GPIOE_BASE
   Definitions
      At line 948 in file MKL46Z4.s
   Uses
      At line 949 in file MKL46Z4.s
      At line 950 in file MKL46Z4.s
      At line 951 in file MKL46Z4.s
      At line 952 in file MKL46Z4.s
      At line 953 in file MKL46Z4.s
      At line 954 in file MKL46Z4.s

GPIOE_OFFSET 00000100

Symbol: GPIOE_OFFSET
   Definitions
      At line 914 in file MKL46Z4.s
   Uses
      None
Comment: GPIOE_OFFSET unused
GPIOE_PCOR 400FF108

Symbol: GPIOE_PCOR
   Definitions
      At line 951 in file MKL46Z4.s
   Uses
      None
Comment: GPIOE_PCOR unused
GPIOE_PDDR 400FF114

Symbol: GPIOE_PDDR
   Definitions
      At line 954 in file MKL46Z4.s
   Uses
      None
Comment: GPIOE_PDDR unused
GPIOE_PDIR 400FF110

Symbol: GPIOE_PDIR
   Definitions
      At line 953 in file MKL46Z4.s
   Uses
      None
Comment: GPIOE_PDIR unused



ARM Macro Assembler    Page 58 Alphabetic symbol ordering
Absolute symbols

GPIOE_PDOR 400FF100

Symbol: GPIOE_PDOR
   Definitions
      At line 949 in file MKL46Z4.s
   Uses
      None
Comment: GPIOE_PDOR unused
GPIOE_PSOR 400FF104

Symbol: GPIOE_PSOR
   Definitions
      At line 950 in file MKL46Z4.s
   Uses
      None
Comment: GPIOE_PSOR unused
GPIOE_PTOR 400FF10C

Symbol: GPIOE_PTOR
   Definitions
      At line 952 in file MKL46Z4.s
   Uses
      None
Comment: GPIOE_PTOR unused
GPIO_BASE 400FF000

Symbol: GPIO_BASE
   Definitions
      At line 903 in file MKL46Z4.s
   Uses
      None
Comment: GPIO_BASE unused
GPIO_PCOR_OFFSET 00000008

Symbol: GPIO_PCOR_OFFSET
   Definitions
      At line 906 in file MKL46Z4.s
   Uses
      At line 732 in file MKL46Z4.s
      At line 740 in file MKL46Z4.s
      At line 748 in file MKL46Z4.s
      At line 756 in file MKL46Z4.s
      At line 764 in file MKL46Z4.s
      At line 919 in file MKL46Z4.s
      At line 927 in file MKL46Z4.s
      At line 935 in file MKL46Z4.s
      At line 943 in file MKL46Z4.s
      At line 951 in file MKL46Z4.s

GPIO_PDDR_OFFSET 00000014

Symbol: GPIO_PDDR_OFFSET
   Definitions
      At line 909 in file MKL46Z4.s
   Uses
      At line 735 in file MKL46Z4.s
      At line 743 in file MKL46Z4.s
      At line 751 in file MKL46Z4.s
      At line 759 in file MKL46Z4.s



ARM Macro Assembler    Page 59 Alphabetic symbol ordering
Absolute symbols

      At line 767 in file MKL46Z4.s
      At line 922 in file MKL46Z4.s
      At line 930 in file MKL46Z4.s
      At line 938 in file MKL46Z4.s
      At line 946 in file MKL46Z4.s
      At line 954 in file MKL46Z4.s

GPIO_PDIR_OFFSET 00000010

Symbol: GPIO_PDIR_OFFSET
   Definitions
      At line 908 in file MKL46Z4.s
   Uses
      At line 734 in file MKL46Z4.s
      At line 742 in file MKL46Z4.s
      At line 750 in file MKL46Z4.s
      At line 758 in file MKL46Z4.s
      At line 766 in file MKL46Z4.s
      At line 921 in file MKL46Z4.s
      At line 929 in file MKL46Z4.s
      At line 937 in file MKL46Z4.s
      At line 945 in file MKL46Z4.s
      At line 953 in file MKL46Z4.s

GPIO_PDOR_OFFSET 00000000

Symbol: GPIO_PDOR_OFFSET
   Definitions
      At line 904 in file MKL46Z4.s
   Uses
      At line 730 in file MKL46Z4.s
      At line 738 in file MKL46Z4.s
      At line 746 in file MKL46Z4.s
      At line 754 in file MKL46Z4.s
      At line 762 in file MKL46Z4.s
      At line 917 in file MKL46Z4.s
      At line 925 in file MKL46Z4.s
      At line 933 in file MKL46Z4.s
      At line 941 in file MKL46Z4.s
      At line 949 in file MKL46Z4.s

GPIO_PSOR_OFFSET 00000004

Symbol: GPIO_PSOR_OFFSET
   Definitions
      At line 905 in file MKL46Z4.s
   Uses
      At line 731 in file MKL46Z4.s
      At line 739 in file MKL46Z4.s
      At line 747 in file MKL46Z4.s
      At line 755 in file MKL46Z4.s
      At line 763 in file MKL46Z4.s
      At line 918 in file MKL46Z4.s
      At line 926 in file MKL46Z4.s
      At line 934 in file MKL46Z4.s
      At line 942 in file MKL46Z4.s
      At line 950 in file MKL46Z4.s

GPIO_PTOR_OFFSET 0000000C



ARM Macro Assembler    Page 60 Alphabetic symbol ordering
Absolute symbols


Symbol: GPIO_PTOR_OFFSET
   Definitions
      At line 907 in file MKL46Z4.s
   Uses
      At line 733 in file MKL46Z4.s
      At line 741 in file MKL46Z4.s
      At line 749 in file MKL46Z4.s
      At line 757 in file MKL46Z4.s
      At line 765 in file MKL46Z4.s
      At line 920 in file MKL46Z4.s
      At line 928 in file MKL46Z4.s
      At line 936 in file MKL46Z4.s
      At line 944 in file MKL46Z4.s
      At line 952 in file MKL46Z4.s

HALFWORD_MASK 0000FFFF

Symbol: HALFWORD_MASK
   Definitions
      At line 32 in file MKL46Z4.s
   Uses
      None
Comment: HALFWORD_MASK unused
HALFWORD_SIZE 00000002

Symbol: HALFWORD_SIZE
   Definitions
      At line 30 in file MKL46Z4.s
   Uses
      None
Comment: HALFWORD_SIZE unused
HardFault_IRQn FFFFFFF3

Symbol: HardFault_IRQn
   Definitions
      At line 116 in file MKL46Z4.s
   Uses
      None
Comment: HardFault_IRQn unused
Hard_Fault_Vector 00000003

Symbol: Hard_Fault_Vector
   Definitions
      At line 2781 in file MKL46Z4.s
   Uses
      None
Comment: Hard_Fault_Vector unused
I2C0_IPR E000E408

Symbol: I2C0_IPR
   Definitions
      At line 2648 in file MKL46Z4.s
   Uses
      None
Comment: I2C0_IPR unused
I2C0_IRQ 00000008

Symbol: I2C0_IRQ



ARM Macro Assembler    Page 61 Alphabetic symbol ordering
Absolute symbols

   Definitions
      At line 2718 in file MKL46Z4.s
   Uses
      At line 2752 in file MKL46Z4.s
Comment: I2C0_IRQ used once
I2C0_IRQ_MASK 00000100

Symbol: I2C0_IRQ_MASK
   Definitions
      At line 2752 in file MKL46Z4.s
   Uses
      None
Comment: I2C0_IRQ_MASK unused
I2C0_IRQn 00000008

Symbol: I2C0_IRQn
   Definitions
      At line 131 in file MKL46Z4.s
   Uses
      None
Comment: I2C0_IRQn unused
I2C0_PRI_POS 00000006

Symbol: I2C0_PRI_POS
   Definitions
      At line 2684 in file MKL46Z4.s
   Uses
      None
Comment: I2C0_PRI_POS unused
I2C0_Vector 00000018

Symbol: I2C0_Vector
   Definitions
      At line 2802 in file MKL46Z4.s
   Uses
      None
Comment: I2C0_Vector unused
I2C1_IPR E000E408

Symbol: I2C1_IPR
   Definitions
      At line 2649 in file MKL46Z4.s
   Uses
      None
Comment: I2C1_IPR unused
I2C1_IRQ 00000009

Symbol: I2C1_IRQ
   Definitions
      At line 2719 in file MKL46Z4.s
   Uses
      At line 2753 in file MKL46Z4.s
Comment: I2C1_IRQ used once
I2C1_IRQ_MASK 00000200

Symbol: I2C1_IRQ_MASK
   Definitions
      At line 2753 in file MKL46Z4.s
   Uses



ARM Macro Assembler    Page 62 Alphabetic symbol ordering
Absolute symbols

      None
Comment: I2C1_IRQ_MASK unused
I2C1_IRQn 00000009

Symbol: I2C1_IRQn
   Definitions
      At line 132 in file MKL46Z4.s
   Uses
      None
Comment: I2C1_IRQn unused
I2C1_PRI_POS 0000000E

Symbol: I2C1_PRI_POS
   Definitions
      At line 2685 in file MKL46Z4.s
   Uses
      None
Comment: I2C1_PRI_POS unused
I2C1_Vector 00000019

Symbol: I2C1_Vector
   Definitions
      At line 2803 in file MKL46Z4.s
   Uses
      None
Comment: I2C1_Vector unused
I2S0_IPR E000E414

Symbol: I2S0_IPR
   Definitions
      At line 2663 in file MKL46Z4.s
   Uses
      None
Comment: I2S0_IPR unused
I2S0_IRQ 00000017

Symbol: I2S0_IRQ
   Definitions
      At line 2733 in file MKL46Z4.s
   Uses
      At line 2767 in file MKL46Z4.s
Comment: I2S0_IRQ used once
I2S0_IRQ_MASK 00800000

Symbol: I2S0_IRQ_MASK
   Definitions
      At line 2767 in file MKL46Z4.s
   Uses
      None
Comment: I2S0_IRQ_MASK unused
I2S0_IRQn 00000017

Symbol: I2S0_IRQn
   Definitions
      At line 146 in file MKL46Z4.s
   Uses
      None
Comment: I2S0_IRQn unused
I2S0_PRI_POS 0000001E



ARM Macro Assembler    Page 63 Alphabetic symbol ordering
Absolute symbols


Symbol: I2S0_PRI_POS
   Definitions
      At line 2699 in file MKL46Z4.s
   Uses
      None
Comment: I2S0_PRI_POS unused
I2S0_Vector 00000027

Symbol: I2S0_Vector
   Definitions
      At line 2817 in file MKL46Z4.s
   Uses
      None
Comment: I2S0_Vector unused
IPSR_EXCEPTION_MASK 0000003F

Symbol: IPSR_EXCEPTION_MASK
   Definitions
      At line 89 in file MKL46Z4.s
   Uses
      At line 102 in file MKL46Z4.s
Comment: IPSR_EXCEPTION_MASK used once
IPSR_EXCEPTION_SHIFT 00000000

Symbol: IPSR_EXCEPTION_SHIFT
   Definitions
      At line 90 in file MKL46Z4.s
   Uses
      At line 103 in file MKL46Z4.s
Comment: IPSR_EXCEPTION_SHIFT used once
IPSR_MASK 0000003F

Symbol: IPSR_MASK
   Definitions
      At line 87 in file MKL46Z4.s
   Uses
      None
Comment: IPSR_MASK unused
IPSR_SHIFT 00000000

Symbol: IPSR_SHIFT
   Definitions
      At line 88 in file MKL46Z4.s
   Uses
      None
Comment: IPSR_SHIFT unused
Init_SP_Vector 00000000

Symbol: Init_SP_Vector
   Definitions
      At line 2778 in file MKL46Z4.s
   Uses
      None
Comment: Init_SP_Vector unused
LCD_AR 40053004

Symbol: LCD_AR
   Definitions



ARM Macro Assembler    Page 64 Alphabetic symbol ordering
Absolute symbols

      At line 987 in file MKL46Z4.s
   Uses
      None
Comment: LCD_AR unused
LCD_AR_ALT_MASK 00000040

Symbol: LCD_AR_ALT_MASK
   Definitions
      At line 1110 in file MKL46Z4.s
   Uses
      None
Comment: LCD_AR_ALT_MASK unused
LCD_AR_ALT_SHIFT 00000006

Symbol: LCD_AR_ALT_SHIFT
   Definitions
      At line 1111 in file MKL46Z4.s
   Uses
      None
Comment: LCD_AR_ALT_SHIFT unused
LCD_AR_BLANK_MASK 00000020

Symbol: LCD_AR_BLANK_MASK
   Definitions
      At line 1108 in file MKL46Z4.s
   Uses
      None
Comment: LCD_AR_BLANK_MASK unused
LCD_AR_BLANK_SHIFT 00000005

Symbol: LCD_AR_BLANK_SHIFT
   Definitions
      At line 1109 in file MKL46Z4.s
   Uses
      None
Comment: LCD_AR_BLANK_SHIFT unused
LCD_AR_BLINK_MASK 00000080

Symbol: LCD_AR_BLINK_MASK
   Definitions
      At line 1112 in file MKL46Z4.s
   Uses
      None
Comment: LCD_AR_BLINK_MASK unused
LCD_AR_BLINK_SHIFT 00000007

Symbol: LCD_AR_BLINK_SHIFT
   Definitions
      At line 1113 in file MKL46Z4.s
   Uses
      None
Comment: LCD_AR_BLINK_SHIFT unused
LCD_AR_BMODE_MASK 00000008

Symbol: LCD_AR_BMODE_MASK
   Definitions
      At line 1106 in file MKL46Z4.s
   Uses
      None



ARM Macro Assembler    Page 65 Alphabetic symbol ordering
Absolute symbols

Comment: LCD_AR_BMODE_MASK unused
LCD_AR_BMODE_SHIFT 00000003

Symbol: LCD_AR_BMODE_SHIFT
   Definitions
      At line 1107 in file MKL46Z4.s
   Uses
      None
Comment: LCD_AR_BMODE_SHIFT unused
LCD_AR_BRATE_MASK 00000007

Symbol: LCD_AR_BRATE_MASK
   Definitions
      At line 1104 in file MKL46Z4.s
   Uses
      None
Comment: LCD_AR_BRATE_MASK unused
LCD_AR_BRATE_SHIFT 00000000

Symbol: LCD_AR_BRATE_SHIFT
   Definitions
      At line 1105 in file MKL46Z4.s
   Uses
      None
Comment: LCD_AR_BRATE_SHIFT unused
LCD_AR_OFFSET 00000004

Symbol: LCD_AR_OFFSET
   Definitions
      At line 962 in file MKL46Z4.s
   Uses
      At line 987 in file MKL46Z4.s
Comment: LCD_AR_OFFSET used once
LCD_BASE 40053000

Symbol: LCD_BASE
   Definitions
      At line 960 in file MKL46Z4.s
   Uses
      At line 986 in file MKL46Z4.s
      At line 987 in file MKL46Z4.s
      At line 988 in file MKL46Z4.s
      At line 989 in file MKL46Z4.s
      At line 990 in file MKL46Z4.s
      At line 991 in file MKL46Z4.s
      At line 992 in file MKL46Z4.s
      At line 993 in file MKL46Z4.s
      At line 994 in file MKL46Z4.s
      At line 995 in file MKL46Z4.s
      At line 996 in file MKL46Z4.s
      At line 997 in file MKL46Z4.s
      At line 998 in file MKL46Z4.s
      At line 999 in file MKL46Z4.s
      At line 1000 in file MKL46Z4.s
      At line 1001 in file MKL46Z4.s
      At line 1002 in file MKL46Z4.s
      At line 1003 in file MKL46Z4.s
      At line 1004 in file MKL46Z4.s
      At line 1005 in file MKL46Z4.s



ARM Macro Assembler    Page 66 Alphabetic symbol ordering
Absolute symbols

      At line 1006 in file MKL46Z4.s
      At line 1007 in file MKL46Z4.s
      At line 1008 in file MKL46Z4.s
      At line 1009 in file MKL46Z4.s
      At line 1010 in file MKL46Z4.s

LCD_BPENH 4005301C

Symbol: LCD_BPENH
   Definitions
      At line 993 in file MKL46Z4.s
   Uses
      None
Comment: LCD_BPENH unused
LCD_BPENH_OFFSET 0000001C

Symbol: LCD_BPENH_OFFSET
   Definitions
      At line 968 in file MKL46Z4.s
   Uses
      At line 993 in file MKL46Z4.s
Comment: LCD_BPENH_OFFSET used once
LCD_BPENL 40053018

Symbol: LCD_BPENL
   Definitions
      At line 992 in file MKL46Z4.s
   Uses
      None
Comment: LCD_BPENL unused
LCD_BPENL_OFFSET 00000018

Symbol: LCD_BPENL_OFFSET
   Definitions
      At line 967 in file MKL46Z4.s
   Uses
      At line 992 in file MKL46Z4.s
Comment: LCD_BPENL_OFFSET used once
LCD_BPEN_BPEN_MASK FFFFFFFF

Symbol: LCD_BPEN_BPEN_MASK
   Definitions
      At line 1160 in file MKL46Z4.s
   Uses
      None
Comment: LCD_BPEN_BPEN_MASK unused
LCD_BPEN_BPEN_SHIFT 00000000

Symbol: LCD_BPEN_BPEN_SHIFT
   Definitions
      At line 1161 in file MKL46Z4.s
   Uses
      None
Comment: LCD_BPEN_BPEN_SHIFT unused
LCD_FDCR 40053008

Symbol: LCD_FDCR
   Definitions
      At line 988 in file MKL46Z4.s



ARM Macro Assembler    Page 67 Alphabetic symbol ordering
Absolute symbols

   Uses
      None
Comment: LCD_FDCR unused
LCD_FDCR_FDBPEN_MASK 00000040

Symbol: LCD_FDCR_FDBPEN_MASK
   Definitions
      At line 1128 in file MKL46Z4.s
   Uses
      None
Comment: LCD_FDCR_FDBPEN_MASK unused
LCD_FDCR_FDBPEN_SHIFT 00000006

Symbol: LCD_FDCR_FDBPEN_SHIFT
   Definitions
      At line 1129 in file MKL46Z4.s
   Uses
      None
Comment: LCD_FDCR_FDBPEN_SHIFT unused
LCD_FDCR_FDEN_MASK 00000080

Symbol: LCD_FDCR_FDEN_MASK
   Definitions
      At line 1130 in file MKL46Z4.s
   Uses
      None
Comment: LCD_FDCR_FDEN_MASK unused
LCD_FDCR_FDEN_SHIFT 00000007

Symbol: LCD_FDCR_FDEN_SHIFT
   Definitions
      At line 1131 in file MKL46Z4.s
   Uses
      None
Comment: LCD_FDCR_FDEN_SHIFT unused
LCD_FDCR_FDPINID_MASK 0000003F

Symbol: LCD_FDCR_FDPINID_MASK
   Definitions
      At line 1126 in file MKL46Z4.s
   Uses
      None
Comment: LCD_FDCR_FDPINID_MASK unused
LCD_FDCR_FDPINID_SHIFT 00000000

Symbol: LCD_FDCR_FDPINID_SHIFT
   Definitions
      At line 1127 in file MKL46Z4.s
   Uses
      None
Comment: LCD_FDCR_FDPINID_SHIFT unused
LCD_FDCR_FDPRS_MASK 00007000

Symbol: LCD_FDCR_FDPRS_MASK
   Definitions
      At line 1134 in file MKL46Z4.s
   Uses
      None
Comment: LCD_FDCR_FDPRS_MASK unused



ARM Macro Assembler    Page 68 Alphabetic symbol ordering
Absolute symbols

LCD_FDCR_FDPRS_SHIFT 0000000C

Symbol: LCD_FDCR_FDPRS_SHIFT
   Definitions
      At line 1135 in file MKL46Z4.s
   Uses
      None
Comment: LCD_FDCR_FDPRS_SHIFT unused
LCD_FDCR_FDSWW_MASK 00000E00

Symbol: LCD_FDCR_FDSWW_MASK
   Definitions
      At line 1132 in file MKL46Z4.s
   Uses
      None
Comment: LCD_FDCR_FDSWW_MASK unused
LCD_FDCR_FDSWW_SHIFT 00000009

Symbol: LCD_FDCR_FDSWW_SHIFT
   Definitions
      At line 1133 in file MKL46Z4.s
   Uses
      None
Comment: LCD_FDCR_FDSWW_SHIFT unused
LCD_FDCR_OFFSET 00000008

Symbol: LCD_FDCR_OFFSET
   Definitions
      At line 963 in file MKL46Z4.s
   Uses
      At line 988 in file MKL46Z4.s
Comment: LCD_FDCR_OFFSET used once
LCD_FDSR 4005300C

Symbol: LCD_FDSR
   Definitions
      At line 989 in file MKL46Z4.s
   Uses
      None
Comment: LCD_FDSR unused
LCD_FDSR_FDCF_MASK 00008000

Symbol: LCD_FDSR_FDCF_MASK
   Definitions
      At line 1148 in file MKL46Z4.s
   Uses
      None
Comment: LCD_FDSR_FDCF_MASK unused
LCD_FDSR_FDCF_SHIFT 0000000F

Symbol: LCD_FDSR_FDCF_SHIFT
   Definitions
      At line 1149 in file MKL46Z4.s
   Uses
      None
Comment: LCD_FDSR_FDCF_SHIFT unused
LCD_FDSR_FDCNT_MASK 000000FF

Symbol: LCD_FDSR_FDCNT_MASK



ARM Macro Assembler    Page 69 Alphabetic symbol ordering
Absolute symbols

   Definitions
      At line 1146 in file MKL46Z4.s
   Uses
      None
Comment: LCD_FDSR_FDCNT_MASK unused
LCD_FDSR_FDCNT_SHIFT 00000000

Symbol: LCD_FDSR_FDCNT_SHIFT
   Definitions
      At line 1147 in file MKL46Z4.s
   Uses
      None
Comment: LCD_FDSR_FDCNT_SHIFT unused
LCD_FDSR_OFFSET 0000000C

Symbol: LCD_FDSR_OFFSET
   Definitions
      At line 964 in file MKL46Z4.s
   Uses
      At line 989 in file MKL46Z4.s
Comment: LCD_FDSR_OFFSET used once
LCD_GCR 40053000

Symbol: LCD_GCR
   Definitions
      At line 986 in file MKL46Z4.s
   Uses
      None
Comment: LCD_GCR unused
LCD_GCR_ALTDIV_MASK 00003000

Symbol: LCD_GCR_ALTDIV_MASK
   Definitions
      At line 1074 in file MKL46Z4.s
   Uses
      None
Comment: LCD_GCR_ALTDIV_MASK unused
LCD_GCR_ALTDIV_SHIFT 0000000C

Symbol: LCD_GCR_ALTDIV_SHIFT
   Definitions
      At line 1075 in file MKL46Z4.s
   Uses
      None
Comment: LCD_GCR_ALTDIV_SHIFT unused
LCD_GCR_ALTSOURCE_MASK 00000800

Symbol: LCD_GCR_ALTSOURCE_MASK
   Definitions
      At line 1072 in file MKL46Z4.s
   Uses
      None
Comment: LCD_GCR_ALTSOURCE_MASK unused
LCD_GCR_ALTSOURCE_SHIFT 0000000B

Symbol: LCD_GCR_ALTSOURCE_SHIFT
   Definitions
      At line 1073 in file MKL46Z4.s
   Uses



ARM Macro Assembler    Page 70 Alphabetic symbol ordering
Absolute symbols

      None
Comment: LCD_GCR_ALTSOURCE_SHIFT unused
LCD_GCR_CPSEL_MASK 00800000

Symbol: LCD_GCR_CPSEL_MASK
   Definitions
      At line 1084 in file MKL46Z4.s
   Uses
      None
Comment: LCD_GCR_CPSEL_MASK unused
LCD_GCR_CPSEL_SHIFT 00000017

Symbol: LCD_GCR_CPSEL_SHIFT
   Definitions
      At line 1085 in file MKL46Z4.s
   Uses
      None
Comment: LCD_GCR_CPSEL_SHIFT unused
LCD_GCR_DUTY_MASK 00000007

Symbol: LCD_GCR_DUTY_MASK
   Definitions
      At line 1058 in file MKL46Z4.s
   Uses
      None
Comment: LCD_GCR_DUTY_MASK unused
LCD_GCR_DUTY_SHIFT 00000000

Symbol: LCD_GCR_DUTY_SHIFT
   Definitions
      At line 1059 in file MKL46Z4.s
   Uses
      None
Comment: LCD_GCR_DUTY_SHIFT unused
LCD_GCR_FDCIEN_MASK 00004000

Symbol: LCD_GCR_FDCIEN_MASK
   Definitions
      At line 1076 in file MKL46Z4.s
   Uses
      None
Comment: LCD_GCR_FDCIEN_MASK unused
LCD_GCR_FDCIEN_SHIFT 0000000E

Symbol: LCD_GCR_FDCIEN_SHIFT
   Definitions
      At line 1077 in file MKL46Z4.s
   Uses
      None
Comment: LCD_GCR_FDCIEN_SHIFT unused
LCD_GCR_FFR_MASK 00000400

Symbol: LCD_GCR_FFR_MASK
   Definitions
      At line 1070 in file MKL46Z4.s
   Uses
      None
Comment: LCD_GCR_FFR_MASK unused
LCD_GCR_FFR_SHIFT 0000000A



ARM Macro Assembler    Page 71 Alphabetic symbol ordering
Absolute symbols


Symbol: LCD_GCR_FFR_SHIFT
   Definitions
      At line 1071 in file MKL46Z4.s
   Uses
      None
Comment: LCD_GCR_FFR_SHIFT unused
LCD_GCR_LADJ_MASK 00300000

Symbol: LCD_GCR_LADJ_MASK
   Definitions
      At line 1082 in file MKL46Z4.s
   Uses
      None
Comment: LCD_GCR_LADJ_MASK unused
LCD_GCR_LADJ_SHIFT 00000014

Symbol: LCD_GCR_LADJ_SHIFT
   Definitions
      At line 1083 in file MKL46Z4.s
   Uses
      None
Comment: LCD_GCR_LADJ_SHIFT unused
LCD_GCR_LCDDOZE_MASK 00000200

Symbol: LCD_GCR_LCDDOZE_MASK
   Definitions
      At line 1068 in file MKL46Z4.s
   Uses
      None
Comment: LCD_GCR_LCDDOZE_MASK unused
LCD_GCR_LCDDOZE_SHIFT 00000009

Symbol: LCD_GCR_LCDDOZE_SHIFT
   Definitions
      At line 1069 in file MKL46Z4.s
   Uses
      None
Comment: LCD_GCR_LCDDOZE_SHIFT unused
LCD_GCR_LCDEN_MASK 00000080

Symbol: LCD_GCR_LCDEN_MASK
   Definitions
      At line 1064 in file MKL46Z4.s
   Uses
      None
Comment: LCD_GCR_LCDEN_MASK unused
LCD_GCR_LCDEN_SHIFT 00000007

Symbol: LCD_GCR_LCDEN_SHIFT
   Definitions
      At line 1065 in file MKL46Z4.s
   Uses
      None
Comment: LCD_GCR_LCDEN_SHIFT unused
LCD_GCR_LCDSTP_MASK 00000100

Symbol: LCD_GCR_LCDSTP_MASK
   Definitions



ARM Macro Assembler    Page 72 Alphabetic symbol ordering
Absolute symbols

      At line 1066 in file MKL46Z4.s
   Uses
      None
Comment: LCD_GCR_LCDSTP_MASK unused
LCD_GCR_LCDSTP_SHIFT 00000008

Symbol: LCD_GCR_LCDSTP_SHIFT
   Definitions
      At line 1067 in file MKL46Z4.s
   Uses
      None
Comment: LCD_GCR_LCDSTP_SHIFT unused
LCD_GCR_LCLK_MASK 00000038

Symbol: LCD_GCR_LCLK_MASK
   Definitions
      At line 1060 in file MKL46Z4.s
   Uses
      None
Comment: LCD_GCR_LCLK_MASK unused
LCD_GCR_LCLK_SHIFT 00000003

Symbol: LCD_GCR_LCLK_SHIFT
   Definitions
      At line 1061 in file MKL46Z4.s
   Uses
      None
Comment: LCD_GCR_LCLK_SHIFT unused
LCD_GCR_OFFSET 00000000

Symbol: LCD_GCR_OFFSET
   Definitions
      At line 961 in file MKL46Z4.s
   Uses
      At line 986 in file MKL46Z4.s
Comment: LCD_GCR_OFFSET used once
LCD_GCR_PADSAFE_MASK 00008000

Symbol: LCD_GCR_PADSAFE_MASK
   Definitions
      At line 1078 in file MKL46Z4.s
   Uses
      None
Comment: LCD_GCR_PADSAFE_MASK unused
LCD_GCR_PADSAFE_SHIFT 0000000F

Symbol: LCD_GCR_PADSAFE_SHIFT
   Definitions
      At line 1079 in file MKL46Z4.s
   Uses
      None
Comment: LCD_GCR_PADSAFE_SHIFT unused
LCD_GCR_RVEN_MASK 80000000

Symbol: LCD_GCR_RVEN_MASK
   Definitions
      At line 1088 in file MKL46Z4.s
   Uses
      None



ARM Macro Assembler    Page 73 Alphabetic symbol ordering
Absolute symbols

Comment: LCD_GCR_RVEN_MASK unused
LCD_GCR_RVEN_SHIFT 0000001F

Symbol: LCD_GCR_RVEN_SHIFT
   Definitions
      At line 1089 in file MKL46Z4.s
   Uses
      None
Comment: LCD_GCR_RVEN_SHIFT unused
LCD_GCR_RVTRIM_MASK 0F000000

Symbol: LCD_GCR_RVTRIM_MASK
   Definitions
      At line 1086 in file MKL46Z4.s
   Uses
      None
Comment: LCD_GCR_RVTRIM_MASK unused
LCD_GCR_RVTRIM_SHIFT 00000018

Symbol: LCD_GCR_RVTRIM_SHIFT
   Definitions
      At line 1087 in file MKL46Z4.s
   Uses
      None
Comment: LCD_GCR_RVTRIM_SHIFT unused
LCD_GCR_SOURCE_MASK 00000040

Symbol: LCD_GCR_SOURCE_MASK
   Definitions
      At line 1062 in file MKL46Z4.s
   Uses
      None
Comment: LCD_GCR_SOURCE_MASK unused
LCD_GCR_SOURCE_SHIFT 00000006

Symbol: LCD_GCR_SOURCE_SHIFT
   Definitions
      At line 1063 in file MKL46Z4.s
   Uses
      None
Comment: LCD_GCR_SOURCE_SHIFT unused
LCD_GCR_VSUPPLY_MASK 00020000

Symbol: LCD_GCR_VSUPPLY_MASK
   Definitions
      At line 1080 in file MKL46Z4.s
   Uses
      None
Comment: LCD_GCR_VSUPPLY_MASK unused
LCD_GCR_VSUPPLY_SHIFT 00000011

Symbol: LCD_GCR_VSUPPLY_SHIFT
   Definitions
      At line 1081 in file MKL46Z4.s
   Uses
      None
Comment: LCD_GCR_VSUPPLY_SHIFT unused
LCD_IPR E000E41C




ARM Macro Assembler    Page 74 Alphabetic symbol ordering
Absolute symbols

Symbol: LCD_IPR
   Definitions
      At line 2669 in file MKL46Z4.s
   Uses
      None
Comment: LCD_IPR unused
LCD_IRQ 0000001D

Symbol: LCD_IRQ
   Definitions
      At line 2739 in file MKL46Z4.s
   Uses
      At line 2773 in file MKL46Z4.s
Comment: LCD_IRQ used once
LCD_IRQ_MASK 20000000

Symbol: LCD_IRQ_MASK
   Definitions
      At line 2773 in file MKL46Z4.s
   Uses
      None
Comment: LCD_IRQ_MASK unused
LCD_IRQn 0000001D

Symbol: LCD_IRQn
   Definitions
      At line 152 in file MKL46Z4.s
   Uses
      None
Comment: LCD_IRQn unused
LCD_PENH 40053014

Symbol: LCD_PENH
   Definitions
      At line 991 in file MKL46Z4.s
   Uses
      None
Comment: LCD_PENH unused
LCD_PENH_OFFSET 00000014

Symbol: LCD_PENH_OFFSET
   Definitions
      At line 966 in file MKL46Z4.s
   Uses
      At line 991 in file MKL46Z4.s
Comment: LCD_PENH_OFFSET used once
LCD_PENL 40053010

Symbol: LCD_PENL
   Definitions
      At line 990 in file MKL46Z4.s
   Uses
      None
Comment: LCD_PENL unused
LCD_PENL_OFFSET 00000010

Symbol: LCD_PENL_OFFSET
   Definitions
      At line 965 in file MKL46Z4.s



ARM Macro Assembler    Page 75 Alphabetic symbol ordering
Absolute symbols

   Uses
      At line 990 in file MKL46Z4.s
Comment: LCD_PENL_OFFSET used once
LCD_PEN_PEN_MASK FFFFFFFF

Symbol: LCD_PEN_PEN_MASK
   Definitions
      At line 1154 in file MKL46Z4.s
   Uses
      None
Comment: LCD_PEN_PEN_MASK unused
LCD_PEN_PEN_SHIFT 00000000

Symbol: LCD_PEN_PEN_SHIFT
   Definitions
      At line 1155 in file MKL46Z4.s
   Uses
      None
Comment: LCD_PEN_PEN_SHIFT unused
LCD_PRI_POS 0000000E

Symbol: LCD_PRI_POS
   Definitions
      At line 2705 in file MKL46Z4.s
   Uses
      None
Comment: LCD_PRI_POS unused
LCD_Vector 0000002D

Symbol: LCD_Vector
   Definitions
      At line 2823 in file MKL46Z4.s
   Uses
      None
Comment: LCD_Vector unused
LCD_WF 40053020

Symbol: LCD_WF
   Definitions
      At line 994 in file MKL46Z4.s
   Uses
      None
Comment: LCD_WF unused
LCD_WF0_REG 40053020

Symbol: LCD_WF0_REG
   Definitions
      At line 1183 in file MKL46Z4.s
   Uses
      None
Comment: LCD_WF0_REG unused
LCD_WF10_REG 40053028

Symbol: LCD_WF10_REG
   Definitions
      At line 1193 in file MKL46Z4.s
   Uses
      None
Comment: LCD_WF10_REG unused



ARM Macro Assembler    Page 76 Alphabetic symbol ordering
Absolute symbols

LCD_WF11TO8 40053028

Symbol: LCD_WF11TO8
   Definitions
      At line 997 in file MKL46Z4.s
   Uses
      At line 1191 in file MKL46Z4.s
      At line 1192 in file MKL46Z4.s
      At line 1193 in file MKL46Z4.s
      At line 1194 in file MKL46Z4.s

LCD_WF11TO8_OFFSET 00000028

Symbol: LCD_WF11TO8_OFFSET
   Definitions
      At line 972 in file MKL46Z4.s
   Uses
      At line 997 in file MKL46Z4.s
Comment: LCD_WF11TO8_OFFSET used once
LCD_WF11_REG 40053028

Symbol: LCD_WF11_REG
   Definitions
      At line 1194 in file MKL46Z4.s
   Uses
      None
Comment: LCD_WF11_REG unused
LCD_WF12_REG 4005302C

Symbol: LCD_WF12_REG
   Definitions
      At line 1195 in file MKL46Z4.s
   Uses
      None
Comment: LCD_WF12_REG unused
LCD_WF13_REG 4005302C

Symbol: LCD_WF13_REG
   Definitions
      At line 1196 in file MKL46Z4.s
   Uses
      None
Comment: LCD_WF13_REG unused
LCD_WF14_REG 4005302C

Symbol: LCD_WF14_REG
   Definitions
      At line 1197 in file MKL46Z4.s
   Uses
      None
Comment: LCD_WF14_REG unused
LCD_WF15TO12 4005302C

Symbol: LCD_WF15TO12
   Definitions
      At line 998 in file MKL46Z4.s
   Uses
      At line 1195 in file MKL46Z4.s
      At line 1196 in file MKL46Z4.s



ARM Macro Assembler    Page 77 Alphabetic symbol ordering
Absolute symbols

      At line 1197 in file MKL46Z4.s
      At line 1198 in file MKL46Z4.s

LCD_WF15TO12_OFFSET 0000002C

Symbol: LCD_WF15TO12_OFFSET
   Definitions
      At line 973 in file MKL46Z4.s
   Uses
      At line 998 in file MKL46Z4.s
Comment: LCD_WF15TO12_OFFSET used once
LCD_WF15_REG 4005302C

Symbol: LCD_WF15_REG
   Definitions
      At line 1198 in file MKL46Z4.s
   Uses
      None
Comment: LCD_WF15_REG unused
LCD_WF16_REG 40053030

Symbol: LCD_WF16_REG
   Definitions
      At line 1199 in file MKL46Z4.s
   Uses
      None
Comment: LCD_WF16_REG unused
LCD_WF17_REG 40053030

Symbol: LCD_WF17_REG
   Definitions
      At line 1200 in file MKL46Z4.s
   Uses
      None
Comment: LCD_WF17_REG unused
LCD_WF18_REG 40053030

Symbol: LCD_WF18_REG
   Definitions
      At line 1201 in file MKL46Z4.s
   Uses
      None
Comment: LCD_WF18_REG unused
LCD_WF19TO16 40053030

Symbol: LCD_WF19TO16
   Definitions
      At line 999 in file MKL46Z4.s
   Uses
      At line 1199 in file MKL46Z4.s
      At line 1200 in file MKL46Z4.s
      At line 1201 in file MKL46Z4.s
      At line 1202 in file MKL46Z4.s

LCD_WF19TO16_OFFSET 00000030

Symbol: LCD_WF19TO16_OFFSET
   Definitions
      At line 974 in file MKL46Z4.s



ARM Macro Assembler    Page 78 Alphabetic symbol ordering
Absolute symbols

   Uses
      At line 999 in file MKL46Z4.s
Comment: LCD_WF19TO16_OFFSET used once
LCD_WF19_REG 40053030

Symbol: LCD_WF19_REG
   Definitions
      At line 1202 in file MKL46Z4.s
   Uses
      None
Comment: LCD_WF19_REG unused
LCD_WF1_REG 40053020

Symbol: LCD_WF1_REG
   Definitions
      At line 1184 in file MKL46Z4.s
   Uses
      None
Comment: LCD_WF1_REG unused
LCD_WF20_REG 40053034

Symbol: LCD_WF20_REG
   Definitions
      At line 1203 in file MKL46Z4.s
   Uses
      None
Comment: LCD_WF20_REG unused
LCD_WF21_REG 40053034

Symbol: LCD_WF21_REG
   Definitions
      At line 1204 in file MKL46Z4.s
   Uses
      None
Comment: LCD_WF21_REG unused
LCD_WF22_REG 40053034

Symbol: LCD_WF22_REG
   Definitions
      At line 1205 in file MKL46Z4.s
   Uses
      None
Comment: LCD_WF22_REG unused
LCD_WF23TO20 40053034

Symbol: LCD_WF23TO20
   Definitions
      At line 1000 in file MKL46Z4.s
   Uses
      At line 1203 in file MKL46Z4.s
      At line 1204 in file MKL46Z4.s
      At line 1205 in file MKL46Z4.s
      At line 1206 in file MKL46Z4.s

LCD_WF23TO20_OFFSET 00000034

Symbol: LCD_WF23TO20_OFFSET
   Definitions
      At line 975 in file MKL46Z4.s



ARM Macro Assembler    Page 79 Alphabetic symbol ordering
Absolute symbols

   Uses
      At line 1000 in file MKL46Z4.s
Comment: LCD_WF23TO20_OFFSET used once
LCD_WF23_REG 40053034

Symbol: LCD_WF23_REG
   Definitions
      At line 1206 in file MKL46Z4.s
   Uses
      None
Comment: LCD_WF23_REG unused
LCD_WF24_REG 40053038

Symbol: LCD_WF24_REG
   Definitions
      At line 1207 in file MKL46Z4.s
   Uses
      None
Comment: LCD_WF24_REG unused
LCD_WF25_REG 40053038

Symbol: LCD_WF25_REG
   Definitions
      At line 1208 in file MKL46Z4.s
   Uses
      None
Comment: LCD_WF25_REG unused
LCD_WF26_REG 40053038

Symbol: LCD_WF26_REG
   Definitions
      At line 1209 in file MKL46Z4.s
   Uses
      None
Comment: LCD_WF26_REG unused
LCD_WF27TO24 40053038

Symbol: LCD_WF27TO24
   Definitions
      At line 1001 in file MKL46Z4.s
   Uses
      At line 1207 in file MKL46Z4.s
      At line 1208 in file MKL46Z4.s
      At line 1209 in file MKL46Z4.s
      At line 1210 in file MKL46Z4.s

LCD_WF27TO24_OFFSET 00000038

Symbol: LCD_WF27TO24_OFFSET
   Definitions
      At line 976 in file MKL46Z4.s
   Uses
      At line 1001 in file MKL46Z4.s
Comment: LCD_WF27TO24_OFFSET used once
LCD_WF27_REG 40053038

Symbol: LCD_WF27_REG
   Definitions
      At line 1210 in file MKL46Z4.s



ARM Macro Assembler    Page 80 Alphabetic symbol ordering
Absolute symbols

   Uses
      None
Comment: LCD_WF27_REG unused
LCD_WF28_REG 4005303C

Symbol: LCD_WF28_REG
   Definitions
      At line 1211 in file MKL46Z4.s
   Uses
      None
Comment: LCD_WF28_REG unused
LCD_WF29_REG 4005303C

Symbol: LCD_WF29_REG
   Definitions
      At line 1212 in file MKL46Z4.s
   Uses
      None
Comment: LCD_WF29_REG unused
LCD_WF2_REG 40053020

Symbol: LCD_WF2_REG
   Definitions
      At line 1185 in file MKL46Z4.s
   Uses
      None
Comment: LCD_WF2_REG unused
LCD_WF30_REG 4005303C

Symbol: LCD_WF30_REG
   Definitions
      At line 1213 in file MKL46Z4.s
   Uses
      None
Comment: LCD_WF30_REG unused
LCD_WF31TO28 4005303C

Symbol: LCD_WF31TO28
   Definitions
      At line 1002 in file MKL46Z4.s
   Uses
      At line 1211 in file MKL46Z4.s
      At line 1212 in file MKL46Z4.s
      At line 1213 in file MKL46Z4.s
      At line 1214 in file MKL46Z4.s

LCD_WF31TO28_OFFSET 0000003C

Symbol: LCD_WF31TO28_OFFSET
   Definitions
      At line 977 in file MKL46Z4.s
   Uses
      At line 1002 in file MKL46Z4.s
Comment: LCD_WF31TO28_OFFSET used once
LCD_WF31_REG 4005303C

Symbol: LCD_WF31_REG
   Definitions
      At line 1214 in file MKL46Z4.s



ARM Macro Assembler    Page 81 Alphabetic symbol ordering
Absolute symbols

   Uses
      None
Comment: LCD_WF31_REG unused
LCD_WF32_REG 40053040

Symbol: LCD_WF32_REG
   Definitions
      At line 1215 in file MKL46Z4.s
   Uses
      None
Comment: LCD_WF32_REG unused
LCD_WF33_REG 40053040

Symbol: LCD_WF33_REG
   Definitions
      At line 1216 in file MKL46Z4.s
   Uses
      None
Comment: LCD_WF33_REG unused
LCD_WF34_REG 40053040

Symbol: LCD_WF34_REG
   Definitions
      At line 1217 in file MKL46Z4.s
   Uses
      None
Comment: LCD_WF34_REG unused
LCD_WF35TO32 40053040

Symbol: LCD_WF35TO32
   Definitions
      At line 1003 in file MKL46Z4.s
   Uses
      At line 1215 in file MKL46Z4.s
      At line 1216 in file MKL46Z4.s
      At line 1217 in file MKL46Z4.s
      At line 1218 in file MKL46Z4.s

LCD_WF35TO32_OFFSET 00000040

Symbol: LCD_WF35TO32_OFFSET
   Definitions
      At line 978 in file MKL46Z4.s
   Uses
      At line 1003 in file MKL46Z4.s
Comment: LCD_WF35TO32_OFFSET used once
LCD_WF35_REG 40053040

Symbol: LCD_WF35_REG
   Definitions
      At line 1218 in file MKL46Z4.s
   Uses
      None
Comment: LCD_WF35_REG unused
LCD_WF36_REG 40053044

Symbol: LCD_WF36_REG
   Definitions
      At line 1219 in file MKL46Z4.s



ARM Macro Assembler    Page 82 Alphabetic symbol ordering
Absolute symbols

   Uses
      None
Comment: LCD_WF36_REG unused
LCD_WF37_REG 40053044

Symbol: LCD_WF37_REG
   Definitions
      At line 1220 in file MKL46Z4.s
   Uses
      None
Comment: LCD_WF37_REG unused
LCD_WF38_REG 40053044

Symbol: LCD_WF38_REG
   Definitions
      At line 1221 in file MKL46Z4.s
   Uses
      None
Comment: LCD_WF38_REG unused
LCD_WF39TO36 40053044

Symbol: LCD_WF39TO36
   Definitions
      At line 1004 in file MKL46Z4.s
   Uses
      At line 1219 in file MKL46Z4.s
      At line 1220 in file MKL46Z4.s
      At line 1221 in file MKL46Z4.s
      At line 1222 in file MKL46Z4.s

LCD_WF39TO36_OFFSET 00000044

Symbol: LCD_WF39TO36_OFFSET
   Definitions
      At line 979 in file MKL46Z4.s
   Uses
      At line 1004 in file MKL46Z4.s
Comment: LCD_WF39TO36_OFFSET used once
LCD_WF39_REG 40053044

Symbol: LCD_WF39_REG
   Definitions
      At line 1222 in file MKL46Z4.s
   Uses
      None
Comment: LCD_WF39_REG unused
LCD_WF3TO0 40053020

Symbol: LCD_WF3TO0
   Definitions
      At line 995 in file MKL46Z4.s
   Uses
      At line 1183 in file MKL46Z4.s
      At line 1184 in file MKL46Z4.s
      At line 1185 in file MKL46Z4.s
      At line 1186 in file MKL46Z4.s

LCD_WF3TO0_OFFSET 00000020




ARM Macro Assembler    Page 83 Alphabetic symbol ordering
Absolute symbols

Symbol: LCD_WF3TO0_OFFSET
   Definitions
      At line 970 in file MKL46Z4.s
   Uses
      At line 995 in file MKL46Z4.s
Comment: LCD_WF3TO0_OFFSET used once
LCD_WF3_REG 40053020

Symbol: LCD_WF3_REG
   Definitions
      At line 1186 in file MKL46Z4.s
   Uses
      None
Comment: LCD_WF3_REG unused
LCD_WF40_REG 40053048

Symbol: LCD_WF40_REG
   Definitions
      At line 1223 in file MKL46Z4.s
   Uses
      None
Comment: LCD_WF40_REG unused
LCD_WF41_REG 40053048

Symbol: LCD_WF41_REG
   Definitions
      At line 1224 in file MKL46Z4.s
   Uses
      None
Comment: LCD_WF41_REG unused
LCD_WF42_REG 40053048

Symbol: LCD_WF42_REG
   Definitions
      At line 1225 in file MKL46Z4.s
   Uses
      None
Comment: LCD_WF42_REG unused
LCD_WF43TO40 40053048

Symbol: LCD_WF43TO40
   Definitions
      At line 1005 in file MKL46Z4.s
   Uses
      At line 1223 in file MKL46Z4.s
      At line 1224 in file MKL46Z4.s
      At line 1225 in file MKL46Z4.s
      At line 1226 in file MKL46Z4.s

LCD_WF43TO40_OFFSET 00000048

Symbol: LCD_WF43TO40_OFFSET
   Definitions
      At line 980 in file MKL46Z4.s
   Uses
      At line 1005 in file MKL46Z4.s
Comment: LCD_WF43TO40_OFFSET used once
LCD_WF43_REG 40053048




ARM Macro Assembler    Page 84 Alphabetic symbol ordering
Absolute symbols

Symbol: LCD_WF43_REG
   Definitions
      At line 1226 in file MKL46Z4.s
   Uses
      None
Comment: LCD_WF43_REG unused
LCD_WF44_REG 4005304C

Symbol: LCD_WF44_REG
   Definitions
      At line 1227 in file MKL46Z4.s
   Uses
      None
Comment: LCD_WF44_REG unused
LCD_WF45_REG 4005304C

Symbol: LCD_WF45_REG
   Definitions
      At line 1228 in file MKL46Z4.s
   Uses
      None
Comment: LCD_WF45_REG unused
LCD_WF46_REG 4005304C

Symbol: LCD_WF46_REG
   Definitions
      At line 1229 in file MKL46Z4.s
   Uses
      None
Comment: LCD_WF46_REG unused
LCD_WF47TO44 4005304C

Symbol: LCD_WF47TO44
   Definitions
      At line 1006 in file MKL46Z4.s
   Uses
      At line 1227 in file MKL46Z4.s
      At line 1228 in file MKL46Z4.s
      At line 1229 in file MKL46Z4.s
      At line 1230 in file MKL46Z4.s

LCD_WF47TO44_OFFSET 0000004C

Symbol: LCD_WF47TO44_OFFSET
   Definitions
      At line 981 in file MKL46Z4.s
   Uses
      At line 1006 in file MKL46Z4.s
Comment: LCD_WF47TO44_OFFSET used once
LCD_WF47_REG 4005304C

Symbol: LCD_WF47_REG
   Definitions
      At line 1230 in file MKL46Z4.s
   Uses
      None
Comment: LCD_WF47_REG unused
LCD_WF48_REG 40053050




ARM Macro Assembler    Page 85 Alphabetic symbol ordering
Absolute symbols

Symbol: LCD_WF48_REG
   Definitions
      At line 1231 in file MKL46Z4.s
   Uses
      None
Comment: LCD_WF48_REG unused
LCD_WF49_REG 40053050

Symbol: LCD_WF49_REG
   Definitions
      At line 1232 in file MKL46Z4.s
   Uses
      None
Comment: LCD_WF49_REG unused
LCD_WF4_REG 40053024

Symbol: LCD_WF4_REG
   Definitions
      At line 1187 in file MKL46Z4.s
   Uses
      None
Comment: LCD_WF4_REG unused
LCD_WF50_REG 40053050

Symbol: LCD_WF50_REG
   Definitions
      At line 1233 in file MKL46Z4.s
   Uses
      None
Comment: LCD_WF50_REG unused
LCD_WF51TO48 40053050

Symbol: LCD_WF51TO48
   Definitions
      At line 1007 in file MKL46Z4.s
   Uses
      At line 1231 in file MKL46Z4.s
      At line 1232 in file MKL46Z4.s
      At line 1233 in file MKL46Z4.s
      At line 1234 in file MKL46Z4.s

LCD_WF51TO48_OFFSET 00000050

Symbol: LCD_WF51TO48_OFFSET
   Definitions
      At line 982 in file MKL46Z4.s
   Uses
      At line 1007 in file MKL46Z4.s
Comment: LCD_WF51TO48_OFFSET used once
LCD_WF51_REG 40053050

Symbol: LCD_WF51_REG
   Definitions
      At line 1234 in file MKL46Z4.s
   Uses
      None
Comment: LCD_WF51_REG unused
LCD_WF52_REG 40053054




ARM Macro Assembler    Page 86 Alphabetic symbol ordering
Absolute symbols

Symbol: LCD_WF52_REG
   Definitions
      At line 1235 in file MKL46Z4.s
   Uses
      None
Comment: LCD_WF52_REG unused
LCD_WF53_REG 40053054

Symbol: LCD_WF53_REG
   Definitions
      At line 1236 in file MKL46Z4.s
   Uses
      None
Comment: LCD_WF53_REG unused
LCD_WF54_REG 40053054

Symbol: LCD_WF54_REG
   Definitions
      At line 1237 in file MKL46Z4.s
   Uses
      None
Comment: LCD_WF54_REG unused
LCD_WF55TO52 40053054

Symbol: LCD_WF55TO52
   Definitions
      At line 1008 in file MKL46Z4.s
   Uses
      At line 1235 in file MKL46Z4.s
      At line 1236 in file MKL46Z4.s
      At line 1237 in file MKL46Z4.s
      At line 1238 in file MKL46Z4.s

LCD_WF55TO52_OFFSET 00000054

Symbol: LCD_WF55TO52_OFFSET
   Definitions
      At line 983 in file MKL46Z4.s
   Uses
      At line 1008 in file MKL46Z4.s
Comment: LCD_WF55TO52_OFFSET used once
LCD_WF55_REG 40053054

Symbol: LCD_WF55_REG
   Definitions
      At line 1238 in file MKL46Z4.s
   Uses
      None
Comment: LCD_WF55_REG unused
LCD_WF56_REG 40053058

Symbol: LCD_WF56_REG
   Definitions
      At line 1239 in file MKL46Z4.s
   Uses
      None
Comment: LCD_WF56_REG unused
LCD_WF57_REG 40053058




ARM Macro Assembler    Page 87 Alphabetic symbol ordering
Absolute symbols

Symbol: LCD_WF57_REG
   Definitions
      At line 1240 in file MKL46Z4.s
   Uses
      None
Comment: LCD_WF57_REG unused
LCD_WF58_REG 40053058

Symbol: LCD_WF58_REG
   Definitions
      At line 1241 in file MKL46Z4.s
   Uses
      None
Comment: LCD_WF58_REG unused
LCD_WF59TO56 40053058

Symbol: LCD_WF59TO56
   Definitions
      At line 1009 in file MKL46Z4.s
   Uses
      At line 1239 in file MKL46Z4.s
      At line 1240 in file MKL46Z4.s
      At line 1241 in file MKL46Z4.s
      At line 1242 in file MKL46Z4.s

LCD_WF59TO56_OFFSET 00000058

Symbol: LCD_WF59TO56_OFFSET
   Definitions
      At line 984 in file MKL46Z4.s
   Uses
      At line 1009 in file MKL46Z4.s
Comment: LCD_WF59TO56_OFFSET used once
LCD_WF59_REG 40053058

Symbol: LCD_WF59_REG
   Definitions
      At line 1242 in file MKL46Z4.s
   Uses
      None
Comment: LCD_WF59_REG unused
LCD_WF5_REG 40053024

Symbol: LCD_WF5_REG
   Definitions
      At line 1188 in file MKL46Z4.s
   Uses
      None
Comment: LCD_WF5_REG unused
LCD_WF60_REG 4005305C

Symbol: LCD_WF60_REG
   Definitions
      At line 1243 in file MKL46Z4.s
   Uses
      None
Comment: LCD_WF60_REG unused
LCD_WF61_REG 4005305C




ARM Macro Assembler    Page 88 Alphabetic symbol ordering
Absolute symbols

Symbol: LCD_WF61_REG
   Definitions
      At line 1244 in file MKL46Z4.s
   Uses
      None
Comment: LCD_WF61_REG unused
LCD_WF62_REG 4005305C

Symbol: LCD_WF62_REG
   Definitions
      At line 1245 in file MKL46Z4.s
   Uses
      None
Comment: LCD_WF62_REG unused
LCD_WF63TO60 4005305C

Symbol: LCD_WF63TO60
   Definitions
      At line 1010 in file MKL46Z4.s
   Uses
      At line 1243 in file MKL46Z4.s
      At line 1244 in file MKL46Z4.s
      At line 1245 in file MKL46Z4.s
      At line 1246 in file MKL46Z4.s

LCD_WF63TO60_OFFSET 0000005C

Symbol: LCD_WF63TO60_OFFSET
   Definitions
      At line 985 in file MKL46Z4.s
   Uses
      At line 1010 in file MKL46Z4.s
Comment: LCD_WF63TO60_OFFSET used once
LCD_WF63_REG 4005305C

Symbol: LCD_WF63_REG
   Definitions
      At line 1246 in file MKL46Z4.s
   Uses
      None
Comment: LCD_WF63_REG unused
LCD_WF6_REG 40053024

Symbol: LCD_WF6_REG
   Definitions
      At line 1189 in file MKL46Z4.s
   Uses
      None
Comment: LCD_WF6_REG unused
LCD_WF7TO4 40053024

Symbol: LCD_WF7TO4
   Definitions
      At line 996 in file MKL46Z4.s
   Uses
      At line 1187 in file MKL46Z4.s
      At line 1188 in file MKL46Z4.s
      At line 1189 in file MKL46Z4.s
      At line 1190 in file MKL46Z4.s



ARM Macro Assembler    Page 89 Alphabetic symbol ordering
Absolute symbols


LCD_WF7TO4_OFFSET 00000024

Symbol: LCD_WF7TO4_OFFSET
   Definitions
      At line 971 in file MKL46Z4.s
   Uses
      At line 996 in file MKL46Z4.s
Comment: LCD_WF7TO4_OFFSET used once
LCD_WF7_REG 40053024

Symbol: LCD_WF7_REG
   Definitions
      At line 1190 in file MKL46Z4.s
   Uses
      None
Comment: LCD_WF7_REG unused
LCD_WF8B_BPALCD0_MASK 00000001

Symbol: LCD_WF8B_BPALCD0_MASK
   Definitions
      At line 1408 in file MKL46Z4.s
   Uses
      None
Comment: LCD_WF8B_BPALCD0_MASK unused
LCD_WF8B_BPALCD0_SHIFT 00000000

Symbol: LCD_WF8B_BPALCD0_SHIFT
   Definitions
      At line 1409 in file MKL46Z4.s
   Uses
      None
Comment: LCD_WF8B_BPALCD0_SHIFT unused
LCD_WF8B_BPALCD10_MASK 00000001

Symbol: LCD_WF8B_BPALCD10_MASK
   Definitions
      At line 1530 in file MKL46Z4.s
   Uses
      None
Comment: LCD_WF8B_BPALCD10_MASK unused
LCD_WF8B_BPALCD10_SHIFT 00000000

Symbol: LCD_WF8B_BPALCD10_SHIFT
   Definitions
      At line 1531 in file MKL46Z4.s
   Uses
      None
Comment: LCD_WF8B_BPALCD10_SHIFT unused
LCD_WF8B_BPALCD11_MASK 00000001

Symbol: LCD_WF8B_BPALCD11_MASK
   Definitions
      At line 1528 in file MKL46Z4.s
   Uses
      None
Comment: LCD_WF8B_BPALCD11_MASK unused
LCD_WF8B_BPALCD11_SHIFT 00000000




ARM Macro Assembler    Page 90 Alphabetic symbol ordering
Absolute symbols

Symbol: LCD_WF8B_BPALCD11_SHIFT
   Definitions
      At line 1529 in file MKL46Z4.s
   Uses
      None
Comment: LCD_WF8B_BPALCD11_SHIFT unused
LCD_WF8B_BPALCD12_MASK 00000001

Symbol: LCD_WF8B_BPALCD12_MASK
   Definitions
      At line 1526 in file MKL46Z4.s
   Uses
      None
Comment: LCD_WF8B_BPALCD12_MASK unused
LCD_WF8B_BPALCD12_SHIFT 00000000

Symbol: LCD_WF8B_BPALCD12_SHIFT
   Definitions
      At line 1527 in file MKL46Z4.s
   Uses
      None
Comment: LCD_WF8B_BPALCD12_SHIFT unused
LCD_WF8B_BPALCD13_MASK 00000001

Symbol: LCD_WF8B_BPALCD13_MASK
   Definitions
      At line 1524 in file MKL46Z4.s
   Uses
      None
Comment: LCD_WF8B_BPALCD13_MASK unused
LCD_WF8B_BPALCD13_SHIFT 00000000

Symbol: LCD_WF8B_BPALCD13_SHIFT
   Definitions
      At line 1525 in file MKL46Z4.s
   Uses
      None
Comment: LCD_WF8B_BPALCD13_SHIFT unused
LCD_WF8B_BPALCD14_MASK 00000001

Symbol: LCD_WF8B_BPALCD14_MASK
   Definitions
      At line 1522 in file MKL46Z4.s
   Uses
      None
Comment: LCD_WF8B_BPALCD14_MASK unused
LCD_WF8B_BPALCD14_SHIFT 00000000

Symbol: LCD_WF8B_BPALCD14_SHIFT
   Definitions
      At line 1523 in file MKL46Z4.s
   Uses
      None
Comment: LCD_WF8B_BPALCD14_SHIFT unused
LCD_WF8B_BPALCD15_MASK 00000001

Symbol: LCD_WF8B_BPALCD15_MASK
   Definitions
      At line 1518 in file MKL46Z4.s



ARM Macro Assembler    Page 91 Alphabetic symbol ordering
Absolute symbols

   Uses
      None
Comment: LCD_WF8B_BPALCD15_MASK unused
LCD_WF8B_BPALCD15_SHIFT 00000000

Symbol: LCD_WF8B_BPALCD15_SHIFT
   Definitions
      At line 1519 in file MKL46Z4.s
   Uses
      None
Comment: LCD_WF8B_BPALCD15_SHIFT unused
LCD_WF8B_BPALCD16_MASK 00000001

Symbol: LCD_WF8B_BPALCD16_MASK
   Definitions
      At line 1516 in file MKL46Z4.s
   Uses
      None
Comment: LCD_WF8B_BPALCD16_MASK unused
LCD_WF8B_BPALCD16_SHIFT 00000000

Symbol: LCD_WF8B_BPALCD16_SHIFT
   Definitions
      At line 1517 in file MKL46Z4.s
   Uses
      None
Comment: LCD_WF8B_BPALCD16_SHIFT unused
LCD_WF8B_BPALCD17_MASK 00000001

Symbol: LCD_WF8B_BPALCD17_MASK
   Definitions
      At line 1514 in file MKL46Z4.s
   Uses
      None
Comment: LCD_WF8B_BPALCD17_MASK unused
LCD_WF8B_BPALCD17_SHIFT 00000000

Symbol: LCD_WF8B_BPALCD17_SHIFT
   Definitions
      At line 1515 in file MKL46Z4.s
   Uses
      None
Comment: LCD_WF8B_BPALCD17_SHIFT unused
LCD_WF8B_BPALCD18_MASK 00000001

Symbol: LCD_WF8B_BPALCD18_MASK
   Definitions
      At line 1512 in file MKL46Z4.s
   Uses
      None
Comment: LCD_WF8B_BPALCD18_MASK unused
LCD_WF8B_BPALCD18_SHIFT 00000000

Symbol: LCD_WF8B_BPALCD18_SHIFT
   Definitions
      At line 1513 in file MKL46Z4.s
   Uses
      None
Comment: LCD_WF8B_BPALCD18_SHIFT unused



ARM Macro Assembler    Page 92 Alphabetic symbol ordering
Absolute symbols

LCD_WF8B_BPALCD19_MASK 00000001

Symbol: LCD_WF8B_BPALCD19_MASK
   Definitions
      At line 1510 in file MKL46Z4.s
   Uses
      None
Comment: LCD_WF8B_BPALCD19_MASK unused
LCD_WF8B_BPALCD19_SHIFT 00000000

Symbol: LCD_WF8B_BPALCD19_SHIFT
   Definitions
      At line 1511 in file MKL46Z4.s
   Uses
      None
Comment: LCD_WF8B_BPALCD19_SHIFT unused
LCD_WF8B_BPALCD1_MASK 00000001

Symbol: LCD_WF8B_BPALCD1_MASK
   Definitions
      At line 1424 in file MKL46Z4.s
   Uses
      None
Comment: LCD_WF8B_BPALCD1_MASK unused
LCD_WF8B_BPALCD1_SHIFT 00000000

Symbol: LCD_WF8B_BPALCD1_SHIFT
   Definitions
      At line 1425 in file MKL46Z4.s
   Uses
      None
Comment: LCD_WF8B_BPALCD1_SHIFT unused
LCD_WF8B_BPALCD20_MASK 00000001

Symbol: LCD_WF8B_BPALCD20_MASK
   Definitions
      At line 1508 in file MKL46Z4.s
   Uses
      None
Comment: LCD_WF8B_BPALCD20_MASK unused
LCD_WF8B_BPALCD20_SHIFT 00000000

Symbol: LCD_WF8B_BPALCD20_SHIFT
   Definitions
      At line 1509 in file MKL46Z4.s
   Uses
      None
Comment: LCD_WF8B_BPALCD20_SHIFT unused
LCD_WF8B_BPALCD21_MASK 00000001

Symbol: LCD_WF8B_BPALCD21_MASK
   Definitions
      At line 1506 in file MKL46Z4.s
   Uses
      None
Comment: LCD_WF8B_BPALCD21_MASK unused
LCD_WF8B_BPALCD21_SHIFT 00000000

Symbol: LCD_WF8B_BPALCD21_SHIFT



ARM Macro Assembler    Page 93 Alphabetic symbol ordering
Absolute symbols

   Definitions
      At line 1507 in file MKL46Z4.s
   Uses
      None
Comment: LCD_WF8B_BPALCD21_SHIFT unused
LCD_WF8B_BPALCD22_MASK 00000001

Symbol: LCD_WF8B_BPALCD22_MASK
   Definitions
      At line 1502 in file MKL46Z4.s
   Uses
      None
Comment: LCD_WF8B_BPALCD22_MASK unused
LCD_WF8B_BPALCD22_SHIFT 00000000

Symbol: LCD_WF8B_BPALCD22_SHIFT
   Definitions
      At line 1503 in file MKL46Z4.s
   Uses
      None
Comment: LCD_WF8B_BPALCD22_SHIFT unused
LCD_WF8B_BPALCD23_MASK 00000001

Symbol: LCD_WF8B_BPALCD23_MASK
   Definitions
      At line 1500 in file MKL46Z4.s
   Uses
      None
Comment: LCD_WF8B_BPALCD23_MASK unused
LCD_WF8B_BPALCD23_SHIFT 00000000

Symbol: LCD_WF8B_BPALCD23_SHIFT
   Definitions
      At line 1501 in file MKL46Z4.s
   Uses
      None
Comment: LCD_WF8B_BPALCD23_SHIFT unused
LCD_WF8B_BPALCD24_MASK 00000001

Symbol: LCD_WF8B_BPALCD24_MASK
   Definitions
      At line 1498 in file MKL46Z4.s
   Uses
      None
Comment: LCD_WF8B_BPALCD24_MASK unused
LCD_WF8B_BPALCD24_SHIFT 00000000

Symbol: LCD_WF8B_BPALCD24_SHIFT
   Definitions
      At line 1499 in file MKL46Z4.s
   Uses
      None
Comment: LCD_WF8B_BPALCD24_SHIFT unused
LCD_WF8B_BPALCD25_MASK 00000001

Symbol: LCD_WF8B_BPALCD25_MASK
   Definitions
      At line 1496 in file MKL46Z4.s
   Uses



ARM Macro Assembler    Page 94 Alphabetic symbol ordering
Absolute symbols

      None
Comment: LCD_WF8B_BPALCD25_MASK unused
LCD_WF8B_BPALCD25_SHIFT 00000000

Symbol: LCD_WF8B_BPALCD25_SHIFT
   Definitions
      At line 1497 in file MKL46Z4.s
   Uses
      None
Comment: LCD_WF8B_BPALCD25_SHIFT unused
LCD_WF8B_BPALCD26_MASK 00000001

Symbol: LCD_WF8B_BPALCD26_MASK
   Definitions
      At line 1494 in file MKL46Z4.s
   Uses
      None
Comment: LCD_WF8B_BPALCD26_MASK unused
LCD_WF8B_BPALCD26_SHIFT 00000000

Symbol: LCD_WF8B_BPALCD26_SHIFT
   Definitions
      At line 1495 in file MKL46Z4.s
   Uses
      None
Comment: LCD_WF8B_BPALCD26_SHIFT unused
LCD_WF8B_BPALCD27_MASK 00000001

Symbol: LCD_WF8B_BPALCD27_MASK
   Definitions
      At line 1492 in file MKL46Z4.s
   Uses
      None
Comment: LCD_WF8B_BPALCD27_MASK unused
LCD_WF8B_BPALCD27_SHIFT 00000000

Symbol: LCD_WF8B_BPALCD27_SHIFT
   Definitions
      At line 1493 in file MKL46Z4.s
   Uses
      None
Comment: LCD_WF8B_BPALCD27_SHIFT unused
LCD_WF8B_BPALCD28_MASK 00000001

Symbol: LCD_WF8B_BPALCD28_MASK
   Definitions
      At line 1490 in file MKL46Z4.s
   Uses
      None
Comment: LCD_WF8B_BPALCD28_MASK unused
LCD_WF8B_BPALCD28_SHIFT 00000000

Symbol: LCD_WF8B_BPALCD28_SHIFT
   Definitions
      At line 1491 in file MKL46Z4.s
   Uses
      None
Comment: LCD_WF8B_BPALCD28_SHIFT unused
LCD_WF8B_BPALCD29_MASK 00000001



ARM Macro Assembler    Page 95 Alphabetic symbol ordering
Absolute symbols


Symbol: LCD_WF8B_BPALCD29_MASK
   Definitions
      At line 1486 in file MKL46Z4.s
   Uses
      None
Comment: LCD_WF8B_BPALCD29_MASK unused
LCD_WF8B_BPALCD29_SHIFT 00000000

Symbol: LCD_WF8B_BPALCD29_SHIFT
   Definitions
      At line 1487 in file MKL46Z4.s
   Uses
      None
Comment: LCD_WF8B_BPALCD29_SHIFT unused
LCD_WF8B_BPALCD2_MASK 00000001

Symbol: LCD_WF8B_BPALCD2_MASK
   Definitions
      At line 1440 in file MKL46Z4.s
   Uses
      None
Comment: LCD_WF8B_BPALCD2_MASK unused
LCD_WF8B_BPALCD2_SHIFT 00000000

Symbol: LCD_WF8B_BPALCD2_SHIFT
   Definitions
      At line 1441 in file MKL46Z4.s
   Uses
      None
Comment: LCD_WF8B_BPALCD2_SHIFT unused
LCD_WF8B_BPALCD30_MASK 00000001

Symbol: LCD_WF8B_BPALCD30_MASK
   Definitions
      At line 1484 in file MKL46Z4.s
   Uses
      None
Comment: LCD_WF8B_BPALCD30_MASK unused
LCD_WF8B_BPALCD30_SHIFT 00000000

Symbol: LCD_WF8B_BPALCD30_SHIFT
   Definitions
      At line 1485 in file MKL46Z4.s
   Uses
      None
Comment: LCD_WF8B_BPALCD30_SHIFT unused
LCD_WF8B_BPALCD31_MASK 00000001

Symbol: LCD_WF8B_BPALCD31_MASK
   Definitions
      At line 1482 in file MKL46Z4.s
   Uses
      None
Comment: LCD_WF8B_BPALCD31_MASK unused
LCD_WF8B_BPALCD31_SHIFT 00000000

Symbol: LCD_WF8B_BPALCD31_SHIFT
   Definitions



ARM Macro Assembler    Page 96 Alphabetic symbol ordering
Absolute symbols

      At line 1483 in file MKL46Z4.s
   Uses
      None
Comment: LCD_WF8B_BPALCD31_SHIFT unused
LCD_WF8B_BPALCD32_MASK 00000001

Symbol: LCD_WF8B_BPALCD32_MASK
   Definitions
      At line 1480 in file MKL46Z4.s
   Uses
      None
Comment: LCD_WF8B_BPALCD32_MASK unused
LCD_WF8B_BPALCD32_SHIFT 00000000

Symbol: LCD_WF8B_BPALCD32_SHIFT
   Definitions
      At line 1481 in file MKL46Z4.s
   Uses
      None
Comment: LCD_WF8B_BPALCD32_SHIFT unused
LCD_WF8B_BPALCD33_MASK 00000001

Symbol: LCD_WF8B_BPALCD33_MASK
   Definitions
      At line 1478 in file MKL46Z4.s
   Uses
      None
Comment: LCD_WF8B_BPALCD33_MASK unused
LCD_WF8B_BPALCD33_SHIFT 00000000

Symbol: LCD_WF8B_BPALCD33_SHIFT
   Definitions
      At line 1479 in file MKL46Z4.s
   Uses
      None
Comment: LCD_WF8B_BPALCD33_SHIFT unused
LCD_WF8B_BPALCD34_MASK 00000001

Symbol: LCD_WF8B_BPALCD34_MASK
   Definitions
      At line 1476 in file MKL46Z4.s
   Uses
      None
Comment: LCD_WF8B_BPALCD34_MASK unused
LCD_WF8B_BPALCD34_SHIFT 00000000

Symbol: LCD_WF8B_BPALCD34_SHIFT
   Definitions
      At line 1477 in file MKL46Z4.s
   Uses
      None
Comment: LCD_WF8B_BPALCD34_SHIFT unused
LCD_WF8B_BPALCD35_MASK 00000001

Symbol: LCD_WF8B_BPALCD35_MASK
   Definitions
      At line 1474 in file MKL46Z4.s
   Uses
      None



ARM Macro Assembler    Page 97 Alphabetic symbol ordering
Absolute symbols

Comment: LCD_WF8B_BPALCD35_MASK unused
LCD_WF8B_BPALCD35_SHIFT 00000000

Symbol: LCD_WF8B_BPALCD35_SHIFT
   Definitions
      At line 1475 in file MKL46Z4.s
   Uses
      None
Comment: LCD_WF8B_BPALCD35_SHIFT unused
LCD_WF8B_BPALCD36_MASK 00000001

Symbol: LCD_WF8B_BPALCD36_MASK
   Definitions
      At line 1470 in file MKL46Z4.s
   Uses
      None
Comment: LCD_WF8B_BPALCD36_MASK unused
LCD_WF8B_BPALCD36_SHIFT 00000000

Symbol: LCD_WF8B_BPALCD36_SHIFT
   Definitions
      At line 1471 in file MKL46Z4.s
   Uses
      None
Comment: LCD_WF8B_BPALCD36_SHIFT unused
LCD_WF8B_BPALCD37_MASK 00000001

Symbol: LCD_WF8B_BPALCD37_MASK
   Definitions
      At line 1468 in file MKL46Z4.s
   Uses
      None
Comment: LCD_WF8B_BPALCD37_MASK unused
LCD_WF8B_BPALCD37_SHIFT 00000000

Symbol: LCD_WF8B_BPALCD37_SHIFT
   Definitions
      At line 1469 in file MKL46Z4.s
   Uses
      None
Comment: LCD_WF8B_BPALCD37_SHIFT unused
LCD_WF8B_BPALCD38_MASK 00000001

Symbol: LCD_WF8B_BPALCD38_MASK
   Definitions
      At line 1466 in file MKL46Z4.s
   Uses
      None
Comment: LCD_WF8B_BPALCD38_MASK unused
LCD_WF8B_BPALCD38_SHIFT 00000000

Symbol: LCD_WF8B_BPALCD38_SHIFT
   Definitions
      At line 1467 in file MKL46Z4.s
   Uses
      None
Comment: LCD_WF8B_BPALCD38_SHIFT unused
LCD_WF8B_BPALCD39_MASK 00000001




ARM Macro Assembler    Page 98 Alphabetic symbol ordering
Absolute symbols

Symbol: LCD_WF8B_BPALCD39_MASK
   Definitions
      At line 1464 in file MKL46Z4.s
   Uses
      None
Comment: LCD_WF8B_BPALCD39_MASK unused
LCD_WF8B_BPALCD39_SHIFT 00000000

Symbol: LCD_WF8B_BPALCD39_SHIFT
   Definitions
      At line 1465 in file MKL46Z4.s
   Uses
      None
Comment: LCD_WF8B_BPALCD39_SHIFT unused
LCD_WF8B_BPALCD3_MASK 00000001

Symbol: LCD_WF8B_BPALCD3_MASK
   Definitions
      At line 1456 in file MKL46Z4.s
   Uses
      None
Comment: LCD_WF8B_BPALCD3_MASK unused
LCD_WF8B_BPALCD3_SHIFT 00000000

Symbol: LCD_WF8B_BPALCD3_SHIFT
   Definitions
      At line 1457 in file MKL46Z4.s
   Uses
      None
Comment: LCD_WF8B_BPALCD3_SHIFT unused
LCD_WF8B_BPALCD40_MASK 00000001

Symbol: LCD_WF8B_BPALCD40_MASK
   Definitions
      At line 1462 in file MKL46Z4.s
   Uses
      None
Comment: LCD_WF8B_BPALCD40_MASK unused
LCD_WF8B_BPALCD40_SHIFT 00000000

Symbol: LCD_WF8B_BPALCD40_SHIFT
   Definitions
      At line 1463 in file MKL46Z4.s
   Uses
      None
Comment: LCD_WF8B_BPALCD40_SHIFT unused
LCD_WF8B_BPALCD41_MASK 00000001

Symbol: LCD_WF8B_BPALCD41_MASK
   Definitions
      At line 1460 in file MKL46Z4.s
   Uses
      None
Comment: LCD_WF8B_BPALCD41_MASK unused
LCD_WF8B_BPALCD41_SHIFT 00000000

Symbol: LCD_WF8B_BPALCD41_SHIFT
   Definitions
      At line 1461 in file MKL46Z4.s



ARM Macro Assembler    Page 99 Alphabetic symbol ordering
Absolute symbols

   Uses
      None
Comment: LCD_WF8B_BPALCD41_SHIFT unused
LCD_WF8B_BPALCD42_MASK 00000001

Symbol: LCD_WF8B_BPALCD42_MASK
   Definitions
      At line 1458 in file MKL46Z4.s
   Uses
      None
Comment: LCD_WF8B_BPALCD42_MASK unused
LCD_WF8B_BPALCD42_SHIFT 00000000

Symbol: LCD_WF8B_BPALCD42_SHIFT
   Definitions
      At line 1459 in file MKL46Z4.s
   Uses
      None
Comment: LCD_WF8B_BPALCD42_SHIFT unused
LCD_WF8B_BPALCD43_MASK 00000001

Symbol: LCD_WF8B_BPALCD43_MASK
   Definitions
      At line 1454 in file MKL46Z4.s
   Uses
      None
Comment: LCD_WF8B_BPALCD43_MASK unused
LCD_WF8B_BPALCD43_SHIFT 00000000

Symbol: LCD_WF8B_BPALCD43_SHIFT
   Definitions
      At line 1455 in file MKL46Z4.s
   Uses
      None
Comment: LCD_WF8B_BPALCD43_SHIFT unused
LCD_WF8B_BPALCD44_MASK 00000001

Symbol: LCD_WF8B_BPALCD44_MASK
   Definitions
      At line 1452 in file MKL46Z4.s
   Uses
      None
Comment: LCD_WF8B_BPALCD44_MASK unused
LCD_WF8B_BPALCD44_SHIFT 00000000

Symbol: LCD_WF8B_BPALCD44_SHIFT
   Definitions
      At line 1453 in file MKL46Z4.s
   Uses
      None
Comment: LCD_WF8B_BPALCD44_SHIFT unused
LCD_WF8B_BPALCD45_MASK 00000001

Symbol: LCD_WF8B_BPALCD45_MASK
   Definitions
      At line 1450 in file MKL46Z4.s
   Uses
      None
Comment: LCD_WF8B_BPALCD45_MASK unused



ARM Macro Assembler    Page 100 Alphabetic symbol ordering
Absolute symbols

LCD_WF8B_BPALCD45_SHIFT 00000000

Symbol: LCD_WF8B_BPALCD45_SHIFT
   Definitions
      At line 1451 in file MKL46Z4.s
   Uses
      None
Comment: LCD_WF8B_BPALCD45_SHIFT unused
LCD_WF8B_BPALCD46_MASK 00000001

Symbol: LCD_WF8B_BPALCD46_MASK
   Definitions
      At line 1448 in file MKL46Z4.s
   Uses
      None
Comment: LCD_WF8B_BPALCD46_MASK unused
LCD_WF8B_BPALCD46_SHIFT 00000000

Symbol: LCD_WF8B_BPALCD46_SHIFT
   Definitions
      At line 1449 in file MKL46Z4.s
   Uses
      None
Comment: LCD_WF8B_BPALCD46_SHIFT unused
LCD_WF8B_BPALCD47_MASK 00000001

Symbol: LCD_WF8B_BPALCD47_MASK
   Definitions
      At line 1446 in file MKL46Z4.s
   Uses
      None
Comment: LCD_WF8B_BPALCD47_MASK unused
LCD_WF8B_BPALCD47_SHIFT 00000000

Symbol: LCD_WF8B_BPALCD47_SHIFT
   Definitions
      At line 1447 in file MKL46Z4.s
   Uses
      None
Comment: LCD_WF8B_BPALCD47_SHIFT unused
LCD_WF8B_BPALCD48_MASK 00000001

Symbol: LCD_WF8B_BPALCD48_MASK
   Definitions
      At line 1444 in file MKL46Z4.s
   Uses
      None
Comment: LCD_WF8B_BPALCD48_MASK unused
LCD_WF8B_BPALCD48_SHIFT 00000000

Symbol: LCD_WF8B_BPALCD48_SHIFT
   Definitions
      At line 1445 in file MKL46Z4.s
   Uses
      None
Comment: LCD_WF8B_BPALCD48_SHIFT unused
LCD_WF8B_BPALCD49_MASK 00000001

Symbol: LCD_WF8B_BPALCD49_MASK



ARM Macro Assembler    Page 101 Alphabetic symbol ordering
Absolute symbols

   Definitions
      At line 1442 in file MKL46Z4.s
   Uses
      None
Comment: LCD_WF8B_BPALCD49_MASK unused
LCD_WF8B_BPALCD49_SHIFT 00000000

Symbol: LCD_WF8B_BPALCD49_SHIFT
   Definitions
      At line 1443 in file MKL46Z4.s
   Uses
      None
Comment: LCD_WF8B_BPALCD49_SHIFT unused
LCD_WF8B_BPALCD4_MASK 00000001

Symbol: LCD_WF8B_BPALCD4_MASK
   Definitions
      At line 1472 in file MKL46Z4.s
   Uses
      None
Comment: LCD_WF8B_BPALCD4_MASK unused
LCD_WF8B_BPALCD4_SHIFT 00000000

Symbol: LCD_WF8B_BPALCD4_SHIFT
   Definitions
      At line 1473 in file MKL46Z4.s
   Uses
      None
Comment: LCD_WF8B_BPALCD4_SHIFT unused
LCD_WF8B_BPALCD50_MASK 00000001

Symbol: LCD_WF8B_BPALCD50_MASK
   Definitions
      At line 1438 in file MKL46Z4.s
   Uses
      None
Comment: LCD_WF8B_BPALCD50_MASK unused
LCD_WF8B_BPALCD50_SHIFT 00000000

Symbol: LCD_WF8B_BPALCD50_SHIFT
   Definitions
      At line 1439 in file MKL46Z4.s
   Uses
      None
Comment: LCD_WF8B_BPALCD50_SHIFT unused
LCD_WF8B_BPALCD51_MASK 00000001

Symbol: LCD_WF8B_BPALCD51_MASK
   Definitions
      At line 1436 in file MKL46Z4.s
   Uses
      None
Comment: LCD_WF8B_BPALCD51_MASK unused
LCD_WF8B_BPALCD51_SHIFT 00000000

Symbol: LCD_WF8B_BPALCD51_SHIFT
   Definitions
      At line 1437 in file MKL46Z4.s
   Uses



ARM Macro Assembler    Page 102 Alphabetic symbol ordering
Absolute symbols

      None
Comment: LCD_WF8B_BPALCD51_SHIFT unused
LCD_WF8B_BPALCD52_MASK 00000001

Symbol: LCD_WF8B_BPALCD52_MASK
   Definitions
      At line 1434 in file MKL46Z4.s
   Uses
      None
Comment: LCD_WF8B_BPALCD52_MASK unused
LCD_WF8B_BPALCD52_SHIFT 00000000

Symbol: LCD_WF8B_BPALCD52_SHIFT
   Definitions
      At line 1435 in file MKL46Z4.s
   Uses
      None
Comment: LCD_WF8B_BPALCD52_SHIFT unused
LCD_WF8B_BPALCD53_MASK 00000001

Symbol: LCD_WF8B_BPALCD53_MASK
   Definitions
      At line 1432 in file MKL46Z4.s
   Uses
      None
Comment: LCD_WF8B_BPALCD53_MASK unused
LCD_WF8B_BPALCD53_SHIFT 00000000

Symbol: LCD_WF8B_BPALCD53_SHIFT
   Definitions
      At line 1433 in file MKL46Z4.s
   Uses
      None
Comment: LCD_WF8B_BPALCD53_SHIFT unused
LCD_WF8B_BPALCD54_MASK 00000001

Symbol: LCD_WF8B_BPALCD54_MASK
   Definitions
      At line 1430 in file MKL46Z4.s
   Uses
      None
Comment: LCD_WF8B_BPALCD54_MASK unused
LCD_WF8B_BPALCD54_SHIFT 00000000

Symbol: LCD_WF8B_BPALCD54_SHIFT
   Definitions
      At line 1431 in file MKL46Z4.s
   Uses
      None
Comment: LCD_WF8B_BPALCD54_SHIFT unused
LCD_WF8B_BPALCD55_MASK 00000001

Symbol: LCD_WF8B_BPALCD55_MASK
   Definitions
      At line 1428 in file MKL46Z4.s
   Uses
      None
Comment: LCD_WF8B_BPALCD55_MASK unused
LCD_WF8B_BPALCD55_SHIFT 00000000



ARM Macro Assembler    Page 103 Alphabetic symbol ordering
Absolute symbols


Symbol: LCD_WF8B_BPALCD55_SHIFT
   Definitions
      At line 1429 in file MKL46Z4.s
   Uses
      None
Comment: LCD_WF8B_BPALCD55_SHIFT unused
LCD_WF8B_BPALCD56_MASK 00000001

Symbol: LCD_WF8B_BPALCD56_MASK
   Definitions
      At line 1426 in file MKL46Z4.s
   Uses
      None
Comment: LCD_WF8B_BPALCD56_MASK unused
LCD_WF8B_BPALCD56_SHIFT 00000000

Symbol: LCD_WF8B_BPALCD56_SHIFT
   Definitions
      At line 1427 in file MKL46Z4.s
   Uses
      None
Comment: LCD_WF8B_BPALCD56_SHIFT unused
LCD_WF8B_BPALCD57_MASK 00000001

Symbol: LCD_WF8B_BPALCD57_MASK
   Definitions
      At line 1422 in file MKL46Z4.s
   Uses
      None
Comment: LCD_WF8B_BPALCD57_MASK unused
LCD_WF8B_BPALCD57_SHIFT 00000000

Symbol: LCD_WF8B_BPALCD57_SHIFT
   Definitions
      At line 1423 in file MKL46Z4.s
   Uses
      None
Comment: LCD_WF8B_BPALCD57_SHIFT unused
LCD_WF8B_BPALCD58_MASK 00000001

Symbol: LCD_WF8B_BPALCD58_MASK
   Definitions
      At line 1420 in file MKL46Z4.s
   Uses
      None
Comment: LCD_WF8B_BPALCD58_MASK unused
LCD_WF8B_BPALCD58_SHIFT 00000000

Symbol: LCD_WF8B_BPALCD58_SHIFT
   Definitions
      At line 1421 in file MKL46Z4.s
   Uses
      None
Comment: LCD_WF8B_BPALCD58_SHIFT unused
LCD_WF8B_BPALCD59_MASK 00000001

Symbol: LCD_WF8B_BPALCD59_MASK
   Definitions



ARM Macro Assembler    Page 104 Alphabetic symbol ordering
Absolute symbols

      At line 1418 in file MKL46Z4.s
   Uses
      None
Comment: LCD_WF8B_BPALCD59_MASK unused
LCD_WF8B_BPALCD59_SHIFT 00000000

Symbol: LCD_WF8B_BPALCD59_SHIFT
   Definitions
      At line 1419 in file MKL46Z4.s
   Uses
      None
Comment: LCD_WF8B_BPALCD59_SHIFT unused
LCD_WF8B_BPALCD5_MASK 00000001

Symbol: LCD_WF8B_BPALCD5_MASK
   Definitions
      At line 1488 in file MKL46Z4.s
   Uses
      None
Comment: LCD_WF8B_BPALCD5_MASK unused
LCD_WF8B_BPALCD5_SHIFT 00000000

Symbol: LCD_WF8B_BPALCD5_SHIFT
   Definitions
      At line 1489 in file MKL46Z4.s
   Uses
      None
Comment: LCD_WF8B_BPALCD5_SHIFT unused
LCD_WF8B_BPALCD60_MASK 00000001

Symbol: LCD_WF8B_BPALCD60_MASK
   Definitions
      At line 1416 in file MKL46Z4.s
   Uses
      None
Comment: LCD_WF8B_BPALCD60_MASK unused
LCD_WF8B_BPALCD60_SHIFT 00000000

Symbol: LCD_WF8B_BPALCD60_SHIFT
   Definitions
      At line 1417 in file MKL46Z4.s
   Uses
      None
Comment: LCD_WF8B_BPALCD60_SHIFT unused
LCD_WF8B_BPALCD61_MASK 00000001

Symbol: LCD_WF8B_BPALCD61_MASK
   Definitions
      At line 1414 in file MKL46Z4.s
   Uses
      None
Comment: LCD_WF8B_BPALCD61_MASK unused
LCD_WF8B_BPALCD61_SHIFT 00000000

Symbol: LCD_WF8B_BPALCD61_SHIFT
   Definitions
      At line 1415 in file MKL46Z4.s
   Uses
      None



ARM Macro Assembler    Page 105 Alphabetic symbol ordering
Absolute symbols

Comment: LCD_WF8B_BPALCD61_SHIFT unused
LCD_WF8B_BPALCD62_MASK 00000001

Symbol: LCD_WF8B_BPALCD62_MASK
   Definitions
      At line 1412 in file MKL46Z4.s
   Uses
      None
Comment: LCD_WF8B_BPALCD62_MASK unused
LCD_WF8B_BPALCD62_SHIFT 00000000

Symbol: LCD_WF8B_BPALCD62_SHIFT
   Definitions
      At line 1413 in file MKL46Z4.s
   Uses
      None
Comment: LCD_WF8B_BPALCD62_SHIFT unused
LCD_WF8B_BPALCD63_MASK 00000001

Symbol: LCD_WF8B_BPALCD63_MASK
   Definitions
      At line 1410 in file MKL46Z4.s
   Uses
      None
Comment: LCD_WF8B_BPALCD63_MASK unused
LCD_WF8B_BPALCD63_SHIFT 00000000

Symbol: LCD_WF8B_BPALCD63_SHIFT
   Definitions
      At line 1411 in file MKL46Z4.s
   Uses
      None
Comment: LCD_WF8B_BPALCD63_SHIFT unused
LCD_WF8B_BPALCD6_MASK 00000001

Symbol: LCD_WF8B_BPALCD6_MASK
   Definitions
      At line 1504 in file MKL46Z4.s
   Uses
      None
Comment: LCD_WF8B_BPALCD6_MASK unused
LCD_WF8B_BPALCD6_SHIFT 00000000

Symbol: LCD_WF8B_BPALCD6_SHIFT
   Definitions
      At line 1505 in file MKL46Z4.s
   Uses
      None
Comment: LCD_WF8B_BPALCD6_SHIFT unused
LCD_WF8B_BPALCD7_MASK 00000001

Symbol: LCD_WF8B_BPALCD7_MASK
   Definitions
      At line 1520 in file MKL46Z4.s
   Uses
      None
Comment: LCD_WF8B_BPALCD7_MASK unused
LCD_WF8B_BPALCD7_SHIFT 00000000




ARM Macro Assembler    Page 106 Alphabetic symbol ordering
Absolute symbols

Symbol: LCD_WF8B_BPALCD7_SHIFT
   Definitions
      At line 1521 in file MKL46Z4.s
   Uses
      None
Comment: LCD_WF8B_BPALCD7_SHIFT unused
LCD_WF8B_BPALCD8_MASK 00000001

Symbol: LCD_WF8B_BPALCD8_MASK
   Definitions
      At line 1534 in file MKL46Z4.s
   Uses
      None
Comment: LCD_WF8B_BPALCD8_MASK unused
LCD_WF8B_BPALCD8_SHIFT 00000000

Symbol: LCD_WF8B_BPALCD8_SHIFT
   Definitions
      At line 1535 in file MKL46Z4.s
   Uses
      None
Comment: LCD_WF8B_BPALCD8_SHIFT unused
LCD_WF8B_BPALCD9_MASK 00000001

Symbol: LCD_WF8B_BPALCD9_MASK
   Definitions
      At line 1532 in file MKL46Z4.s
   Uses
      None
Comment: LCD_WF8B_BPALCD9_MASK unused
LCD_WF8B_BPALCD9_SHIFT 00000000

Symbol: LCD_WF8B_BPALCD9_SHIFT
   Definitions
      At line 1533 in file MKL46Z4.s
   Uses
      None
Comment: LCD_WF8B_BPALCD9_SHIFT unused
LCD_WF8B_BPBLCD0_MASK 00000002

Symbol: LCD_WF8B_BPBLCD0_MASK
   Definitions
      At line 1574 in file MKL46Z4.s
   Uses
      None
Comment: LCD_WF8B_BPBLCD0_MASK unused
LCD_WF8B_BPBLCD0_SHIFT 00000001

Symbol: LCD_WF8B_BPBLCD0_SHIFT
   Definitions
      At line 1575 in file MKL46Z4.s
   Uses
      None
Comment: LCD_WF8B_BPBLCD0_SHIFT unused
LCD_WF8B_BPBLCD10_MASK 00000002

Symbol: LCD_WF8B_BPBLCD10_MASK
   Definitions
      At line 1552 in file MKL46Z4.s



ARM Macro Assembler    Page 107 Alphabetic symbol ordering
Absolute symbols

   Uses
      None
Comment: LCD_WF8B_BPBLCD10_MASK unused
LCD_WF8B_BPBLCD10_SHIFT 00000001

Symbol: LCD_WF8B_BPBLCD10_SHIFT
   Definitions
      At line 1553 in file MKL46Z4.s
   Uses
      None
Comment: LCD_WF8B_BPBLCD10_SHIFT unused
LCD_WF8B_BPBLCD11_MASK 00000002

Symbol: LCD_WF8B_BPBLCD11_MASK
   Definitions
      At line 1648 in file MKL46Z4.s
   Uses
      None
Comment: LCD_WF8B_BPBLCD11_MASK unused
LCD_WF8B_BPBLCD11_SHIFT 00000001

Symbol: LCD_WF8B_BPBLCD11_SHIFT
   Definitions
      At line 1649 in file MKL46Z4.s
   Uses
      None
Comment: LCD_WF8B_BPBLCD11_SHIFT unused
LCD_WF8B_BPBLCD12_MASK 00000002

Symbol: LCD_WF8B_BPBLCD12_MASK
   Definitions
      At line 1610 in file MKL46Z4.s
   Uses
      None
Comment: LCD_WF8B_BPBLCD12_MASK unused
LCD_WF8B_BPBLCD12_SHIFT 00000001

Symbol: LCD_WF8B_BPBLCD12_SHIFT
   Definitions
      At line 1611 in file MKL46Z4.s
   Uses
      None
Comment: LCD_WF8B_BPBLCD12_SHIFT unused
LCD_WF8B_BPBLCD13_MASK 00000002

Symbol: LCD_WF8B_BPBLCD13_MASK
   Definitions
      At line 1662 in file MKL46Z4.s
   Uses
      None
Comment: LCD_WF8B_BPBLCD13_MASK unused
LCD_WF8B_BPBLCD13_SHIFT 00000001

Symbol: LCD_WF8B_BPBLCD13_SHIFT
   Definitions
      At line 1663 in file MKL46Z4.s
   Uses
      None
Comment: LCD_WF8B_BPBLCD13_SHIFT unused



ARM Macro Assembler    Page 108 Alphabetic symbol ordering
Absolute symbols

LCD_WF8B_BPBLCD14_MASK 00000002

Symbol: LCD_WF8B_BPBLCD14_MASK
   Definitions
      At line 1634 in file MKL46Z4.s
   Uses
      None
Comment: LCD_WF8B_BPBLCD14_MASK unused
LCD_WF8B_BPBLCD14_SHIFT 00000001

Symbol: LCD_WF8B_BPBLCD14_SHIFT
   Definitions
      At line 1635 in file MKL46Z4.s
   Uses
      None
Comment: LCD_WF8B_BPBLCD14_SHIFT unused
LCD_WF8B_BPBLCD15_MASK 00000002

Symbol: LCD_WF8B_BPBLCD15_MASK
   Definitions
      At line 1554 in file MKL46Z4.s
   Uses
      None
Comment: LCD_WF8B_BPBLCD15_MASK unused
LCD_WF8B_BPBLCD15_SHIFT 00000001

Symbol: LCD_WF8B_BPBLCD15_SHIFT
   Definitions
      At line 1555 in file MKL46Z4.s
   Uses
      None
Comment: LCD_WF8B_BPBLCD15_SHIFT unused
LCD_WF8B_BPBLCD16_MASK 00000002

Symbol: LCD_WF8B_BPBLCD16_MASK
   Definitions
      At line 1660 in file MKL46Z4.s
   Uses
      None
Comment: LCD_WF8B_BPBLCD16_MASK unused
LCD_WF8B_BPBLCD16_SHIFT 00000001

Symbol: LCD_WF8B_BPBLCD16_SHIFT
   Definitions
      At line 1661 in file MKL46Z4.s
   Uses
      None
Comment: LCD_WF8B_BPBLCD16_SHIFT unused
LCD_WF8B_BPBLCD17_MASK 00000002

Symbol: LCD_WF8B_BPBLCD17_MASK
   Definitions
      At line 1644 in file MKL46Z4.s
   Uses
      None
Comment: LCD_WF8B_BPBLCD17_MASK unused
LCD_WF8B_BPBLCD17_SHIFT 00000001

Symbol: LCD_WF8B_BPBLCD17_SHIFT



ARM Macro Assembler    Page 109 Alphabetic symbol ordering
Absolute symbols

   Definitions
      At line 1645 in file MKL46Z4.s
   Uses
      None
Comment: LCD_WF8B_BPBLCD17_SHIFT unused
LCD_WF8B_BPBLCD18_MASK 00000002

Symbol: LCD_WF8B_BPBLCD18_MASK
   Definitions
      At line 1628 in file MKL46Z4.s
   Uses
      None
Comment: LCD_WF8B_BPBLCD18_MASK unused
LCD_WF8B_BPBLCD18_SHIFT 00000001

Symbol: LCD_WF8B_BPBLCD18_SHIFT
   Definitions
      At line 1629 in file MKL46Z4.s
   Uses
      None
Comment: LCD_WF8B_BPBLCD18_SHIFT unused
LCD_WF8B_BPBLCD19_MASK 00000002

Symbol: LCD_WF8B_BPBLCD19_MASK
   Definitions
      At line 1612 in file MKL46Z4.s
   Uses
      None
Comment: LCD_WF8B_BPBLCD19_MASK unused
LCD_WF8B_BPBLCD19_SHIFT 00000001

Symbol: LCD_WF8B_BPBLCD19_SHIFT
   Definitions
      At line 1613 in file MKL46Z4.s
   Uses
      None
Comment: LCD_WF8B_BPBLCD19_SHIFT unused
LCD_WF8B_BPBLCD1_MASK 00000002

Symbol: LCD_WF8B_BPBLCD1_MASK
   Definitions
      At line 1536 in file MKL46Z4.s
   Uses
      None
Comment: LCD_WF8B_BPBLCD1_MASK unused
LCD_WF8B_BPBLCD1_SHIFT 00000001

Symbol: LCD_WF8B_BPBLCD1_SHIFT
   Definitions
      At line 1537 in file MKL46Z4.s
   Uses
      None
Comment: LCD_WF8B_BPBLCD1_SHIFT unused
LCD_WF8B_BPBLCD20_MASK 00000002

Symbol: LCD_WF8B_BPBLCD20_MASK
   Definitions
      At line 1596 in file MKL46Z4.s
   Uses



ARM Macro Assembler    Page 110 Alphabetic symbol ordering
Absolute symbols

      None
Comment: LCD_WF8B_BPBLCD20_MASK unused
LCD_WF8B_BPBLCD20_SHIFT 00000001

Symbol: LCD_WF8B_BPBLCD20_SHIFT
   Definitions
      At line 1597 in file MKL46Z4.s
   Uses
      None
Comment: LCD_WF8B_BPBLCD20_SHIFT unused
LCD_WF8B_BPBLCD21_MASK 00000002

Symbol: LCD_WF8B_BPBLCD21_MASK
   Definitions
      At line 1580 in file MKL46Z4.s
   Uses
      None
Comment: LCD_WF8B_BPBLCD21_MASK unused
LCD_WF8B_BPBLCD21_SHIFT 00000001

Symbol: LCD_WF8B_BPBLCD21_SHIFT
   Definitions
      At line 1581 in file MKL46Z4.s
   Uses
      None
Comment: LCD_WF8B_BPBLCD21_SHIFT unused
LCD_WF8B_BPBLCD22_MASK 00000002

Symbol: LCD_WF8B_BPBLCD22_MASK
   Definitions
      At line 1564 in file MKL46Z4.s
   Uses
      None
Comment: LCD_WF8B_BPBLCD22_MASK unused
LCD_WF8B_BPBLCD22_SHIFT 00000001

Symbol: LCD_WF8B_BPBLCD22_SHIFT
   Definitions
      At line 1565 in file MKL46Z4.s
   Uses
      None
Comment: LCD_WF8B_BPBLCD22_SHIFT unused
LCD_WF8B_BPBLCD23_MASK 00000002

Symbol: LCD_WF8B_BPBLCD23_MASK
   Definitions
      At line 1548 in file MKL46Z4.s
   Uses
      None
Comment: LCD_WF8B_BPBLCD23_MASK unused
LCD_WF8B_BPBLCD23_SHIFT 00000001

Symbol: LCD_WF8B_BPBLCD23_SHIFT
   Definitions
      At line 1549 in file MKL46Z4.s
   Uses
      None
Comment: LCD_WF8B_BPBLCD23_SHIFT unused
LCD_WF8B_BPBLCD24_MASK 00000002



ARM Macro Assembler    Page 111 Alphabetic symbol ordering
Absolute symbols


Symbol: LCD_WF8B_BPBLCD24_MASK
   Definitions
      At line 1544 in file MKL46Z4.s
   Uses
      None
Comment: LCD_WF8B_BPBLCD24_MASK unused
LCD_WF8B_BPBLCD24_SHIFT 00000001

Symbol: LCD_WF8B_BPBLCD24_SHIFT
   Definitions
      At line 1545 in file MKL46Z4.s
   Uses
      None
Comment: LCD_WF8B_BPBLCD24_SHIFT unused
LCD_WF8B_BPBLCD25_MASK 00000002

Symbol: LCD_WF8B_BPBLCD25_MASK
   Definitions
      At line 1586 in file MKL46Z4.s
   Uses
      None
Comment: LCD_WF8B_BPBLCD25_MASK unused
LCD_WF8B_BPBLCD25_SHIFT 00000001

Symbol: LCD_WF8B_BPBLCD25_SHIFT
   Definitions
      At line 1587 in file MKL46Z4.s
   Uses
      None
Comment: LCD_WF8B_BPBLCD25_SHIFT unused
LCD_WF8B_BPBLCD26_MASK 00000002

Symbol: LCD_WF8B_BPBLCD26_MASK
   Definitions
      At line 1608 in file MKL46Z4.s
   Uses
      None
Comment: LCD_WF8B_BPBLCD26_MASK unused
LCD_WF8B_BPBLCD26_SHIFT 00000001

Symbol: LCD_WF8B_BPBLCD26_SHIFT
   Definitions
      At line 1609 in file MKL46Z4.s
   Uses
      None
Comment: LCD_WF8B_BPBLCD26_SHIFT unused
LCD_WF8B_BPBLCD27_MASK 00000002

Symbol: LCD_WF8B_BPBLCD27_MASK
   Definitions
      At line 1632 in file MKL46Z4.s
   Uses
      None
Comment: LCD_WF8B_BPBLCD27_MASK unused
LCD_WF8B_BPBLCD27_SHIFT 00000001

Symbol: LCD_WF8B_BPBLCD27_SHIFT
   Definitions



ARM Macro Assembler    Page 112 Alphabetic symbol ordering
Absolute symbols

      At line 1633 in file MKL46Z4.s
   Uses
      None
Comment: LCD_WF8B_BPBLCD27_SHIFT unused
LCD_WF8B_BPBLCD28_MASK 00000002

Symbol: LCD_WF8B_BPBLCD28_MASK
   Definitions
      At line 1546 in file MKL46Z4.s
   Uses
      None
Comment: LCD_WF8B_BPBLCD28_MASK unused
LCD_WF8B_BPBLCD28_SHIFT 00000001

Symbol: LCD_WF8B_BPBLCD28_SHIFT
   Definitions
      At line 1547 in file MKL46Z4.s
   Uses
      None
Comment: LCD_WF8B_BPBLCD28_SHIFT unused
LCD_WF8B_BPBLCD29_MASK 00000002

Symbol: LCD_WF8B_BPBLCD29_MASK
   Definitions
      At line 1584 in file MKL46Z4.s
   Uses
      None
Comment: LCD_WF8B_BPBLCD29_MASK unused
LCD_WF8B_BPBLCD29_SHIFT 00000001

Symbol: LCD_WF8B_BPBLCD29_SHIFT
   Definitions
      At line 1585 in file MKL46Z4.s
   Uses
      None
Comment: LCD_WF8B_BPBLCD29_SHIFT unused
LCD_WF8B_BPBLCD2_MASK 00000002

Symbol: LCD_WF8B_BPBLCD2_MASK
   Definitions
      At line 1570 in file MKL46Z4.s
   Uses
      None
Comment: LCD_WF8B_BPBLCD2_MASK unused
LCD_WF8B_BPBLCD2_SHIFT 00000001

Symbol: LCD_WF8B_BPBLCD2_SHIFT
   Definitions
      At line 1571 in file MKL46Z4.s
   Uses
      None
Comment: LCD_WF8B_BPBLCD2_SHIFT unused
LCD_WF8B_BPBLCD30_MASK 00000002

Symbol: LCD_WF8B_BPBLCD30_MASK
   Definitions
      At line 1540 in file MKL46Z4.s
   Uses
      None



ARM Macro Assembler    Page 113 Alphabetic symbol ordering
Absolute symbols

Comment: LCD_WF8B_BPBLCD30_MASK unused
LCD_WF8B_BPBLCD30_SHIFT 00000001

Symbol: LCD_WF8B_BPBLCD30_SHIFT
   Definitions
      At line 1541 in file MKL46Z4.s
   Uses
      None
Comment: LCD_WF8B_BPBLCD30_SHIFT unused
LCD_WF8B_BPBLCD31_MASK 00000002

Symbol: LCD_WF8B_BPBLCD31_MASK
   Definitions
      At line 1624 in file MKL46Z4.s
   Uses
      None
Comment: LCD_WF8B_BPBLCD31_MASK unused
LCD_WF8B_BPBLCD31_SHIFT 00000001

Symbol: LCD_WF8B_BPBLCD31_SHIFT
   Definitions
      At line 1625 in file MKL46Z4.s
   Uses
      None
Comment: LCD_WF8B_BPBLCD31_SHIFT unused
LCD_WF8B_BPBLCD32_MASK 00000002

Symbol: LCD_WF8B_BPBLCD32_MASK
   Definitions
      At line 1538 in file MKL46Z4.s
   Uses
      None
Comment: LCD_WF8B_BPBLCD32_MASK unused
LCD_WF8B_BPBLCD32_SHIFT 00000001

Symbol: LCD_WF8B_BPBLCD32_SHIFT
   Definitions
      At line 1539 in file MKL46Z4.s
   Uses
      None
Comment: LCD_WF8B_BPBLCD32_SHIFT unused
LCD_WF8B_BPBLCD33_MASK 00000002

Symbol: LCD_WF8B_BPBLCD33_MASK
   Definitions
      At line 1568 in file MKL46Z4.s
   Uses
      None
Comment: LCD_WF8B_BPBLCD33_MASK unused
LCD_WF8B_BPBLCD33_SHIFT 00000001

Symbol: LCD_WF8B_BPBLCD33_SHIFT
   Definitions
      At line 1569 in file MKL46Z4.s
   Uses
      None
Comment: LCD_WF8B_BPBLCD33_SHIFT unused
LCD_WF8B_BPBLCD34_MASK 00000002




ARM Macro Assembler    Page 114 Alphabetic symbol ordering
Absolute symbols

Symbol: LCD_WF8B_BPBLCD34_MASK
   Definitions
      At line 1614 in file MKL46Z4.s
   Uses
      None
Comment: LCD_WF8B_BPBLCD34_MASK unused
LCD_WF8B_BPBLCD34_SHIFT 00000001

Symbol: LCD_WF8B_BPBLCD34_SHIFT
   Definitions
      At line 1615 in file MKL46Z4.s
   Uses
      None
Comment: LCD_WF8B_BPBLCD34_SHIFT unused
LCD_WF8B_BPBLCD35_MASK 00000002

Symbol: LCD_WF8B_BPBLCD35_MASK
   Definitions
      At line 1642 in file MKL46Z4.s
   Uses
      None
Comment: LCD_WF8B_BPBLCD35_MASK unused
LCD_WF8B_BPBLCD35_SHIFT 00000001

Symbol: LCD_WF8B_BPBLCD35_SHIFT
   Definitions
      At line 1643 in file MKL46Z4.s
   Uses
      None
Comment: LCD_WF8B_BPBLCD35_SHIFT unused
LCD_WF8B_BPBLCD36_MASK 00000002

Symbol: LCD_WF8B_BPBLCD36_MASK
   Definitions
      At line 1556 in file MKL46Z4.s
   Uses
      None
Comment: LCD_WF8B_BPBLCD36_MASK unused
LCD_WF8B_BPBLCD36_SHIFT 00000001

Symbol: LCD_WF8B_BPBLCD36_SHIFT
   Definitions
      At line 1557 in file MKL46Z4.s
   Uses
      None
Comment: LCD_WF8B_BPBLCD36_SHIFT unused
LCD_WF8B_BPBLCD37_MASK 00000002

Symbol: LCD_WF8B_BPBLCD37_MASK
   Definitions
      At line 1622 in file MKL46Z4.s
   Uses
      None
Comment: LCD_WF8B_BPBLCD37_MASK unused
LCD_WF8B_BPBLCD37_SHIFT 00000001

Symbol: LCD_WF8B_BPBLCD37_SHIFT
   Definitions
      At line 1623 in file MKL46Z4.s



ARM Macro Assembler    Page 115 Alphabetic symbol ordering
Absolute symbols

   Uses
      None
Comment: LCD_WF8B_BPBLCD37_SHIFT unused
LCD_WF8B_BPBLCD38_MASK 00000002

Symbol: LCD_WF8B_BPBLCD38_MASK
   Definitions
      At line 1592 in file MKL46Z4.s
   Uses
      None
Comment: LCD_WF8B_BPBLCD38_MASK unused
LCD_WF8B_BPBLCD38_SHIFT 00000001

Symbol: LCD_WF8B_BPBLCD38_SHIFT
   Definitions
      At line 1593 in file MKL46Z4.s
   Uses
      None
Comment: LCD_WF8B_BPBLCD38_SHIFT unused
LCD_WF8B_BPBLCD39_MASK 00000002

Symbol: LCD_WF8B_BPBLCD39_MASK
   Definitions
      At line 1616 in file MKL46Z4.s
   Uses
      None
Comment: LCD_WF8B_BPBLCD39_MASK unused
LCD_WF8B_BPBLCD39_SHIFT 00000001

Symbol: LCD_WF8B_BPBLCD39_SHIFT
   Definitions
      At line 1617 in file MKL46Z4.s
   Uses
      None
Comment: LCD_WF8B_BPBLCD39_SHIFT unused
LCD_WF8B_BPBLCD3_MASK 00000002

Symbol: LCD_WF8B_BPBLCD3_MASK
   Definitions
      At line 1658 in file MKL46Z4.s
   Uses
      None
Comment: LCD_WF8B_BPBLCD3_MASK unused
LCD_WF8B_BPBLCD3_SHIFT 00000001

Symbol: LCD_WF8B_BPBLCD3_SHIFT
   Definitions
      At line 1659 in file MKL46Z4.s
   Uses
      None
Comment: LCD_WF8B_BPBLCD3_SHIFT unused
LCD_WF8B_BPBLCD40_MASK 00000002

Symbol: LCD_WF8B_BPBLCD40_MASK
   Definitions
      At line 1604 in file MKL46Z4.s
   Uses
      None
Comment: LCD_WF8B_BPBLCD40_MASK unused



ARM Macro Assembler    Page 116 Alphabetic symbol ordering
Absolute symbols

LCD_WF8B_BPBLCD40_SHIFT 00000001

Symbol: LCD_WF8B_BPBLCD40_SHIFT
   Definitions
      At line 1605 in file MKL46Z4.s
   Uses
      None
Comment: LCD_WF8B_BPBLCD40_SHIFT unused
LCD_WF8B_BPBLCD41_MASK 00000002

Symbol: LCD_WF8B_BPBLCD41_MASK
   Definitions
      At line 1646 in file MKL46Z4.s
   Uses
      None
Comment: LCD_WF8B_BPBLCD41_MASK unused
LCD_WF8B_BPBLCD41_SHIFT 00000001

Symbol: LCD_WF8B_BPBLCD41_SHIFT
   Definitions
      At line 1647 in file MKL46Z4.s
   Uses
      None
Comment: LCD_WF8B_BPBLCD41_SHIFT unused
LCD_WF8B_BPBLCD42_MASK 00000002

Symbol: LCD_WF8B_BPBLCD42_MASK
   Definitions
      At line 1654 in file MKL46Z4.s
   Uses
      None
Comment: LCD_WF8B_BPBLCD42_MASK unused
LCD_WF8B_BPBLCD42_SHIFT 00000001

Symbol: LCD_WF8B_BPBLCD42_SHIFT
   Definitions
      At line 1655 in file MKL46Z4.s
   Uses
      None
Comment: LCD_WF8B_BPBLCD42_SHIFT unused
LCD_WF8B_BPBLCD43_MASK 00000002

Symbol: LCD_WF8B_BPBLCD43_MASK
   Definitions
      At line 1594 in file MKL46Z4.s
   Uses
      None
Comment: LCD_WF8B_BPBLCD43_MASK unused
LCD_WF8B_BPBLCD43_SHIFT 00000001

Symbol: LCD_WF8B_BPBLCD43_SHIFT
   Definitions
      At line 1595 in file MKL46Z4.s
   Uses
      None
Comment: LCD_WF8B_BPBLCD43_SHIFT unused
LCD_WF8B_BPBLCD44_MASK 00000002

Symbol: LCD_WF8B_BPBLCD44_MASK



ARM Macro Assembler    Page 117 Alphabetic symbol ordering
Absolute symbols

   Definitions
      At line 1558 in file MKL46Z4.s
   Uses
      None
Comment: LCD_WF8B_BPBLCD44_MASK unused
LCD_WF8B_BPBLCD44_SHIFT 00000001

Symbol: LCD_WF8B_BPBLCD44_SHIFT
   Definitions
      At line 1559 in file MKL46Z4.s
   Uses
      None
Comment: LCD_WF8B_BPBLCD44_SHIFT unused
LCD_WF8B_BPBLCD45_MASK 00000002

Symbol: LCD_WF8B_BPBLCD45_MASK
   Definitions
      At line 1630 in file MKL46Z4.s
   Uses
      None
Comment: LCD_WF8B_BPBLCD45_MASK unused
LCD_WF8B_BPBLCD45_SHIFT 00000001

Symbol: LCD_WF8B_BPBLCD45_SHIFT
   Definitions
      At line 1631 in file MKL46Z4.s
   Uses
      None
Comment: LCD_WF8B_BPBLCD45_SHIFT unused
LCD_WF8B_BPBLCD46_MASK 00000002

Symbol: LCD_WF8B_BPBLCD46_MASK
   Definitions
      At line 1650 in file MKL46Z4.s
   Uses
      None
Comment: LCD_WF8B_BPBLCD46_MASK unused
LCD_WF8B_BPBLCD46_SHIFT 00000001

Symbol: LCD_WF8B_BPBLCD46_SHIFT
   Definitions
      At line 1651 in file MKL46Z4.s
   Uses
      None
Comment: LCD_WF8B_BPBLCD46_SHIFT unused
LCD_WF8B_BPBLCD47_MASK 00000002

Symbol: LCD_WF8B_BPBLCD47_MASK
   Definitions
      At line 1566 in file MKL46Z4.s
   Uses
      None
Comment: LCD_WF8B_BPBLCD47_MASK unused
LCD_WF8B_BPBLCD47_SHIFT 00000001

Symbol: LCD_WF8B_BPBLCD47_SHIFT
   Definitions
      At line 1567 in file MKL46Z4.s
   Uses



ARM Macro Assembler    Page 118 Alphabetic symbol ordering
Absolute symbols

      None
Comment: LCD_WF8B_BPBLCD47_SHIFT unused
LCD_WF8B_BPBLCD48_MASK 00000002

Symbol: LCD_WF8B_BPBLCD48_MASK
   Definitions
      At line 1550 in file MKL46Z4.s
   Uses
      None
Comment: LCD_WF8B_BPBLCD48_MASK unused
LCD_WF8B_BPBLCD48_SHIFT 00000001

Symbol: LCD_WF8B_BPBLCD48_SHIFT
   Definitions
      At line 1551 in file MKL46Z4.s
   Uses
      None
Comment: LCD_WF8B_BPBLCD48_SHIFT unused
LCD_WF8B_BPBLCD49_MASK 00000002

Symbol: LCD_WF8B_BPBLCD49_MASK
   Definitions
      At line 1572 in file MKL46Z4.s
   Uses
      None
Comment: LCD_WF8B_BPBLCD49_MASK unused
LCD_WF8B_BPBLCD49_SHIFT 00000001

Symbol: LCD_WF8B_BPBLCD49_SHIFT
   Definitions
      At line 1573 in file MKL46Z4.s
   Uses
      None
Comment: LCD_WF8B_BPBLCD49_SHIFT unused
LCD_WF8B_BPBLCD4_MASK 00000002

Symbol: LCD_WF8B_BPBLCD4_MASK
   Definitions
      At line 1640 in file MKL46Z4.s
   Uses
      None
Comment: LCD_WF8B_BPBLCD4_MASK unused
LCD_WF8B_BPBLCD4_SHIFT 00000001

Symbol: LCD_WF8B_BPBLCD4_SHIFT
   Definitions
      At line 1641 in file MKL46Z4.s
   Uses
      None
Comment: LCD_WF8B_BPBLCD4_SHIFT unused
LCD_WF8B_BPBLCD50_MASK 00000002

Symbol: LCD_WF8B_BPBLCD50_MASK
   Definitions
      At line 1602 in file MKL46Z4.s
   Uses
      None
Comment: LCD_WF8B_BPBLCD50_MASK unused
LCD_WF8B_BPBLCD50_SHIFT 00000001



ARM Macro Assembler    Page 119 Alphabetic symbol ordering
Absolute symbols


Symbol: LCD_WF8B_BPBLCD50_SHIFT
   Definitions
      At line 1603 in file MKL46Z4.s
   Uses
      None
Comment: LCD_WF8B_BPBLCD50_SHIFT unused
LCD_WF8B_BPBLCD51_MASK 00000002

Symbol: LCD_WF8B_BPBLCD51_MASK
   Definitions
      At line 1636 in file MKL46Z4.s
   Uses
      None
Comment: LCD_WF8B_BPBLCD51_MASK unused
LCD_WF8B_BPBLCD51_SHIFT 00000001

Symbol: LCD_WF8B_BPBLCD51_SHIFT
   Definitions
      At line 1637 in file MKL46Z4.s
   Uses
      None
Comment: LCD_WF8B_BPBLCD51_SHIFT unused
LCD_WF8B_BPBLCD52_MASK 00000002

Symbol: LCD_WF8B_BPBLCD52_MASK
   Definitions
      At line 1638 in file MKL46Z4.s
   Uses
      None
Comment: LCD_WF8B_BPBLCD52_MASK unused
LCD_WF8B_BPBLCD52_SHIFT 00000001

Symbol: LCD_WF8B_BPBLCD52_SHIFT
   Definitions
      At line 1639 in file MKL46Z4.s
   Uses
      None
Comment: LCD_WF8B_BPBLCD52_SHIFT unused
LCD_WF8B_BPBLCD53_MASK 00000002

Symbol: LCD_WF8B_BPBLCD53_MASK
   Definitions
      At line 1562 in file MKL46Z4.s
   Uses
      None
Comment: LCD_WF8B_BPBLCD53_MASK unused
LCD_WF8B_BPBLCD53_SHIFT 00000001

Symbol: LCD_WF8B_BPBLCD53_SHIFT
   Definitions
      At line 1563 in file MKL46Z4.s
   Uses
      None
Comment: LCD_WF8B_BPBLCD53_SHIFT unused
LCD_WF8B_BPBLCD54_MASK 00000002

Symbol: LCD_WF8B_BPBLCD54_MASK
   Definitions



ARM Macro Assembler    Page 120 Alphabetic symbol ordering
Absolute symbols

      At line 1590 in file MKL46Z4.s
   Uses
      None
Comment: LCD_WF8B_BPBLCD54_MASK unused
LCD_WF8B_BPBLCD54_SHIFT 00000001

Symbol: LCD_WF8B_BPBLCD54_SHIFT
   Definitions
      At line 1591 in file MKL46Z4.s
   Uses
      None
Comment: LCD_WF8B_BPBLCD54_SHIFT unused
LCD_WF8B_BPBLCD55_MASK 00000002

Symbol: LCD_WF8B_BPBLCD55_MASK
   Definitions
      At line 1576 in file MKL46Z4.s
   Uses
      None
Comment: LCD_WF8B_BPBLCD55_MASK unused
LCD_WF8B_BPBLCD55_SHIFT 00000001

Symbol: LCD_WF8B_BPBLCD55_SHIFT
   Definitions
      At line 1577 in file MKL46Z4.s
   Uses
      None
Comment: LCD_WF8B_BPBLCD55_SHIFT unused
LCD_WF8B_BPBLCD56_MASK 00000002

Symbol: LCD_WF8B_BPBLCD56_MASK
   Definitions
      At line 1578 in file MKL46Z4.s
   Uses
      None
Comment: LCD_WF8B_BPBLCD56_MASK unused
LCD_WF8B_BPBLCD56_SHIFT 00000001

Symbol: LCD_WF8B_BPBLCD56_SHIFT
   Definitions
      At line 1579 in file MKL46Z4.s
   Uses
      None
Comment: LCD_WF8B_BPBLCD56_SHIFT unused
LCD_WF8B_BPBLCD57_MASK 00000002

Symbol: LCD_WF8B_BPBLCD57_MASK
   Definitions
      At line 1652 in file MKL46Z4.s
   Uses
      None
Comment: LCD_WF8B_BPBLCD57_MASK unused
LCD_WF8B_BPBLCD57_SHIFT 00000001

Symbol: LCD_WF8B_BPBLCD57_SHIFT
   Definitions
      At line 1653 in file MKL46Z4.s
   Uses
      None



ARM Macro Assembler    Page 121 Alphabetic symbol ordering
Absolute symbols

Comment: LCD_WF8B_BPBLCD57_SHIFT unused
LCD_WF8B_BPBLCD58_MASK 00000002

Symbol: LCD_WF8B_BPBLCD58_MASK
   Definitions
      At line 1626 in file MKL46Z4.s
   Uses
      None
Comment: LCD_WF8B_BPBLCD58_MASK unused
LCD_WF8B_BPBLCD58_SHIFT 00000001

Symbol: LCD_WF8B_BPBLCD58_SHIFT
   Definitions
      At line 1627 in file MKL46Z4.s
   Uses
      None
Comment: LCD_WF8B_BPBLCD58_SHIFT unused
LCD_WF8B_BPBLCD59_MASK 00000002

Symbol: LCD_WF8B_BPBLCD59_MASK
   Definitions
      At line 1618 in file MKL46Z4.s
   Uses
      None
Comment: LCD_WF8B_BPBLCD59_MASK unused
LCD_WF8B_BPBLCD59_SHIFT 00000001

Symbol: LCD_WF8B_BPBLCD59_SHIFT
   Definitions
      At line 1619 in file MKL46Z4.s
   Uses
      None
Comment: LCD_WF8B_BPBLCD59_SHIFT unused
LCD_WF8B_BPBLCD5_MASK 00000002

Symbol: LCD_WF8B_BPBLCD5_MASK
   Definitions
      At line 1656 in file MKL46Z4.s
   Uses
      None
Comment: LCD_WF8B_BPBLCD5_MASK unused
LCD_WF8B_BPBLCD5_SHIFT 00000001

Symbol: LCD_WF8B_BPBLCD5_SHIFT
   Definitions
      At line 1657 in file MKL46Z4.s
   Uses
      None
Comment: LCD_WF8B_BPBLCD5_SHIFT unused
LCD_WF8B_BPBLCD60_MASK 00000002

Symbol: LCD_WF8B_BPBLCD60_MASK
   Definitions
      At line 1542 in file MKL46Z4.s
   Uses
      None
Comment: LCD_WF8B_BPBLCD60_MASK unused
LCD_WF8B_BPBLCD60_SHIFT 00000001




ARM Macro Assembler    Page 122 Alphabetic symbol ordering
Absolute symbols

Symbol: LCD_WF8B_BPBLCD60_SHIFT
   Definitions
      At line 1543 in file MKL46Z4.s
   Uses
      None
Comment: LCD_WF8B_BPBLCD60_SHIFT unused
LCD_WF8B_BPBLCD61_MASK 00000002

Symbol: LCD_WF8B_BPBLCD61_MASK
   Definitions
      At line 1620 in file MKL46Z4.s
   Uses
      None
Comment: LCD_WF8B_BPBLCD61_MASK unused
LCD_WF8B_BPBLCD61_SHIFT 00000001

Symbol: LCD_WF8B_BPBLCD61_SHIFT
   Definitions
      At line 1621 in file MKL46Z4.s
   Uses
      None
Comment: LCD_WF8B_BPBLCD61_SHIFT unused
LCD_WF8B_BPBLCD62_MASK 00000002

Symbol: LCD_WF8B_BPBLCD62_MASK
   Definitions
      At line 1560 in file MKL46Z4.s
   Uses
      None
Comment: LCD_WF8B_BPBLCD62_MASK unused
LCD_WF8B_BPBLCD62_SHIFT 00000001

Symbol: LCD_WF8B_BPBLCD62_SHIFT
   Definitions
      At line 1561 in file MKL46Z4.s
   Uses
      None
Comment: LCD_WF8B_BPBLCD62_SHIFT unused
LCD_WF8B_BPBLCD63_MASK 00000002

Symbol: LCD_WF8B_BPBLCD63_MASK
   Definitions
      At line 1606 in file MKL46Z4.s
   Uses
      None
Comment: LCD_WF8B_BPBLCD63_MASK unused
LCD_WF8B_BPBLCD63_SHIFT 00000001

Symbol: LCD_WF8B_BPBLCD63_SHIFT
   Definitions
      At line 1607 in file MKL46Z4.s
   Uses
      None
Comment: LCD_WF8B_BPBLCD63_SHIFT unused
LCD_WF8B_BPBLCD6_MASK 00000002

Symbol: LCD_WF8B_BPBLCD6_MASK
   Definitions
      At line 1582 in file MKL46Z4.s



ARM Macro Assembler    Page 123 Alphabetic symbol ordering
Absolute symbols

   Uses
      None
Comment: LCD_WF8B_BPBLCD6_MASK unused
LCD_WF8B_BPBLCD6_SHIFT 00000001

Symbol: LCD_WF8B_BPBLCD6_SHIFT
   Definitions
      At line 1583 in file MKL46Z4.s
   Uses
      None
Comment: LCD_WF8B_BPBLCD6_SHIFT unused
LCD_WF8B_BPBLCD7_MASK 00000002

Symbol: LCD_WF8B_BPBLCD7_MASK
   Definitions
      At line 1600 in file MKL46Z4.s
   Uses
      None
Comment: LCD_WF8B_BPBLCD7_MASK unused
LCD_WF8B_BPBLCD7_SHIFT 00000001

Symbol: LCD_WF8B_BPBLCD7_SHIFT
   Definitions
      At line 1601 in file MKL46Z4.s
   Uses
      None
Comment: LCD_WF8B_BPBLCD7_SHIFT unused
LCD_WF8B_BPBLCD8_MASK 00000002

Symbol: LCD_WF8B_BPBLCD8_MASK
   Definitions
      At line 1588 in file MKL46Z4.s
   Uses
      None
Comment: LCD_WF8B_BPBLCD8_MASK unused
LCD_WF8B_BPBLCD8_SHIFT 00000001

Symbol: LCD_WF8B_BPBLCD8_SHIFT
   Definitions
      At line 1589 in file MKL46Z4.s
   Uses
      None
Comment: LCD_WF8B_BPBLCD8_SHIFT unused
LCD_WF8B_BPBLCD9_MASK 00000002

Symbol: LCD_WF8B_BPBLCD9_MASK
   Definitions
      At line 1598 in file MKL46Z4.s
   Uses
      None
Comment: LCD_WF8B_BPBLCD9_MASK unused
LCD_WF8B_BPBLCD9_SHIFT 00000001

Symbol: LCD_WF8B_BPBLCD9_SHIFT
   Definitions
      At line 1599 in file MKL46Z4.s
   Uses
      None
Comment: LCD_WF8B_BPBLCD9_SHIFT unused



ARM Macro Assembler    Page 124 Alphabetic symbol ordering
Absolute symbols

LCD_WF8B_BPCLCD0_MASK 00000004

Symbol: LCD_WF8B_BPCLCD0_MASK
   Definitions
      At line 1736 in file MKL46Z4.s
   Uses
      None
Comment: LCD_WF8B_BPCLCD0_MASK unused
LCD_WF8B_BPCLCD0_SHIFT 00000002

Symbol: LCD_WF8B_BPCLCD0_SHIFT
   Definitions
      At line 1737 in file MKL46Z4.s
   Uses
      None
Comment: LCD_WF8B_BPCLCD0_SHIFT unused
LCD_WF8B_BPCLCD10_MASK 00000004

Symbol: LCD_WF8B_BPCLCD10_MASK
   Definitions
      At line 1664 in file MKL46Z4.s
   Uses
      None
Comment: LCD_WF8B_BPCLCD10_MASK unused
LCD_WF8B_BPCLCD10_SHIFT 00000002

Symbol: LCD_WF8B_BPCLCD10_SHIFT
   Definitions
      At line 1665 in file MKL46Z4.s
   Uses
      None
Comment: LCD_WF8B_BPCLCD10_SHIFT unused
LCD_WF8B_BPCLCD11_MASK 00000004

Symbol: LCD_WF8B_BPCLCD11_MASK
   Definitions
      At line 1774 in file MKL46Z4.s
   Uses
      None
Comment: LCD_WF8B_BPCLCD11_MASK unused
LCD_WF8B_BPCLCD11_SHIFT 00000002

Symbol: LCD_WF8B_BPCLCD11_SHIFT
   Definitions
      At line 1775 in file MKL46Z4.s
   Uses
      None
Comment: LCD_WF8B_BPCLCD11_SHIFT unused
LCD_WF8B_BPCLCD12_MASK 00000004

Symbol: LCD_WF8B_BPCLCD12_MASK
   Definitions
      At line 1772 in file MKL46Z4.s
   Uses
      None
Comment: LCD_WF8B_BPCLCD12_MASK unused
LCD_WF8B_BPCLCD12_SHIFT 00000002

Symbol: LCD_WF8B_BPCLCD12_SHIFT



ARM Macro Assembler    Page 125 Alphabetic symbol ordering
Absolute symbols

   Definitions
      At line 1773 in file MKL46Z4.s
   Uses
      None
Comment: LCD_WF8B_BPCLCD12_SHIFT unused
LCD_WF8B_BPCLCD13_MASK 00000004

Symbol: LCD_WF8B_BPCLCD13_MASK
   Definitions
      At line 1756 in file MKL46Z4.s
   Uses
      None
Comment: LCD_WF8B_BPCLCD13_MASK unused
LCD_WF8B_BPCLCD13_SHIFT 00000002

Symbol: LCD_WF8B_BPCLCD13_SHIFT
   Definitions
      At line 1757 in file MKL46Z4.s
   Uses
      None
Comment: LCD_WF8B_BPCLCD13_SHIFT unused
LCD_WF8B_BPCLCD14_MASK 00000004

Symbol: LCD_WF8B_BPCLCD14_MASK
   Definitions
      At line 1726 in file MKL46Z4.s
   Uses
      None
Comment: LCD_WF8B_BPCLCD14_MASK unused
LCD_WF8B_BPCLCD14_SHIFT 00000002

Symbol: LCD_WF8B_BPCLCD14_SHIFT
   Definitions
      At line 1727 in file MKL46Z4.s
   Uses
      None
Comment: LCD_WF8B_BPCLCD14_SHIFT unused
LCD_WF8B_BPCLCD15_MASK 00000004

Symbol: LCD_WF8B_BPCLCD15_MASK
   Definitions
      At line 1722 in file MKL46Z4.s
   Uses
      None
Comment: LCD_WF8B_BPCLCD15_MASK unused
LCD_WF8B_BPCLCD15_SHIFT 00000002

Symbol: LCD_WF8B_BPCLCD15_SHIFT
   Definitions
      At line 1723 in file MKL46Z4.s
   Uses
      None
Comment: LCD_WF8B_BPCLCD15_SHIFT unused
LCD_WF8B_BPCLCD16_MASK 00000004

Symbol: LCD_WF8B_BPCLCD16_MASK
   Definitions
      At line 1724 in file MKL46Z4.s
   Uses



ARM Macro Assembler    Page 126 Alphabetic symbol ordering
Absolute symbols

      None
Comment: LCD_WF8B_BPCLCD16_MASK unused
LCD_WF8B_BPCLCD16_SHIFT 00000002

Symbol: LCD_WF8B_BPCLCD16_SHIFT
   Definitions
      At line 1725 in file MKL46Z4.s
   Uses
      None
Comment: LCD_WF8B_BPCLCD16_SHIFT unused
LCD_WF8B_BPCLCD17_MASK 00000004

Symbol: LCD_WF8B_BPCLCD17_MASK
   Definitions
      At line 1714 in file MKL46Z4.s
   Uses
      None
Comment: LCD_WF8B_BPCLCD17_MASK unused
LCD_WF8B_BPCLCD17_SHIFT 00000002

Symbol: LCD_WF8B_BPCLCD17_SHIFT
   Definitions
      At line 1715 in file MKL46Z4.s
   Uses
      None
Comment: LCD_WF8B_BPCLCD17_SHIFT unused
LCD_WF8B_BPCLCD18_MASK 00000004

Symbol: LCD_WF8B_BPCLCD18_MASK
   Definitions
      At line 1706 in file MKL46Z4.s
   Uses
      None
Comment: LCD_WF8B_BPCLCD18_MASK unused
LCD_WF8B_BPCLCD18_SHIFT 00000002

Symbol: LCD_WF8B_BPCLCD18_SHIFT
   Definitions
      At line 1707 in file MKL46Z4.s
   Uses
      None
Comment: LCD_WF8B_BPCLCD18_SHIFT unused
LCD_WF8B_BPCLCD19_MASK 00000004

Symbol: LCD_WF8B_BPCLCD19_MASK
   Definitions
      At line 1696 in file MKL46Z4.s
   Uses
      None
Comment: LCD_WF8B_BPCLCD19_MASK unused
LCD_WF8B_BPCLCD19_SHIFT 00000002

Symbol: LCD_WF8B_BPCLCD19_SHIFT
   Definitions
      At line 1697 in file MKL46Z4.s
   Uses
      None
Comment: LCD_WF8B_BPCLCD19_SHIFT unused
LCD_WF8B_BPCLCD1_MASK 00000004



ARM Macro Assembler    Page 127 Alphabetic symbol ordering
Absolute symbols


Symbol: LCD_WF8B_BPCLCD1_MASK
   Definitions
      At line 1690 in file MKL46Z4.s
   Uses
      None
Comment: LCD_WF8B_BPCLCD1_MASK unused
LCD_WF8B_BPCLCD1_SHIFT 00000002

Symbol: LCD_WF8B_BPCLCD1_SHIFT
   Definitions
      At line 1691 in file MKL46Z4.s
   Uses
      None
Comment: LCD_WF8B_BPCLCD1_SHIFT unused
LCD_WF8B_BPCLCD20_MASK 00000004

Symbol: LCD_WF8B_BPCLCD20_MASK
   Definitions
      At line 1692 in file MKL46Z4.s
   Uses
      None
Comment: LCD_WF8B_BPCLCD20_MASK unused
LCD_WF8B_BPCLCD20_SHIFT 00000002

Symbol: LCD_WF8B_BPCLCD20_SHIFT
   Definitions
      At line 1693 in file MKL46Z4.s
   Uses
      None
Comment: LCD_WF8B_BPCLCD20_SHIFT unused
LCD_WF8B_BPCLCD21_MASK 00000004

Symbol: LCD_WF8B_BPCLCD21_MASK
   Definitions
      At line 1684 in file MKL46Z4.s
   Uses
      None
Comment: LCD_WF8B_BPCLCD21_MASK unused
LCD_WF8B_BPCLCD21_SHIFT 00000002

Symbol: LCD_WF8B_BPCLCD21_SHIFT
   Definitions
      At line 1685 in file MKL46Z4.s
   Uses
      None
Comment: LCD_WF8B_BPCLCD21_SHIFT unused
LCD_WF8B_BPCLCD22_MASK 00000004

Symbol: LCD_WF8B_BPCLCD22_MASK
   Definitions
      At line 1680 in file MKL46Z4.s
   Uses
      None
Comment: LCD_WF8B_BPCLCD22_MASK unused
LCD_WF8B_BPCLCD22_SHIFT 00000002

Symbol: LCD_WF8B_BPCLCD22_SHIFT
   Definitions



ARM Macro Assembler    Page 128 Alphabetic symbol ordering
Absolute symbols

      At line 1681 in file MKL46Z4.s
   Uses
      None
Comment: LCD_WF8B_BPCLCD22_SHIFT unused
LCD_WF8B_BPCLCD23_MASK 00000004

Symbol: LCD_WF8B_BPCLCD23_MASK
   Definitions
      At line 1670 in file MKL46Z4.s
   Uses
      None
Comment: LCD_WF8B_BPCLCD23_MASK unused
LCD_WF8B_BPCLCD23_SHIFT 00000002

Symbol: LCD_WF8B_BPCLCD23_SHIFT
   Definitions
      At line 1671 in file MKL46Z4.s
   Uses
      None
Comment: LCD_WF8B_BPCLCD23_SHIFT unused
LCD_WF8B_BPCLCD24_MASK 00000004

Symbol: LCD_WF8B_BPCLCD24_MASK
   Definitions
      At line 1674 in file MKL46Z4.s
   Uses
      None
Comment: LCD_WF8B_BPCLCD24_MASK unused
LCD_WF8B_BPCLCD24_SHIFT 00000002

Symbol: LCD_WF8B_BPCLCD24_SHIFT
   Definitions
      At line 1675 in file MKL46Z4.s
   Uses
      None
Comment: LCD_WF8B_BPCLCD24_SHIFT unused
LCD_WF8B_BPCLCD25_MASK 00000004

Symbol: LCD_WF8B_BPCLCD25_MASK
   Definitions
      At line 1688 in file MKL46Z4.s
   Uses
      None
Comment: LCD_WF8B_BPCLCD25_MASK unused
LCD_WF8B_BPCLCD25_SHIFT 00000002

Symbol: LCD_WF8B_BPCLCD25_SHIFT
   Definitions
      At line 1689 in file MKL46Z4.s
   Uses
      None
Comment: LCD_WF8B_BPCLCD25_SHIFT unused
LCD_WF8B_BPCLCD26_MASK 00000004

Symbol: LCD_WF8B_BPCLCD26_MASK
   Definitions
      At line 1698 in file MKL46Z4.s
   Uses
      None



ARM Macro Assembler    Page 129 Alphabetic symbol ordering
Absolute symbols

Comment: LCD_WF8B_BPCLCD26_MASK unused
LCD_WF8B_BPCLCD26_SHIFT 00000002

Symbol: LCD_WF8B_BPCLCD26_SHIFT
   Definitions
      At line 1699 in file MKL46Z4.s
   Uses
      None
Comment: LCD_WF8B_BPCLCD26_SHIFT unused
LCD_WF8B_BPCLCD27_MASK 00000004

Symbol: LCD_WF8B_BPCLCD27_MASK
   Definitions
      At line 1712 in file MKL46Z4.s
   Uses
      None
Comment: LCD_WF8B_BPCLCD27_MASK unused
LCD_WF8B_BPCLCD27_SHIFT 00000002

Symbol: LCD_WF8B_BPCLCD27_SHIFT
   Definitions
      At line 1713 in file MKL46Z4.s
   Uses
      None
Comment: LCD_WF8B_BPCLCD27_SHIFT unused
LCD_WF8B_BPCLCD28_MASK 00000004

Symbol: LCD_WF8B_BPCLCD28_MASK
   Definitions
      At line 1730 in file MKL46Z4.s
   Uses
      None
Comment: LCD_WF8B_BPCLCD28_MASK unused
LCD_WF8B_BPCLCD28_SHIFT 00000002

Symbol: LCD_WF8B_BPCLCD28_SHIFT
   Definitions
      At line 1731 in file MKL46Z4.s
   Uses
      None
Comment: LCD_WF8B_BPCLCD28_SHIFT unused
LCD_WF8B_BPCLCD29_MASK 00000004

Symbol: LCD_WF8B_BPCLCD29_MASK
   Definitions
      At line 1746 in file MKL46Z4.s
   Uses
      None
Comment: LCD_WF8B_BPCLCD29_MASK unused
LCD_WF8B_BPCLCD29_SHIFT 00000002

Symbol: LCD_WF8B_BPCLCD29_SHIFT
   Definitions
      At line 1747 in file MKL46Z4.s
   Uses
      None
Comment: LCD_WF8B_BPCLCD29_SHIFT unused
LCD_WF8B_BPCLCD2_MASK 00000004




ARM Macro Assembler    Page 130 Alphabetic symbol ordering
Absolute symbols

Symbol: LCD_WF8B_BPCLCD2_MASK
   Definitions
      At line 1668 in file MKL46Z4.s
   Uses
      None
Comment: LCD_WF8B_BPCLCD2_MASK unused
LCD_WF8B_BPCLCD2_SHIFT 00000002

Symbol: LCD_WF8B_BPCLCD2_SHIFT
   Definitions
      At line 1669 in file MKL46Z4.s
   Uses
      None
Comment: LCD_WF8B_BPCLCD2_SHIFT unused
LCD_WF8B_BPCLCD30_MASK 00000004

Symbol: LCD_WF8B_BPCLCD30_MASK
   Definitions
      At line 1760 in file MKL46Z4.s
   Uses
      None
Comment: LCD_WF8B_BPCLCD30_MASK unused
LCD_WF8B_BPCLCD30_SHIFT 00000002

Symbol: LCD_WF8B_BPCLCD30_SHIFT
   Definitions
      At line 1761 in file MKL46Z4.s
   Uses
      None
Comment: LCD_WF8B_BPCLCD30_SHIFT unused
LCD_WF8B_BPCLCD31_MASK 00000004

Symbol: LCD_WF8B_BPCLCD31_MASK
   Definitions
      At line 1780 in file MKL46Z4.s
   Uses
      None
Comment: LCD_WF8B_BPCLCD31_MASK unused
LCD_WF8B_BPCLCD31_SHIFT 00000002

Symbol: LCD_WF8B_BPCLCD31_SHIFT
   Definitions
      At line 1781 in file MKL46Z4.s
   Uses
      None
Comment: LCD_WF8B_BPCLCD31_SHIFT unused
LCD_WF8B_BPCLCD32_MASK 00000004

Symbol: LCD_WF8B_BPCLCD32_MASK
   Definitions
      At line 1728 in file MKL46Z4.s
   Uses
      None
Comment: LCD_WF8B_BPCLCD32_MASK unused
LCD_WF8B_BPCLCD32_SHIFT 00000002

Symbol: LCD_WF8B_BPCLCD32_SHIFT
   Definitions
      At line 1729 in file MKL46Z4.s



ARM Macro Assembler    Page 131 Alphabetic symbol ordering
Absolute symbols

   Uses
      None
Comment: LCD_WF8B_BPCLCD32_SHIFT unused
LCD_WF8B_BPCLCD33_MASK 00000004

Symbol: LCD_WF8B_BPCLCD33_MASK
   Definitions
      At line 1734 in file MKL46Z4.s
   Uses
      None
Comment: LCD_WF8B_BPCLCD33_MASK unused
LCD_WF8B_BPCLCD33_SHIFT 00000002

Symbol: LCD_WF8B_BPCLCD33_SHIFT
   Definitions
      At line 1735 in file MKL46Z4.s
   Uses
      None
Comment: LCD_WF8B_BPCLCD33_SHIFT unused
LCD_WF8B_BPCLCD34_MASK 00000004

Symbol: LCD_WF8B_BPCLCD34_MASK
   Definitions
      At line 1744 in file MKL46Z4.s
   Uses
      None
Comment: LCD_WF8B_BPCLCD34_MASK unused
LCD_WF8B_BPCLCD34_SHIFT 00000002

Symbol: LCD_WF8B_BPCLCD34_SHIFT
   Definitions
      At line 1745 in file MKL46Z4.s
   Uses
      None
Comment: LCD_WF8B_BPCLCD34_SHIFT unused
LCD_WF8B_BPCLCD35_MASK 00000004

Symbol: LCD_WF8B_BPCLCD35_MASK
   Definitions
      At line 1754 in file MKL46Z4.s
   Uses
      None
Comment: LCD_WF8B_BPCLCD35_MASK unused
LCD_WF8B_BPCLCD35_SHIFT 00000002

Symbol: LCD_WF8B_BPCLCD35_SHIFT
   Definitions
      At line 1755 in file MKL46Z4.s
   Uses
      None
Comment: LCD_WF8B_BPCLCD35_SHIFT unused
LCD_WF8B_BPCLCD36_MASK 00000004

Symbol: LCD_WF8B_BPCLCD36_MASK
   Definitions
      At line 1758 in file MKL46Z4.s
   Uses
      None
Comment: LCD_WF8B_BPCLCD36_MASK unused



ARM Macro Assembler    Page 132 Alphabetic symbol ordering
Absolute symbols

LCD_WF8B_BPCLCD36_SHIFT 00000002

Symbol: LCD_WF8B_BPCLCD36_SHIFT
   Definitions
      At line 1759 in file MKL46Z4.s
   Uses
      None
Comment: LCD_WF8B_BPCLCD36_SHIFT unused
LCD_WF8B_BPCLCD37_MASK 00000004

Symbol: LCD_WF8B_BPCLCD37_MASK
   Definitions
      At line 1768 in file MKL46Z4.s
   Uses
      None
Comment: LCD_WF8B_BPCLCD37_MASK unused
LCD_WF8B_BPCLCD37_SHIFT 00000002

Symbol: LCD_WF8B_BPCLCD37_SHIFT
   Definitions
      At line 1769 in file MKL46Z4.s
   Uses
      None
Comment: LCD_WF8B_BPCLCD37_SHIFT unused
LCD_WF8B_BPCLCD38_MASK 00000004

Symbol: LCD_WF8B_BPCLCD38_MASK
   Definitions
      At line 1776 in file MKL46Z4.s
   Uses
      None
Comment: LCD_WF8B_BPCLCD38_MASK unused
LCD_WF8B_BPCLCD38_SHIFT 00000002

Symbol: LCD_WF8B_BPCLCD38_SHIFT
   Definitions
      At line 1777 in file MKL46Z4.s
   Uses
      None
Comment: LCD_WF8B_BPCLCD38_SHIFT unused
LCD_WF8B_BPCLCD39_MASK 00000004

Symbol: LCD_WF8B_BPCLCD39_MASK
   Definitions
      At line 1788 in file MKL46Z4.s
   Uses
      None
Comment: LCD_WF8B_BPCLCD39_MASK unused
LCD_WF8B_BPCLCD39_SHIFT 00000002

Symbol: LCD_WF8B_BPCLCD39_SHIFT
   Definitions
      At line 1789 in file MKL46Z4.s
   Uses
      None
Comment: LCD_WF8B_BPCLCD39_SHIFT unused
LCD_WF8B_BPCLCD3_MASK 00000004

Symbol: LCD_WF8B_BPCLCD3_MASK



ARM Macro Assembler    Page 133 Alphabetic symbol ordering
Absolute symbols

   Definitions
      At line 1770 in file MKL46Z4.s
   Uses
      None
Comment: LCD_WF8B_BPCLCD3_MASK unused
LCD_WF8B_BPCLCD3_SHIFT 00000002

Symbol: LCD_WF8B_BPCLCD3_SHIFT
   Definitions
      At line 1771 in file MKL46Z4.s
   Uses
      None
Comment: LCD_WF8B_BPCLCD3_SHIFT unused
LCD_WF8B_BPCLCD40_MASK 00000004

Symbol: LCD_WF8B_BPCLCD40_MASK
   Definitions
      At line 1782 in file MKL46Z4.s
   Uses
      None
Comment: LCD_WF8B_BPCLCD40_MASK unused
LCD_WF8B_BPCLCD40_SHIFT 00000002

Symbol: LCD_WF8B_BPCLCD40_SHIFT
   Definitions
      At line 1783 in file MKL46Z4.s
   Uses
      None
Comment: LCD_WF8B_BPCLCD40_SHIFT unused
LCD_WF8B_BPCLCD41_MASK 00000004

Symbol: LCD_WF8B_BPCLCD41_MASK
   Definitions
      At line 1766 in file MKL46Z4.s
   Uses
      None
Comment: LCD_WF8B_BPCLCD41_MASK unused
LCD_WF8B_BPCLCD41_SHIFT 00000002

Symbol: LCD_WF8B_BPCLCD41_SHIFT
   Definitions
      At line 1767 in file MKL46Z4.s
   Uses
      None
Comment: LCD_WF8B_BPCLCD41_SHIFT unused
LCD_WF8B_BPCLCD42_MASK 00000004

Symbol: LCD_WF8B_BPCLCD42_MASK
   Definitions
      At line 1752 in file MKL46Z4.s
   Uses
      None
Comment: LCD_WF8B_BPCLCD42_MASK unused
LCD_WF8B_BPCLCD42_SHIFT 00000002

Symbol: LCD_WF8B_BPCLCD42_SHIFT
   Definitions
      At line 1753 in file MKL46Z4.s
   Uses



ARM Macro Assembler    Page 134 Alphabetic symbol ordering
Absolute symbols

      None
Comment: LCD_WF8B_BPCLCD42_SHIFT unused
LCD_WF8B_BPCLCD43_MASK 00000004

Symbol: LCD_WF8B_BPCLCD43_MASK
   Definitions
      At line 1738 in file MKL46Z4.s
   Uses
      None
Comment: LCD_WF8B_BPCLCD43_MASK unused
LCD_WF8B_BPCLCD43_SHIFT 00000002

Symbol: LCD_WF8B_BPCLCD43_SHIFT
   Definitions
      At line 1739 in file MKL46Z4.s
   Uses
      None
Comment: LCD_WF8B_BPCLCD43_SHIFT unused
LCD_WF8B_BPCLCD44_MASK 00000004

Symbol: LCD_WF8B_BPCLCD44_MASK
   Definitions
      At line 1778 in file MKL46Z4.s
   Uses
      None
Comment: LCD_WF8B_BPCLCD44_MASK unused
LCD_WF8B_BPCLCD44_SHIFT 00000002

Symbol: LCD_WF8B_BPCLCD44_SHIFT
   Definitions
      At line 1779 in file MKL46Z4.s
   Uses
      None
Comment: LCD_WF8B_BPCLCD44_SHIFT unused
LCD_WF8B_BPCLCD45_MASK 00000004

Symbol: LCD_WF8B_BPCLCD45_MASK
   Definitions
      At line 1748 in file MKL46Z4.s
   Uses
      None
Comment: LCD_WF8B_BPCLCD45_MASK unused
LCD_WF8B_BPCLCD45_SHIFT 00000002

Symbol: LCD_WF8B_BPCLCD45_SHIFT
   Definitions
      At line 1749 in file MKL46Z4.s
   Uses
      None
Comment: LCD_WF8B_BPCLCD45_SHIFT unused
LCD_WF8B_BPCLCD46_MASK 00000004

Symbol: LCD_WF8B_BPCLCD46_MASK
   Definitions
      At line 1704 in file MKL46Z4.s
   Uses
      None
Comment: LCD_WF8B_BPCLCD46_MASK unused
LCD_WF8B_BPCLCD46_SHIFT 00000002



ARM Macro Assembler    Page 135 Alphabetic symbol ordering
Absolute symbols


Symbol: LCD_WF8B_BPCLCD46_SHIFT
   Definitions
      At line 1705 in file MKL46Z4.s
   Uses
      None
Comment: LCD_WF8B_BPCLCD46_SHIFT unused
LCD_WF8B_BPCLCD47_MASK 00000004

Symbol: LCD_WF8B_BPCLCD47_MASK
   Definitions
      At line 1678 in file MKL46Z4.s
   Uses
      None
Comment: LCD_WF8B_BPCLCD47_MASK unused
LCD_WF8B_BPCLCD47_SHIFT 00000002

Symbol: LCD_WF8B_BPCLCD47_SHIFT
   Definitions
      At line 1679 in file MKL46Z4.s
   Uses
      None
Comment: LCD_WF8B_BPCLCD47_SHIFT unused
LCD_WF8B_BPCLCD48_MASK 00000004

Symbol: LCD_WF8B_BPCLCD48_MASK
   Definitions
      At line 1672 in file MKL46Z4.s
   Uses
      None
Comment: LCD_WF8B_BPCLCD48_MASK unused
LCD_WF8B_BPCLCD48_SHIFT 00000002

Symbol: LCD_WF8B_BPCLCD48_SHIFT
   Definitions
      At line 1673 in file MKL46Z4.s
   Uses
      None
Comment: LCD_WF8B_BPCLCD48_SHIFT unused
LCD_WF8B_BPCLCD49_MASK 00000004

Symbol: LCD_WF8B_BPCLCD49_MASK
   Definitions
      At line 1686 in file MKL46Z4.s
   Uses
      None
Comment: LCD_WF8B_BPCLCD49_MASK unused
LCD_WF8B_BPCLCD49_SHIFT 00000002

Symbol: LCD_WF8B_BPCLCD49_SHIFT
   Definitions
      At line 1687 in file MKL46Z4.s
   Uses
      None
Comment: LCD_WF8B_BPCLCD49_SHIFT unused
LCD_WF8B_BPCLCD4_MASK 00000004

Symbol: LCD_WF8B_BPCLCD4_MASK
   Definitions



ARM Macro Assembler    Page 136 Alphabetic symbol ordering
Absolute symbols

      At line 1742 in file MKL46Z4.s
   Uses
      None
Comment: LCD_WF8B_BPCLCD4_MASK unused
LCD_WF8B_BPCLCD4_SHIFT 00000002

Symbol: LCD_WF8B_BPCLCD4_SHIFT
   Definitions
      At line 1743 in file MKL46Z4.s
   Uses
      None
Comment: LCD_WF8B_BPCLCD4_SHIFT unused
LCD_WF8B_BPCLCD50_MASK 00000004

Symbol: LCD_WF8B_BPCLCD50_MASK
   Definitions
      At line 1694 in file MKL46Z4.s
   Uses
      None
Comment: LCD_WF8B_BPCLCD50_MASK unused
LCD_WF8B_BPCLCD50_SHIFT 00000002

Symbol: LCD_WF8B_BPCLCD50_SHIFT
   Definitions
      At line 1695 in file MKL46Z4.s
   Uses
      None
Comment: LCD_WF8B_BPCLCD50_SHIFT unused
LCD_WF8B_BPCLCD51_MASK 00000004

Symbol: LCD_WF8B_BPCLCD51_MASK
   Definitions
      At line 1716 in file MKL46Z4.s
   Uses
      None
Comment: LCD_WF8B_BPCLCD51_MASK unused
LCD_WF8B_BPCLCD51_SHIFT 00000002

Symbol: LCD_WF8B_BPCLCD51_SHIFT
   Definitions
      At line 1717 in file MKL46Z4.s
   Uses
      None
Comment: LCD_WF8B_BPCLCD51_SHIFT unused
LCD_WF8B_BPCLCD52_MASK 00000004

Symbol: LCD_WF8B_BPCLCD52_MASK
   Definitions
      At line 1762 in file MKL46Z4.s
   Uses
      None
Comment: LCD_WF8B_BPCLCD52_MASK unused
LCD_WF8B_BPCLCD52_SHIFT 00000002

Symbol: LCD_WF8B_BPCLCD52_SHIFT
   Definitions
      At line 1763 in file MKL46Z4.s
   Uses
      None



ARM Macro Assembler    Page 137 Alphabetic symbol ordering
Absolute symbols

Comment: LCD_WF8B_BPCLCD52_SHIFT unused
LCD_WF8B_BPCLCD53_MASK 00000004

Symbol: LCD_WF8B_BPCLCD53_MASK
   Definitions
      At line 1732 in file MKL46Z4.s
   Uses
      None
Comment: LCD_WF8B_BPCLCD53_MASK unused
LCD_WF8B_BPCLCD53_SHIFT 00000002

Symbol: LCD_WF8B_BPCLCD53_SHIFT
   Definitions
      At line 1733 in file MKL46Z4.s
   Uses
      None
Comment: LCD_WF8B_BPCLCD53_SHIFT unused
LCD_WF8B_BPCLCD54_MASK 00000004

Symbol: LCD_WF8B_BPCLCD54_MASK
   Definitions
      At line 1720 in file MKL46Z4.s
   Uses
      None
Comment: LCD_WF8B_BPCLCD54_MASK unused
LCD_WF8B_BPCLCD54_SHIFT 00000002

Symbol: LCD_WF8B_BPCLCD54_SHIFT
   Definitions
      At line 1721 in file MKL46Z4.s
   Uses
      None
Comment: LCD_WF8B_BPCLCD54_SHIFT unused
LCD_WF8B_BPCLCD55_MASK 00000004

Symbol: LCD_WF8B_BPCLCD55_MASK
   Definitions
      At line 1666 in file MKL46Z4.s
   Uses
      None
Comment: LCD_WF8B_BPCLCD55_MASK unused
LCD_WF8B_BPCLCD55_SHIFT 00000002

Symbol: LCD_WF8B_BPCLCD55_SHIFT
   Definitions
      At line 1667 in file MKL46Z4.s
   Uses
      None
Comment: LCD_WF8B_BPCLCD55_SHIFT unused
LCD_WF8B_BPCLCD56_MASK 00000004

Symbol: LCD_WF8B_BPCLCD56_MASK
   Definitions
      At line 1786 in file MKL46Z4.s
   Uses
      None
Comment: LCD_WF8B_BPCLCD56_MASK unused
LCD_WF8B_BPCLCD56_SHIFT 00000002




ARM Macro Assembler    Page 138 Alphabetic symbol ordering
Absolute symbols

Symbol: LCD_WF8B_BPCLCD56_SHIFT
   Definitions
      At line 1787 in file MKL46Z4.s
   Uses
      None
Comment: LCD_WF8B_BPCLCD56_SHIFT unused
LCD_WF8B_BPCLCD57_MASK 00000004

Symbol: LCD_WF8B_BPCLCD57_MASK
   Definitions
      At line 1750 in file MKL46Z4.s
   Uses
      None
Comment: LCD_WF8B_BPCLCD57_MASK unused
LCD_WF8B_BPCLCD57_SHIFT 00000002

Symbol: LCD_WF8B_BPCLCD57_SHIFT
   Definitions
      At line 1751 in file MKL46Z4.s
   Uses
      None
Comment: LCD_WF8B_BPCLCD57_SHIFT unused
LCD_WF8B_BPCLCD58_MASK 00000004

Symbol: LCD_WF8B_BPCLCD58_MASK
   Definitions
      At line 1764 in file MKL46Z4.s
   Uses
      None
Comment: LCD_WF8B_BPCLCD58_MASK unused
LCD_WF8B_BPCLCD58_SHIFT 00000002

Symbol: LCD_WF8B_BPCLCD58_SHIFT
   Definitions
      At line 1765 in file MKL46Z4.s
   Uses
      None
Comment: LCD_WF8B_BPCLCD58_SHIFT unused
LCD_WF8B_BPCLCD59_MASK 00000004

Symbol: LCD_WF8B_BPCLCD59_MASK
   Definitions
      At line 1700 in file MKL46Z4.s
   Uses
      None
Comment: LCD_WF8B_BPCLCD59_MASK unused
LCD_WF8B_BPCLCD59_SHIFT 00000002

Symbol: LCD_WF8B_BPCLCD59_SHIFT
   Definitions
      At line 1701 in file MKL46Z4.s
   Uses
      None
Comment: LCD_WF8B_BPCLCD59_SHIFT unused
LCD_WF8B_BPCLCD5_MASK 00000004

Symbol: LCD_WF8B_BPCLCD5_MASK
   Definitions
      At line 1708 in file MKL46Z4.s



ARM Macro Assembler    Page 139 Alphabetic symbol ordering
Absolute symbols

   Uses
      None
Comment: LCD_WF8B_BPCLCD5_MASK unused
LCD_WF8B_BPCLCD5_SHIFT 00000002

Symbol: LCD_WF8B_BPCLCD5_SHIFT
   Definitions
      At line 1709 in file MKL46Z4.s
   Uses
      None
Comment: LCD_WF8B_BPCLCD5_SHIFT unused
LCD_WF8B_BPCLCD60_MASK 00000004

Symbol: LCD_WF8B_BPCLCD60_MASK
   Definitions
      At line 1676 in file MKL46Z4.s
   Uses
      None
Comment: LCD_WF8B_BPCLCD60_MASK unused
LCD_WF8B_BPCLCD60_SHIFT 00000002

Symbol: LCD_WF8B_BPCLCD60_SHIFT
   Definitions
      At line 1677 in file MKL46Z4.s
   Uses
      None
Comment: LCD_WF8B_BPCLCD60_SHIFT unused
LCD_WF8B_BPCLCD61_MASK 00000004

Symbol: LCD_WF8B_BPCLCD61_MASK
   Definitions
      At line 1702 in file MKL46Z4.s
   Uses
      None
Comment: LCD_WF8B_BPCLCD61_MASK unused
LCD_WF8B_BPCLCD61_SHIFT 00000002

Symbol: LCD_WF8B_BPCLCD61_SHIFT
   Definitions
      At line 1703 in file MKL46Z4.s
   Uses
      None
Comment: LCD_WF8B_BPCLCD61_SHIFT unused
LCD_WF8B_BPCLCD62_MASK 00000004

Symbol: LCD_WF8B_BPCLCD62_MASK
   Definitions
      At line 1784 in file MKL46Z4.s
   Uses
      None
Comment: LCD_WF8B_BPCLCD62_MASK unused
LCD_WF8B_BPCLCD62_SHIFT 00000002

Symbol: LCD_WF8B_BPCLCD62_SHIFT
   Definitions
      At line 1785 in file MKL46Z4.s
   Uses
      None
Comment: LCD_WF8B_BPCLCD62_SHIFT unused



ARM Macro Assembler    Page 140 Alphabetic symbol ordering
Absolute symbols

LCD_WF8B_BPCLCD63_MASK 00000004

Symbol: LCD_WF8B_BPCLCD63_MASK
   Definitions
      At line 1710 in file MKL46Z4.s
   Uses
      None
Comment: LCD_WF8B_BPCLCD63_MASK unused
LCD_WF8B_BPCLCD63_SHIFT 00000002

Symbol: LCD_WF8B_BPCLCD63_SHIFT
   Definitions
      At line 1711 in file MKL46Z4.s
   Uses
      None
Comment: LCD_WF8B_BPCLCD63_SHIFT unused
LCD_WF8B_BPCLCD6_MASK 00000004

Symbol: LCD_WF8B_BPCLCD6_MASK
   Definitions
      At line 1790 in file MKL46Z4.s
   Uses
      None
Comment: LCD_WF8B_BPCLCD6_MASK unused
LCD_WF8B_BPCLCD6_SHIFT 00000002

Symbol: LCD_WF8B_BPCLCD6_SHIFT
   Definitions
      At line 1791 in file MKL46Z4.s
   Uses
      None
Comment: LCD_WF8B_BPCLCD6_SHIFT unused
LCD_WF8B_BPCLCD7_MASK 00000004

Symbol: LCD_WF8B_BPCLCD7_MASK
   Definitions
      At line 1740 in file MKL46Z4.s
   Uses
      None
Comment: LCD_WF8B_BPCLCD7_MASK unused
LCD_WF8B_BPCLCD7_SHIFT 00000002

Symbol: LCD_WF8B_BPCLCD7_SHIFT
   Definitions
      At line 1741 in file MKL46Z4.s
   Uses
      None
Comment: LCD_WF8B_BPCLCD7_SHIFT unused
LCD_WF8B_BPCLCD8_MASK 00000004

Symbol: LCD_WF8B_BPCLCD8_MASK
   Definitions
      At line 1682 in file MKL46Z4.s
   Uses
      None
Comment: LCD_WF8B_BPCLCD8_MASK unused
LCD_WF8B_BPCLCD8_SHIFT 00000002

Symbol: LCD_WF8B_BPCLCD8_SHIFT



ARM Macro Assembler    Page 141 Alphabetic symbol ordering
Absolute symbols

   Definitions
      At line 1683 in file MKL46Z4.s
   Uses
      None
Comment: LCD_WF8B_BPCLCD8_SHIFT unused
LCD_WF8B_BPCLCD9_MASK 00000004

Symbol: LCD_WF8B_BPCLCD9_MASK
   Definitions
      At line 1718 in file MKL46Z4.s
   Uses
      None
Comment: LCD_WF8B_BPCLCD9_MASK unused
LCD_WF8B_BPCLCD9_SHIFT 00000002

Symbol: LCD_WF8B_BPCLCD9_SHIFT
   Definitions
      At line 1719 in file MKL46Z4.s
   Uses
      None
Comment: LCD_WF8B_BPCLCD9_SHIFT unused
LCD_WF8B_BPDLCD0_MASK 00000008

Symbol: LCD_WF8B_BPDLCD0_MASK
   Definitions
      At line 1832 in file MKL46Z4.s
   Uses
      None
Comment: LCD_WF8B_BPDLCD0_MASK unused
LCD_WF8B_BPDLCD0_SHIFT 00000003

Symbol: LCD_WF8B_BPDLCD0_SHIFT
   Definitions
      At line 1833 in file MKL46Z4.s
   Uses
      None
Comment: LCD_WF8B_BPDLCD0_SHIFT unused
LCD_WF8B_BPDLCD10_MASK 00000008

Symbol: LCD_WF8B_BPDLCD10_MASK
   Definitions
      At line 1806 in file MKL46Z4.s
   Uses
      None
Comment: LCD_WF8B_BPDLCD10_MASK unused
LCD_WF8B_BPDLCD10_SHIFT 00000003

Symbol: LCD_WF8B_BPDLCD10_SHIFT
   Definitions
      At line 1807 in file MKL46Z4.s
   Uses
      None
Comment: LCD_WF8B_BPDLCD10_SHIFT unused
LCD_WF8B_BPDLCD11_MASK 00000008

Symbol: LCD_WF8B_BPDLCD11_MASK
   Definitions
      At line 1918 in file MKL46Z4.s
   Uses



ARM Macro Assembler    Page 142 Alphabetic symbol ordering
Absolute symbols

      None
Comment: LCD_WF8B_BPDLCD11_MASK unused
LCD_WF8B_BPDLCD11_SHIFT 00000003

Symbol: LCD_WF8B_BPDLCD11_SHIFT
   Definitions
      At line 1919 in file MKL46Z4.s
   Uses
      None
Comment: LCD_WF8B_BPDLCD11_SHIFT unused
LCD_WF8B_BPDLCD12_MASK 00000008

Symbol: LCD_WF8B_BPDLCD12_MASK
   Definitions
      At line 1912 in file MKL46Z4.s
   Uses
      None
Comment: LCD_WF8B_BPDLCD12_MASK unused
LCD_WF8B_BPDLCD12_SHIFT 00000003

Symbol: LCD_WF8B_BPDLCD12_SHIFT
   Definitions
      At line 1913 in file MKL46Z4.s
   Uses
      None
Comment: LCD_WF8B_BPDLCD12_SHIFT unused
LCD_WF8B_BPDLCD13_MASK 00000008

Symbol: LCD_WF8B_BPDLCD13_MASK
   Definitions
      At line 1854 in file MKL46Z4.s
   Uses
      None
Comment: LCD_WF8B_BPDLCD13_MASK unused
LCD_WF8B_BPDLCD13_SHIFT 00000003

Symbol: LCD_WF8B_BPDLCD13_SHIFT
   Definitions
      At line 1855 in file MKL46Z4.s
   Uses
      None
Comment: LCD_WF8B_BPDLCD13_SHIFT unused
LCD_WF8B_BPDLCD14_MASK 00000008

Symbol: LCD_WF8B_BPDLCD14_MASK
   Definitions
      At line 1860 in file MKL46Z4.s
   Uses
      None
Comment: LCD_WF8B_BPDLCD14_MASK unused
LCD_WF8B_BPDLCD14_SHIFT 00000003

Symbol: LCD_WF8B_BPDLCD14_SHIFT
   Definitions
      At line 1861 in file MKL46Z4.s
   Uses
      None
Comment: LCD_WF8B_BPDLCD14_SHIFT unused
LCD_WF8B_BPDLCD15_MASK 00000008



ARM Macro Assembler    Page 143 Alphabetic symbol ordering
Absolute symbols


Symbol: LCD_WF8B_BPDLCD15_MASK
   Definitions
      At line 1800 in file MKL46Z4.s
   Uses
      None
Comment: LCD_WF8B_BPDLCD15_MASK unused
LCD_WF8B_BPDLCD15_SHIFT 00000003

Symbol: LCD_WF8B_BPDLCD15_SHIFT
   Definitions
      At line 1801 in file MKL46Z4.s
   Uses
      None
Comment: LCD_WF8B_BPDLCD15_SHIFT unused
LCD_WF8B_BPDLCD16_MASK 00000008

Symbol: LCD_WF8B_BPDLCD16_MASK
   Definitions
      At line 1856 in file MKL46Z4.s
   Uses
      None
Comment: LCD_WF8B_BPDLCD16_MASK unused
LCD_WF8B_BPDLCD16_SHIFT 00000003

Symbol: LCD_WF8B_BPDLCD16_SHIFT
   Definitions
      At line 1857 in file MKL46Z4.s
   Uses
      None
Comment: LCD_WF8B_BPDLCD16_SHIFT unused
LCD_WF8B_BPDLCD17_MASK 00000008

Symbol: LCD_WF8B_BPDLCD17_MASK
   Definitions
      At line 1844 in file MKL46Z4.s
   Uses
      None
Comment: LCD_WF8B_BPDLCD17_MASK unused
LCD_WF8B_BPDLCD17_SHIFT 00000003

Symbol: LCD_WF8B_BPDLCD17_SHIFT
   Definitions
      At line 1845 in file MKL46Z4.s
   Uses
      None
Comment: LCD_WF8B_BPDLCD17_SHIFT unused
LCD_WF8B_BPDLCD18_MASK 00000008

Symbol: LCD_WF8B_BPDLCD18_MASK
   Definitions
      At line 1838 in file MKL46Z4.s
   Uses
      None
Comment: LCD_WF8B_BPDLCD18_MASK unused
LCD_WF8B_BPDLCD18_SHIFT 00000003

Symbol: LCD_WF8B_BPDLCD18_SHIFT
   Definitions



ARM Macro Assembler    Page 144 Alphabetic symbol ordering
Absolute symbols

      At line 1839 in file MKL46Z4.s
   Uses
      None
Comment: LCD_WF8B_BPDLCD18_SHIFT unused
LCD_WF8B_BPDLCD19_MASK 00000008

Symbol: LCD_WF8B_BPDLCD19_MASK
   Definitions
      At line 1826 in file MKL46Z4.s
   Uses
      None
Comment: LCD_WF8B_BPDLCD19_MASK unused
LCD_WF8B_BPDLCD19_SHIFT 00000003

Symbol: LCD_WF8B_BPDLCD19_SHIFT
   Definitions
      At line 1827 in file MKL46Z4.s
   Uses
      None
Comment: LCD_WF8B_BPDLCD19_SHIFT unused
LCD_WF8B_BPDLCD1_MASK 00000008

Symbol: LCD_WF8B_BPDLCD1_MASK
   Definitions
      At line 1812 in file MKL46Z4.s
   Uses
      None
Comment: LCD_WF8B_BPDLCD1_MASK unused
LCD_WF8B_BPDLCD1_SHIFT 00000003

Symbol: LCD_WF8B_BPDLCD1_SHIFT
   Definitions
      At line 1813 in file MKL46Z4.s
   Uses
      None
Comment: LCD_WF8B_BPDLCD1_SHIFT unused
LCD_WF8B_BPDLCD20_MASK 00000008

Symbol: LCD_WF8B_BPDLCD20_MASK
   Definitions
      At line 1816 in file MKL46Z4.s
   Uses
      None
Comment: LCD_WF8B_BPDLCD20_MASK unused
LCD_WF8B_BPDLCD20_SHIFT 00000003

Symbol: LCD_WF8B_BPDLCD20_SHIFT
   Definitions
      At line 1817 in file MKL46Z4.s
   Uses
      None
Comment: LCD_WF8B_BPDLCD20_SHIFT unused
LCD_WF8B_BPDLCD21_MASK 00000008

Symbol: LCD_WF8B_BPDLCD21_MASK
   Definitions
      At line 1808 in file MKL46Z4.s
   Uses
      None



ARM Macro Assembler    Page 145 Alphabetic symbol ordering
Absolute symbols

Comment: LCD_WF8B_BPDLCD21_MASK unused
LCD_WF8B_BPDLCD21_SHIFT 00000003

Symbol: LCD_WF8B_BPDLCD21_SHIFT
   Definitions
      At line 1809 in file MKL46Z4.s
   Uses
      None
Comment: LCD_WF8B_BPDLCD21_SHIFT unused
LCD_WF8B_BPDLCD22_MASK 00000008

Symbol: LCD_WF8B_BPDLCD22_MASK
   Definitions
      At line 1802 in file MKL46Z4.s
   Uses
      None
Comment: LCD_WF8B_BPDLCD22_MASK unused
LCD_WF8B_BPDLCD22_SHIFT 00000003

Symbol: LCD_WF8B_BPDLCD22_SHIFT
   Definitions
      At line 1803 in file MKL46Z4.s
   Uses
      None
Comment: LCD_WF8B_BPDLCD22_SHIFT unused
LCD_WF8B_BPDLCD23_MASK 00000008

Symbol: LCD_WF8B_BPDLCD23_MASK
   Definitions
      At line 1794 in file MKL46Z4.s
   Uses
      None
Comment: LCD_WF8B_BPDLCD23_MASK unused
LCD_WF8B_BPDLCD23_SHIFT 00000003

Symbol: LCD_WF8B_BPDLCD23_SHIFT
   Definitions
      At line 1795 in file MKL46Z4.s
   Uses
      None
Comment: LCD_WF8B_BPDLCD23_SHIFT unused
LCD_WF8B_BPDLCD24_MASK 00000008

Symbol: LCD_WF8B_BPDLCD24_MASK
   Definitions
      At line 1798 in file MKL46Z4.s
   Uses
      None
Comment: LCD_WF8B_BPDLCD24_MASK unused
LCD_WF8B_BPDLCD24_SHIFT 00000003

Symbol: LCD_WF8B_BPDLCD24_SHIFT
   Definitions
      At line 1799 in file MKL46Z4.s
   Uses
      None
Comment: LCD_WF8B_BPDLCD24_SHIFT unused
LCD_WF8B_BPDLCD25_MASK 00000008




ARM Macro Assembler    Page 146 Alphabetic symbol ordering
Absolute symbols

Symbol: LCD_WF8B_BPDLCD25_MASK
   Definitions
      At line 1814 in file MKL46Z4.s
   Uses
      None
Comment: LCD_WF8B_BPDLCD25_MASK unused
LCD_WF8B_BPDLCD25_SHIFT 00000003

Symbol: LCD_WF8B_BPDLCD25_SHIFT
   Definitions
      At line 1815 in file MKL46Z4.s
   Uses
      None
Comment: LCD_WF8B_BPDLCD25_SHIFT unused
LCD_WF8B_BPDLCD26_MASK 00000008

Symbol: LCD_WF8B_BPDLCD26_MASK
   Definitions
      At line 1830 in file MKL46Z4.s
   Uses
      None
Comment: LCD_WF8B_BPDLCD26_MASK unused
LCD_WF8B_BPDLCD26_SHIFT 00000003

Symbol: LCD_WF8B_BPDLCD26_SHIFT
   Definitions
      At line 1831 in file MKL46Z4.s
   Uses
      None
Comment: LCD_WF8B_BPDLCD26_SHIFT unused
LCD_WF8B_BPDLCD27_MASK 00000008

Symbol: LCD_WF8B_BPDLCD27_MASK
   Definitions
      At line 1846 in file MKL46Z4.s
   Uses
      None
Comment: LCD_WF8B_BPDLCD27_MASK unused
LCD_WF8B_BPDLCD27_SHIFT 00000003

Symbol: LCD_WF8B_BPDLCD27_SHIFT
   Definitions
      At line 1847 in file MKL46Z4.s
   Uses
      None
Comment: LCD_WF8B_BPDLCD27_SHIFT unused
LCD_WF8B_BPDLCD28_MASK 00000008

Symbol: LCD_WF8B_BPDLCD28_MASK
   Definitions
      At line 1862 in file MKL46Z4.s
   Uses
      None
Comment: LCD_WF8B_BPDLCD28_MASK unused
LCD_WF8B_BPDLCD28_SHIFT 00000003

Symbol: LCD_WF8B_BPDLCD28_SHIFT
   Definitions
      At line 1863 in file MKL46Z4.s



ARM Macro Assembler    Page 147 Alphabetic symbol ordering
Absolute symbols

   Uses
      None
Comment: LCD_WF8B_BPDLCD28_SHIFT unused
LCD_WF8B_BPDLCD29_MASK 00000008

Symbol: LCD_WF8B_BPDLCD29_MASK
   Definitions
      At line 1878 in file MKL46Z4.s
   Uses
      None
Comment: LCD_WF8B_BPDLCD29_MASK unused
LCD_WF8B_BPDLCD29_SHIFT 00000003

Symbol: LCD_WF8B_BPDLCD29_SHIFT
   Definitions
      At line 1879 in file MKL46Z4.s
   Uses
      None
Comment: LCD_WF8B_BPDLCD29_SHIFT unused
LCD_WF8B_BPDLCD2_MASK 00000008

Symbol: LCD_WF8B_BPDLCD2_MASK
   Definitions
      At line 1818 in file MKL46Z4.s
   Uses
      None
Comment: LCD_WF8B_BPDLCD2_MASK unused
LCD_WF8B_BPDLCD2_SHIFT 00000003

Symbol: LCD_WF8B_BPDLCD2_SHIFT
   Definitions
      At line 1819 in file MKL46Z4.s
   Uses
      None
Comment: LCD_WF8B_BPDLCD2_SHIFT unused
LCD_WF8B_BPDLCD30_MASK 00000008

Symbol: LCD_WF8B_BPDLCD30_MASK
   Definitions
      At line 1894 in file MKL46Z4.s
   Uses
      None
Comment: LCD_WF8B_BPDLCD30_MASK unused
LCD_WF8B_BPDLCD30_SHIFT 00000003

Symbol: LCD_WF8B_BPDLCD30_SHIFT
   Definitions
      At line 1895 in file MKL46Z4.s
   Uses
      None
Comment: LCD_WF8B_BPDLCD30_SHIFT unused
LCD_WF8B_BPDLCD31_MASK 00000008

Symbol: LCD_WF8B_BPDLCD31_MASK
   Definitions
      At line 1910 in file MKL46Z4.s
   Uses
      None
Comment: LCD_WF8B_BPDLCD31_MASK unused



ARM Macro Assembler    Page 148 Alphabetic symbol ordering
Absolute symbols

LCD_WF8B_BPDLCD31_SHIFT 00000003

Symbol: LCD_WF8B_BPDLCD31_SHIFT
   Definitions
      At line 1911 in file MKL46Z4.s
   Uses
      None
Comment: LCD_WF8B_BPDLCD31_SHIFT unused
LCD_WF8B_BPDLCD32_MASK 00000008

Symbol: LCD_WF8B_BPDLCD32_MASK
   Definitions
      At line 1858 in file MKL46Z4.s
   Uses
      None
Comment: LCD_WF8B_BPDLCD32_MASK unused
LCD_WF8B_BPDLCD32_SHIFT 00000003

Symbol: LCD_WF8B_BPDLCD32_SHIFT
   Definitions
      At line 1859 in file MKL46Z4.s
   Uses
      None
Comment: LCD_WF8B_BPDLCD32_SHIFT unused
LCD_WF8B_BPDLCD33_MASK 00000008

Symbol: LCD_WF8B_BPDLCD33_MASK
   Definitions
      At line 1874 in file MKL46Z4.s
   Uses
      None
Comment: LCD_WF8B_BPDLCD33_MASK unused
LCD_WF8B_BPDLCD33_SHIFT 00000003

Symbol: LCD_WF8B_BPDLCD33_SHIFT
   Definitions
      At line 1875 in file MKL46Z4.s
   Uses
      None
Comment: LCD_WF8B_BPDLCD33_SHIFT unused
LCD_WF8B_BPDLCD34_MASK 00000008

Symbol: LCD_WF8B_BPDLCD34_MASK
   Definitions
      At line 1876 in file MKL46Z4.s
   Uses
      None
Comment: LCD_WF8B_BPDLCD34_MASK unused
LCD_WF8B_BPDLCD34_SHIFT 00000003

Symbol: LCD_WF8B_BPDLCD34_SHIFT
   Definitions
      At line 1877 in file MKL46Z4.s
   Uses
      None
Comment: LCD_WF8B_BPDLCD34_SHIFT unused
LCD_WF8B_BPDLCD35_MASK 00000008

Symbol: LCD_WF8B_BPDLCD35_MASK



ARM Macro Assembler    Page 149 Alphabetic symbol ordering
Absolute symbols

   Definitions
      At line 1886 in file MKL46Z4.s
   Uses
      None
Comment: LCD_WF8B_BPDLCD35_MASK unused
LCD_WF8B_BPDLCD35_SHIFT 00000003

Symbol: LCD_WF8B_BPDLCD35_SHIFT
   Definitions
      At line 1887 in file MKL46Z4.s
   Uses
      None
Comment: LCD_WF8B_BPDLCD35_SHIFT unused
LCD_WF8B_BPDLCD36_MASK 00000008

Symbol: LCD_WF8B_BPDLCD36_MASK
   Definitions
      At line 1892 in file MKL46Z4.s
   Uses
      None
Comment: LCD_WF8B_BPDLCD36_MASK unused
LCD_WF8B_BPDLCD36_SHIFT 00000003

Symbol: LCD_WF8B_BPDLCD36_SHIFT
   Definitions
      At line 1893 in file MKL46Z4.s
   Uses
      None
Comment: LCD_WF8B_BPDLCD36_SHIFT unused
LCD_WF8B_BPDLCD37_MASK 00000008

Symbol: LCD_WF8B_BPDLCD37_MASK
   Definitions
      At line 1898 in file MKL46Z4.s
   Uses
      None
Comment: LCD_WF8B_BPDLCD37_MASK unused
LCD_WF8B_BPDLCD37_SHIFT 00000003

Symbol: LCD_WF8B_BPDLCD37_SHIFT
   Definitions
      At line 1899 in file MKL46Z4.s
   Uses
      None
Comment: LCD_WF8B_BPDLCD37_SHIFT unused
LCD_WF8B_BPDLCD38_MASK 00000008

Symbol: LCD_WF8B_BPDLCD38_MASK
   Definitions
      At line 1904 in file MKL46Z4.s
   Uses
      None
Comment: LCD_WF8B_BPDLCD38_MASK unused
LCD_WF8B_BPDLCD38_SHIFT 00000003

Symbol: LCD_WF8B_BPDLCD38_SHIFT
   Definitions
      At line 1905 in file MKL46Z4.s
   Uses



ARM Macro Assembler    Page 150 Alphabetic symbol ordering
Absolute symbols

      None
Comment: LCD_WF8B_BPDLCD38_SHIFT unused
LCD_WF8B_BPDLCD39_MASK 00000008

Symbol: LCD_WF8B_BPDLCD39_MASK
   Definitions
      At line 1914 in file MKL46Z4.s
   Uses
      None
Comment: LCD_WF8B_BPDLCD39_MASK unused
LCD_WF8B_BPDLCD39_SHIFT 00000003

Symbol: LCD_WF8B_BPDLCD39_SHIFT
   Definitions
      At line 1915 in file MKL46Z4.s
   Uses
      None
Comment: LCD_WF8B_BPDLCD39_SHIFT unused
LCD_WF8B_BPDLCD3_MASK 00000008

Symbol: LCD_WF8B_BPDLCD3_MASK
   Definitions
      At line 1916 in file MKL46Z4.s
   Uses
      None
Comment: LCD_WF8B_BPDLCD3_MASK unused
LCD_WF8B_BPDLCD3_SHIFT 00000003

Symbol: LCD_WF8B_BPDLCD3_SHIFT
   Definitions
      At line 1917 in file MKL46Z4.s
   Uses
      None
Comment: LCD_WF8B_BPDLCD3_SHIFT unused
LCD_WF8B_BPDLCD40_MASK 00000008

Symbol: LCD_WF8B_BPDLCD40_MASK
   Definitions
      At line 1908 in file MKL46Z4.s
   Uses
      None
Comment: LCD_WF8B_BPDLCD40_MASK unused
LCD_WF8B_BPDLCD40_SHIFT 00000003

Symbol: LCD_WF8B_BPDLCD40_SHIFT
   Definitions
      At line 1909 in file MKL46Z4.s
   Uses
      None
Comment: LCD_WF8B_BPDLCD40_SHIFT unused
LCD_WF8B_BPDLCD41_MASK 00000008

Symbol: LCD_WF8B_BPDLCD41_MASK
   Definitions
      At line 1896 in file MKL46Z4.s
   Uses
      None
Comment: LCD_WF8B_BPDLCD41_MASK unused
LCD_WF8B_BPDLCD41_SHIFT 00000003



ARM Macro Assembler    Page 151 Alphabetic symbol ordering
Absolute symbols


Symbol: LCD_WF8B_BPDLCD41_SHIFT
   Definitions
      At line 1897 in file MKL46Z4.s
   Uses
      None
Comment: LCD_WF8B_BPDLCD41_SHIFT unused
LCD_WF8B_BPDLCD42_MASK 00000008

Symbol: LCD_WF8B_BPDLCD42_MASK
   Definitions
      At line 1884 in file MKL46Z4.s
   Uses
      None
Comment: LCD_WF8B_BPDLCD42_MASK unused
LCD_WF8B_BPDLCD42_SHIFT 00000003

Symbol: LCD_WF8B_BPDLCD42_SHIFT
   Definitions
      At line 1885 in file MKL46Z4.s
   Uses
      None
Comment: LCD_WF8B_BPDLCD42_SHIFT unused
LCD_WF8B_BPDLCD43_MASK 00000008

Symbol: LCD_WF8B_BPDLCD43_MASK
   Definitions
      At line 1864 in file MKL46Z4.s
   Uses
      None
Comment: LCD_WF8B_BPDLCD43_MASK unused
LCD_WF8B_BPDLCD43_SHIFT 00000003

Symbol: LCD_WF8B_BPDLCD43_SHIFT
   Definitions
      At line 1865 in file MKL46Z4.s
   Uses
      None
Comment: LCD_WF8B_BPDLCD43_SHIFT unused
LCD_WF8B_BPDLCD44_MASK 00000008

Symbol: LCD_WF8B_BPDLCD44_MASK
   Definitions
      At line 1900 in file MKL46Z4.s
   Uses
      None
Comment: LCD_WF8B_BPDLCD44_MASK unused
LCD_WF8B_BPDLCD44_SHIFT 00000003

Symbol: LCD_WF8B_BPDLCD44_SHIFT
   Definitions
      At line 1901 in file MKL46Z4.s
   Uses
      None
Comment: LCD_WF8B_BPDLCD44_SHIFT unused
LCD_WF8B_BPDLCD45_MASK 00000008

Symbol: LCD_WF8B_BPDLCD45_MASK
   Definitions



ARM Macro Assembler    Page 152 Alphabetic symbol ordering
Absolute symbols

      At line 1868 in file MKL46Z4.s
   Uses
      None
Comment: LCD_WF8B_BPDLCD45_MASK unused
LCD_WF8B_BPDLCD45_SHIFT 00000003

Symbol: LCD_WF8B_BPDLCD45_SHIFT
   Definitions
      At line 1869 in file MKL46Z4.s
   Uses
      None
Comment: LCD_WF8B_BPDLCD45_SHIFT unused
LCD_WF8B_BPDLCD46_MASK 00000008

Symbol: LCD_WF8B_BPDLCD46_MASK
   Definitions
      At line 1836 in file MKL46Z4.s
   Uses
      None
Comment: LCD_WF8B_BPDLCD46_MASK unused
LCD_WF8B_BPDLCD46_SHIFT 00000003

Symbol: LCD_WF8B_BPDLCD46_SHIFT
   Definitions
      At line 1837 in file MKL46Z4.s
   Uses
      None
Comment: LCD_WF8B_BPDLCD46_SHIFT unused
LCD_WF8B_BPDLCD47_MASK 00000008

Symbol: LCD_WF8B_BPDLCD47_MASK
   Definitions
      At line 1792 in file MKL46Z4.s
   Uses
      None
Comment: LCD_WF8B_BPDLCD47_MASK unused
LCD_WF8B_BPDLCD47_SHIFT 00000003

Symbol: LCD_WF8B_BPDLCD47_SHIFT
   Definitions
      At line 1793 in file MKL46Z4.s
   Uses
      None
Comment: LCD_WF8B_BPDLCD47_SHIFT unused
LCD_WF8B_BPDLCD48_MASK 00000008

Symbol: LCD_WF8B_BPDLCD48_MASK
   Definitions
      At line 1796 in file MKL46Z4.s
   Uses
      None
Comment: LCD_WF8B_BPDLCD48_MASK unused
LCD_WF8B_BPDLCD48_SHIFT 00000003

Symbol: LCD_WF8B_BPDLCD48_SHIFT
   Definitions
      At line 1797 in file MKL46Z4.s
   Uses
      None



ARM Macro Assembler    Page 153 Alphabetic symbol ordering
Absolute symbols

Comment: LCD_WF8B_BPDLCD48_SHIFT unused
LCD_WF8B_BPDLCD49_MASK 00000008

Symbol: LCD_WF8B_BPDLCD49_MASK
   Definitions
      At line 1810 in file MKL46Z4.s
   Uses
      None
Comment: LCD_WF8B_BPDLCD49_MASK unused
LCD_WF8B_BPDLCD49_SHIFT 00000003

Symbol: LCD_WF8B_BPDLCD49_SHIFT
   Definitions
      At line 1811 in file MKL46Z4.s
   Uses
      None
Comment: LCD_WF8B_BPDLCD49_SHIFT unused
LCD_WF8B_BPDLCD4_MASK 00000008

Symbol: LCD_WF8B_BPDLCD4_MASK
   Definitions
      At line 1866 in file MKL46Z4.s
   Uses
      None
Comment: LCD_WF8B_BPDLCD4_MASK unused
LCD_WF8B_BPDLCD4_SHIFT 00000003

Symbol: LCD_WF8B_BPDLCD4_SHIFT
   Definitions
      At line 1867 in file MKL46Z4.s
   Uses
      None
Comment: LCD_WF8B_BPDLCD4_SHIFT unused
LCD_WF8B_BPDLCD50_MASK 00000008

Symbol: LCD_WF8B_BPDLCD50_MASK
   Definitions
      At line 1834 in file MKL46Z4.s
   Uses
      None
Comment: LCD_WF8B_BPDLCD50_MASK unused
LCD_WF8B_BPDLCD50_SHIFT 00000003

Symbol: LCD_WF8B_BPDLCD50_SHIFT
   Definitions
      At line 1835 in file MKL46Z4.s
   Uses
      None
Comment: LCD_WF8B_BPDLCD50_SHIFT unused
LCD_WF8B_BPDLCD51_MASK 00000008

Symbol: LCD_WF8B_BPDLCD51_MASK
   Definitions
      At line 1850 in file MKL46Z4.s
   Uses
      None
Comment: LCD_WF8B_BPDLCD51_MASK unused
LCD_WF8B_BPDLCD51_SHIFT 00000003




ARM Macro Assembler    Page 154 Alphabetic symbol ordering
Absolute symbols

Symbol: LCD_WF8B_BPDLCD51_SHIFT
   Definitions
      At line 1851 in file MKL46Z4.s
   Uses
      None
Comment: LCD_WF8B_BPDLCD51_SHIFT unused
LCD_WF8B_BPDLCD52_MASK 00000008

Symbol: LCD_WF8B_BPDLCD52_MASK
   Definitions
      At line 1888 in file MKL46Z4.s
   Uses
      None
Comment: LCD_WF8B_BPDLCD52_MASK unused
LCD_WF8B_BPDLCD52_SHIFT 00000003

Symbol: LCD_WF8B_BPDLCD52_SHIFT
   Definitions
      At line 1889 in file MKL46Z4.s
   Uses
      None
Comment: LCD_WF8B_BPDLCD52_SHIFT unused
LCD_WF8B_BPDLCD53_MASK 00000008

Symbol: LCD_WF8B_BPDLCD53_MASK
   Definitions
      At line 1848 in file MKL46Z4.s
   Uses
      None
Comment: LCD_WF8B_BPDLCD53_MASK unused
LCD_WF8B_BPDLCD53_SHIFT 00000003

Symbol: LCD_WF8B_BPDLCD53_SHIFT
   Definitions
      At line 1849 in file MKL46Z4.s
   Uses
      None
Comment: LCD_WF8B_BPDLCD53_SHIFT unused
LCD_WF8B_BPDLCD54_MASK 00000008

Symbol: LCD_WF8B_BPDLCD54_MASK
   Definitions
      At line 1852 in file MKL46Z4.s
   Uses
      None
Comment: LCD_WF8B_BPDLCD54_MASK unused
LCD_WF8B_BPDLCD54_SHIFT 00000003

Symbol: LCD_WF8B_BPDLCD54_SHIFT
   Definitions
      At line 1853 in file MKL46Z4.s
   Uses
      None
Comment: LCD_WF8B_BPDLCD54_SHIFT unused
LCD_WF8B_BPDLCD55_MASK 00000008

Symbol: LCD_WF8B_BPDLCD55_MASK
   Definitions
      At line 1820 in file MKL46Z4.s



ARM Macro Assembler    Page 155 Alphabetic symbol ordering
Absolute symbols

   Uses
      None
Comment: LCD_WF8B_BPDLCD55_MASK unused
LCD_WF8B_BPDLCD55_SHIFT 00000003

Symbol: LCD_WF8B_BPDLCD55_SHIFT
   Definitions
      At line 1821 in file MKL46Z4.s
   Uses
      None
Comment: LCD_WF8B_BPDLCD55_SHIFT unused
LCD_WF8B_BPDLCD56_MASK 00000008

Symbol: LCD_WF8B_BPDLCD56_MASK
   Definitions
      At line 1906 in file MKL46Z4.s
   Uses
      None
Comment: LCD_WF8B_BPDLCD56_MASK unused
LCD_WF8B_BPDLCD56_SHIFT 00000003

Symbol: LCD_WF8B_BPDLCD56_SHIFT
   Definitions
      At line 1907 in file MKL46Z4.s
   Uses
      None
Comment: LCD_WF8B_BPDLCD56_SHIFT unused
LCD_WF8B_BPDLCD57_MASK 00000008

Symbol: LCD_WF8B_BPDLCD57_MASK
   Definitions
      At line 1882 in file MKL46Z4.s
   Uses
      None
Comment: LCD_WF8B_BPDLCD57_MASK unused
LCD_WF8B_BPDLCD57_SHIFT 00000003

Symbol: LCD_WF8B_BPDLCD57_SHIFT
   Definitions
      At line 1883 in file MKL46Z4.s
   Uses
      None
Comment: LCD_WF8B_BPDLCD57_SHIFT unused
LCD_WF8B_BPDLCD58_MASK 00000008

Symbol: LCD_WF8B_BPDLCD58_MASK
   Definitions
      At line 1880 in file MKL46Z4.s
   Uses
      None
Comment: LCD_WF8B_BPDLCD58_MASK unused
LCD_WF8B_BPDLCD58_SHIFT 00000003

Symbol: LCD_WF8B_BPDLCD58_SHIFT
   Definitions
      At line 1881 in file MKL46Z4.s
   Uses
      None
Comment: LCD_WF8B_BPDLCD58_SHIFT unused



ARM Macro Assembler    Page 156 Alphabetic symbol ordering
Absolute symbols

LCD_WF8B_BPDLCD59_MASK 00000008

Symbol: LCD_WF8B_BPDLCD59_MASK
   Definitions
      At line 1822 in file MKL46Z4.s
   Uses
      None
Comment: LCD_WF8B_BPDLCD59_MASK unused
LCD_WF8B_BPDLCD59_SHIFT 00000003

Symbol: LCD_WF8B_BPDLCD59_SHIFT
   Definitions
      At line 1823 in file MKL46Z4.s
   Uses
      None
Comment: LCD_WF8B_BPDLCD59_SHIFT unused
LCD_WF8B_BPDLCD5_MASK 00000008

Symbol: LCD_WF8B_BPDLCD5_MASK
   Definitions
      At line 1824 in file MKL46Z4.s
   Uses
      None
Comment: LCD_WF8B_BPDLCD5_MASK unused
LCD_WF8B_BPDLCD5_SHIFT 00000003

Symbol: LCD_WF8B_BPDLCD5_SHIFT
   Definitions
      At line 1825 in file MKL46Z4.s
   Uses
      None
Comment: LCD_WF8B_BPDLCD5_SHIFT unused
LCD_WF8B_BPDLCD60_MASK 00000008

Symbol: LCD_WF8B_BPDLCD60_MASK
   Definitions
      At line 1804 in file MKL46Z4.s
   Uses
      None
Comment: LCD_WF8B_BPDLCD60_MASK unused
LCD_WF8B_BPDLCD60_SHIFT 00000003

Symbol: LCD_WF8B_BPDLCD60_SHIFT
   Definitions
      At line 1805 in file MKL46Z4.s
   Uses
      None
Comment: LCD_WF8B_BPDLCD60_SHIFT unused
LCD_WF8B_BPDLCD61_MASK 00000008

Symbol: LCD_WF8B_BPDLCD61_MASK
   Definitions
      At line 1840 in file MKL46Z4.s
   Uses
      None
Comment: LCD_WF8B_BPDLCD61_MASK unused
LCD_WF8B_BPDLCD61_SHIFT 00000003

Symbol: LCD_WF8B_BPDLCD61_SHIFT



ARM Macro Assembler    Page 157 Alphabetic symbol ordering
Absolute symbols

   Definitions
      At line 1841 in file MKL46Z4.s
   Uses
      None
Comment: LCD_WF8B_BPDLCD61_SHIFT unused
LCD_WF8B_BPDLCD62_MASK 00000008

Symbol: LCD_WF8B_BPDLCD62_MASK
   Definitions
      At line 1872 in file MKL46Z4.s
   Uses
      None
Comment: LCD_WF8B_BPDLCD62_MASK unused
LCD_WF8B_BPDLCD62_SHIFT 00000003

Symbol: LCD_WF8B_BPDLCD62_SHIFT
   Definitions
      At line 1873 in file MKL46Z4.s
   Uses
      None
Comment: LCD_WF8B_BPDLCD62_SHIFT unused
LCD_WF8B_BPDLCD63_MASK 00000008

Symbol: LCD_WF8B_BPDLCD63_MASK
   Definitions
      At line 1902 in file MKL46Z4.s
   Uses
      None
Comment: LCD_WF8B_BPDLCD63_MASK unused
LCD_WF8B_BPDLCD63_SHIFT 00000003

Symbol: LCD_WF8B_BPDLCD63_SHIFT
   Definitions
      At line 1903 in file MKL46Z4.s
   Uses
      None
Comment: LCD_WF8B_BPDLCD63_SHIFT unused
LCD_WF8B_BPDLCD6_MASK 00000008

Symbol: LCD_WF8B_BPDLCD6_MASK
   Definitions
      At line 1828 in file MKL46Z4.s
   Uses
      None
Comment: LCD_WF8B_BPDLCD6_MASK unused
LCD_WF8B_BPDLCD6_SHIFT 00000003

Symbol: LCD_WF8B_BPDLCD6_SHIFT
   Definitions
      At line 1829 in file MKL46Z4.s
   Uses
      None
Comment: LCD_WF8B_BPDLCD6_SHIFT unused
LCD_WF8B_BPDLCD7_MASK 00000008

Symbol: LCD_WF8B_BPDLCD7_MASK
   Definitions
      At line 1890 in file MKL46Z4.s
   Uses



ARM Macro Assembler    Page 158 Alphabetic symbol ordering
Absolute symbols

      None
Comment: LCD_WF8B_BPDLCD7_MASK unused
LCD_WF8B_BPDLCD7_SHIFT 00000003

Symbol: LCD_WF8B_BPDLCD7_SHIFT
   Definitions
      At line 1891 in file MKL46Z4.s
   Uses
      None
Comment: LCD_WF8B_BPDLCD7_SHIFT unused
LCD_WF8B_BPDLCD8_MASK 00000008

Symbol: LCD_WF8B_BPDLCD8_MASK
   Definitions
      At line 1870 in file MKL46Z4.s
   Uses
      None
Comment: LCD_WF8B_BPDLCD8_MASK unused
LCD_WF8B_BPDLCD8_SHIFT 00000003

Symbol: LCD_WF8B_BPDLCD8_SHIFT
   Definitions
      At line 1871 in file MKL46Z4.s
   Uses
      None
Comment: LCD_WF8B_BPDLCD8_SHIFT unused
LCD_WF8B_BPDLCD9_MASK 00000008

Symbol: LCD_WF8B_BPDLCD9_MASK
   Definitions
      At line 1842 in file MKL46Z4.s
   Uses
      None
Comment: LCD_WF8B_BPDLCD9_MASK unused
LCD_WF8B_BPDLCD9_SHIFT 00000003

Symbol: LCD_WF8B_BPDLCD9_SHIFT
   Definitions
      At line 1843 in file MKL46Z4.s
   Uses
      None
Comment: LCD_WF8B_BPDLCD9_SHIFT unused
LCD_WF8B_BPELCD0_MASK 00000010

Symbol: LCD_WF8B_BPELCD0_MASK
   Definitions
      At line 2030 in file MKL46Z4.s
   Uses
      None
Comment: LCD_WF8B_BPELCD0_MASK unused
LCD_WF8B_BPELCD0_SHIFT 00000004

Symbol: LCD_WF8B_BPELCD0_SHIFT
   Definitions
      At line 2031 in file MKL46Z4.s
   Uses
      None
Comment: LCD_WF8B_BPELCD0_SHIFT unused
LCD_WF8B_BPELCD10_MASK 00000010



ARM Macro Assembler    Page 159 Alphabetic symbol ordering
Absolute symbols


Symbol: LCD_WF8B_BPELCD10_MASK
   Definitions
      At line 1974 in file MKL46Z4.s
   Uses
      None
Comment: LCD_WF8B_BPELCD10_MASK unused
LCD_WF8B_BPELCD10_SHIFT 00000004

Symbol: LCD_WF8B_BPELCD10_SHIFT
   Definitions
      At line 1975 in file MKL46Z4.s
   Uses
      None
Comment: LCD_WF8B_BPELCD10_SHIFT unused
LCD_WF8B_BPELCD11_MASK 00000010

Symbol: LCD_WF8B_BPELCD11_MASK
   Definitions
      At line 1946 in file MKL46Z4.s
   Uses
      None
Comment: LCD_WF8B_BPELCD11_MASK unused
LCD_WF8B_BPELCD11_SHIFT 00000004

Symbol: LCD_WF8B_BPELCD11_SHIFT
   Definitions
      At line 1947 in file MKL46Z4.s
   Uses
      None
Comment: LCD_WF8B_BPELCD11_SHIFT unused
LCD_WF8B_BPELCD12_MASK 00000010

Symbol: LCD_WF8B_BPELCD12_MASK
   Definitions
      At line 1920 in file MKL46Z4.s
   Uses
      None
Comment: LCD_WF8B_BPELCD12_MASK unused
LCD_WF8B_BPELCD12_SHIFT 00000004

Symbol: LCD_WF8B_BPELCD12_SHIFT
   Definitions
      At line 1921 in file MKL46Z4.s
   Uses
      None
Comment: LCD_WF8B_BPELCD12_SHIFT unused
LCD_WF8B_BPELCD13_MASK 00000010

Symbol: LCD_WF8B_BPELCD13_MASK
   Definitions
      At line 1976 in file MKL46Z4.s
   Uses
      None
Comment: LCD_WF8B_BPELCD13_MASK unused
LCD_WF8B_BPELCD13_SHIFT 00000004

Symbol: LCD_WF8B_BPELCD13_SHIFT
   Definitions



ARM Macro Assembler    Page 160 Alphabetic symbol ordering
Absolute symbols

      At line 1977 in file MKL46Z4.s
   Uses
      None
Comment: LCD_WF8B_BPELCD13_SHIFT unused
LCD_WF8B_BPELCD14_MASK 00000010

Symbol: LCD_WF8B_BPELCD14_MASK
   Definitions
      At line 2028 in file MKL46Z4.s
   Uses
      None
Comment: LCD_WF8B_BPELCD14_MASK unused
LCD_WF8B_BPELCD14_SHIFT 00000004

Symbol: LCD_WF8B_BPELCD14_SHIFT
   Definitions
      At line 2029 in file MKL46Z4.s
   Uses
      None
Comment: LCD_WF8B_BPELCD14_SHIFT unused
LCD_WF8B_BPELCD15_MASK 00000010

Symbol: LCD_WF8B_BPELCD15_MASK
   Definitions
      At line 2034 in file MKL46Z4.s
   Uses
      None
Comment: LCD_WF8B_BPELCD15_MASK unused
LCD_WF8B_BPELCD15_SHIFT 00000004

Symbol: LCD_WF8B_BPELCD15_SHIFT
   Definitions
      At line 2035 in file MKL46Z4.s
   Uses
      None
Comment: LCD_WF8B_BPELCD15_SHIFT unused
LCD_WF8B_BPELCD16_MASK 00000010

Symbol: LCD_WF8B_BPELCD16_MASK
   Definitions
      At line 2012 in file MKL46Z4.s
   Uses
      None
Comment: LCD_WF8B_BPELCD16_MASK unused
LCD_WF8B_BPELCD16_SHIFT 00000004

Symbol: LCD_WF8B_BPELCD16_SHIFT
   Definitions
      At line 2013 in file MKL46Z4.s
   Uses
      None
Comment: LCD_WF8B_BPELCD16_SHIFT unused
LCD_WF8B_BPELCD17_MASK 00000010

Symbol: LCD_WF8B_BPELCD17_MASK
   Definitions
      At line 2008 in file MKL46Z4.s
   Uses
      None



ARM Macro Assembler    Page 161 Alphabetic symbol ordering
Absolute symbols

Comment: LCD_WF8B_BPELCD17_MASK unused
LCD_WF8B_BPELCD17_SHIFT 00000004

Symbol: LCD_WF8B_BPELCD17_SHIFT
   Definitions
      At line 2009 in file MKL46Z4.s
   Uses
      None
Comment: LCD_WF8B_BPELCD17_SHIFT unused
LCD_WF8B_BPELCD18_MASK 00000010

Symbol: LCD_WF8B_BPELCD18_MASK
   Definitions
      At line 2004 in file MKL46Z4.s
   Uses
      None
Comment: LCD_WF8B_BPELCD18_MASK unused
LCD_WF8B_BPELCD18_SHIFT 00000004

Symbol: LCD_WF8B_BPELCD18_SHIFT
   Definitions
      At line 2005 in file MKL46Z4.s
   Uses
      None
Comment: LCD_WF8B_BPELCD18_SHIFT unused
LCD_WF8B_BPELCD19_MASK 00000010

Symbol: LCD_WF8B_BPELCD19_MASK
   Definitions
      At line 1998 in file MKL46Z4.s
   Uses
      None
Comment: LCD_WF8B_BPELCD19_MASK unused
LCD_WF8B_BPELCD19_SHIFT 00000004

Symbol: LCD_WF8B_BPELCD19_SHIFT
   Definitions
      At line 1999 in file MKL46Z4.s
   Uses
      None
Comment: LCD_WF8B_BPELCD19_SHIFT unused
LCD_WF8B_BPELCD1_MASK 00000010

Symbol: LCD_WF8B_BPELCD1_MASK
   Definitions
      At line 2020 in file MKL46Z4.s
   Uses
      None
Comment: LCD_WF8B_BPELCD1_MASK unused
LCD_WF8B_BPELCD1_SHIFT 00000004

Symbol: LCD_WF8B_BPELCD1_SHIFT
   Definitions
      At line 2021 in file MKL46Z4.s
   Uses
      None
Comment: LCD_WF8B_BPELCD1_SHIFT unused
LCD_WF8B_BPELCD20_MASK 00000010




ARM Macro Assembler    Page 162 Alphabetic symbol ordering
Absolute symbols

Symbol: LCD_WF8B_BPELCD20_MASK
   Definitions
      At line 1996 in file MKL46Z4.s
   Uses
      None
Comment: LCD_WF8B_BPELCD20_MASK unused
LCD_WF8B_BPELCD20_SHIFT 00000004

Symbol: LCD_WF8B_BPELCD20_SHIFT
   Definitions
      At line 1997 in file MKL46Z4.s
   Uses
      None
Comment: LCD_WF8B_BPELCD20_SHIFT unused
LCD_WF8B_BPELCD21_MASK 00000010

Symbol: LCD_WF8B_BPELCD21_MASK
   Definitions
      At line 1992 in file MKL46Z4.s
   Uses
      None
Comment: LCD_WF8B_BPELCD21_MASK unused
LCD_WF8B_BPELCD21_SHIFT 00000004

Symbol: LCD_WF8B_BPELCD21_SHIFT
   Definitions
      At line 1993 in file MKL46Z4.s
   Uses
      None
Comment: LCD_WF8B_BPELCD21_SHIFT unused
LCD_WF8B_BPELCD22_MASK 00000010

Symbol: LCD_WF8B_BPELCD22_MASK
   Definitions
      At line 1988 in file MKL46Z4.s
   Uses
      None
Comment: LCD_WF8B_BPELCD22_MASK unused
LCD_WF8B_BPELCD22_SHIFT 00000004

Symbol: LCD_WF8B_BPELCD22_SHIFT
   Definitions
      At line 1989 in file MKL46Z4.s
   Uses
      None
Comment: LCD_WF8B_BPELCD22_SHIFT unused
LCD_WF8B_BPELCD23_MASK 00000010

Symbol: LCD_WF8B_BPELCD23_MASK
   Definitions
      At line 1986 in file MKL46Z4.s
   Uses
      None
Comment: LCD_WF8B_BPELCD23_MASK unused
LCD_WF8B_BPELCD23_SHIFT 00000004

Symbol: LCD_WF8B_BPELCD23_SHIFT
   Definitions
      At line 1987 in file MKL46Z4.s



ARM Macro Assembler    Page 163 Alphabetic symbol ordering
Absolute symbols

   Uses
      None
Comment: LCD_WF8B_BPELCD23_SHIFT unused
LCD_WF8B_BPELCD24_MASK 00000010

Symbol: LCD_WF8B_BPELCD24_MASK
   Definitions
      At line 1982 in file MKL46Z4.s
   Uses
      None
Comment: LCD_WF8B_BPELCD24_MASK unused
LCD_WF8B_BPELCD24_SHIFT 00000004

Symbol: LCD_WF8B_BPELCD24_SHIFT
   Definitions
      At line 1983 in file MKL46Z4.s
   Uses
      None
Comment: LCD_WF8B_BPELCD24_SHIFT unused
LCD_WF8B_BPELCD25_MASK 00000010

Symbol: LCD_WF8B_BPELCD25_MASK
   Definitions
      At line 1978 in file MKL46Z4.s
   Uses
      None
Comment: LCD_WF8B_BPELCD25_MASK unused
LCD_WF8B_BPELCD25_SHIFT 00000004

Symbol: LCD_WF8B_BPELCD25_SHIFT
   Definitions
      At line 1979 in file MKL46Z4.s
   Uses
      None
Comment: LCD_WF8B_BPELCD25_SHIFT unused
LCD_WF8B_BPELCD26_MASK 00000010

Symbol: LCD_WF8B_BPELCD26_MASK
   Definitions
      At line 1972 in file MKL46Z4.s
   Uses
      None
Comment: LCD_WF8B_BPELCD26_MASK unused
LCD_WF8B_BPELCD26_SHIFT 00000004

Symbol: LCD_WF8B_BPELCD26_SHIFT
   Definitions
      At line 1973 in file MKL46Z4.s
   Uses
      None
Comment: LCD_WF8B_BPELCD26_SHIFT unused
LCD_WF8B_BPELCD27_MASK 00000010

Symbol: LCD_WF8B_BPELCD27_MASK
   Definitions
      At line 1968 in file MKL46Z4.s
   Uses
      None
Comment: LCD_WF8B_BPELCD27_MASK unused



ARM Macro Assembler    Page 164 Alphabetic symbol ordering
Absolute symbols

LCD_WF8B_BPELCD27_SHIFT 00000004

Symbol: LCD_WF8B_BPELCD27_SHIFT
   Definitions
      At line 1969 in file MKL46Z4.s
   Uses
      None
Comment: LCD_WF8B_BPELCD27_SHIFT unused
LCD_WF8B_BPELCD28_MASK 00000010

Symbol: LCD_WF8B_BPELCD28_MASK
   Definitions
      At line 1964 in file MKL46Z4.s
   Uses
      None
Comment: LCD_WF8B_BPELCD28_MASK unused
LCD_WF8B_BPELCD28_SHIFT 00000004

Symbol: LCD_WF8B_BPELCD28_SHIFT
   Definitions
      At line 1965 in file MKL46Z4.s
   Uses
      None
Comment: LCD_WF8B_BPELCD28_SHIFT unused
LCD_WF8B_BPELCD29_MASK 00000010

Symbol: LCD_WF8B_BPELCD29_MASK
   Definitions
      At line 1958 in file MKL46Z4.s
   Uses
      None
Comment: LCD_WF8B_BPELCD29_MASK unused
LCD_WF8B_BPELCD29_SHIFT 00000004

Symbol: LCD_WF8B_BPELCD29_SHIFT
   Definitions
      At line 1959 in file MKL46Z4.s
   Uses
      None
Comment: LCD_WF8B_BPELCD29_SHIFT unused
LCD_WF8B_BPELCD2_MASK 00000010

Symbol: LCD_WF8B_BPELCD2_MASK
   Definitions
      At line 1966 in file MKL46Z4.s
   Uses
      None
Comment: LCD_WF8B_BPELCD2_MASK unused
LCD_WF8B_BPELCD2_SHIFT 00000004

Symbol: LCD_WF8B_BPELCD2_SHIFT
   Definitions
      At line 1967 in file MKL46Z4.s
   Uses
      None
Comment: LCD_WF8B_BPELCD2_SHIFT unused
LCD_WF8B_BPELCD30_MASK 00000010

Symbol: LCD_WF8B_BPELCD30_MASK



ARM Macro Assembler    Page 165 Alphabetic symbol ordering
Absolute symbols

   Definitions
      At line 1956 in file MKL46Z4.s
   Uses
      None
Comment: LCD_WF8B_BPELCD30_MASK unused
LCD_WF8B_BPELCD30_SHIFT 00000004

Symbol: LCD_WF8B_BPELCD30_SHIFT
   Definitions
      At line 1957 in file MKL46Z4.s
   Uses
      None
Comment: LCD_WF8B_BPELCD30_SHIFT unused
LCD_WF8B_BPELCD31_MASK 00000010

Symbol: LCD_WF8B_BPELCD31_MASK
   Definitions
      At line 1952 in file MKL46Z4.s
   Uses
      None
Comment: LCD_WF8B_BPELCD31_MASK unused
LCD_WF8B_BPELCD31_SHIFT 00000004

Symbol: LCD_WF8B_BPELCD31_SHIFT
   Definitions
      At line 1953 in file MKL46Z4.s
   Uses
      None
Comment: LCD_WF8B_BPELCD31_SHIFT unused
LCD_WF8B_BPELCD32_MASK 00000010

Symbol: LCD_WF8B_BPELCD32_MASK
   Definitions
      At line 1950 in file MKL46Z4.s
   Uses
      None
Comment: LCD_WF8B_BPELCD32_MASK unused
LCD_WF8B_BPELCD32_SHIFT 00000004

Symbol: LCD_WF8B_BPELCD32_SHIFT
   Definitions
      At line 1951 in file MKL46Z4.s
   Uses
      None
Comment: LCD_WF8B_BPELCD32_SHIFT unused
LCD_WF8B_BPELCD33_MASK 00000010

Symbol: LCD_WF8B_BPELCD33_MASK
   Definitions
      At line 1944 in file MKL46Z4.s
   Uses
      None
Comment: LCD_WF8B_BPELCD33_MASK unused
LCD_WF8B_BPELCD33_SHIFT 00000004

Symbol: LCD_WF8B_BPELCD33_SHIFT
   Definitions
      At line 1945 in file MKL46Z4.s
   Uses



ARM Macro Assembler    Page 166 Alphabetic symbol ordering
Absolute symbols

      None
Comment: LCD_WF8B_BPELCD33_SHIFT unused
LCD_WF8B_BPELCD34_MASK 00000010

Symbol: LCD_WF8B_BPELCD34_MASK
   Definitions
      At line 1942 in file MKL46Z4.s
   Uses
      None
Comment: LCD_WF8B_BPELCD34_MASK unused
LCD_WF8B_BPELCD34_SHIFT 00000004

Symbol: LCD_WF8B_BPELCD34_SHIFT
   Definitions
      At line 1943 in file MKL46Z4.s
   Uses
      None
Comment: LCD_WF8B_BPELCD34_SHIFT unused
LCD_WF8B_BPELCD35_MASK 00000010

Symbol: LCD_WF8B_BPELCD35_MASK
   Definitions
      At line 1938 in file MKL46Z4.s
   Uses
      None
Comment: LCD_WF8B_BPELCD35_MASK unused
LCD_WF8B_BPELCD35_SHIFT 00000004

Symbol: LCD_WF8B_BPELCD35_SHIFT
   Definitions
      At line 1939 in file MKL46Z4.s
   Uses
      None
Comment: LCD_WF8B_BPELCD35_SHIFT unused
LCD_WF8B_BPELCD36_MASK 00000010

Symbol: LCD_WF8B_BPELCD36_MASK
   Definitions
      At line 1934 in file MKL46Z4.s
   Uses
      None
Comment: LCD_WF8B_BPELCD36_MASK unused
LCD_WF8B_BPELCD36_SHIFT 00000004

Symbol: LCD_WF8B_BPELCD36_SHIFT
   Definitions
      At line 1935 in file MKL46Z4.s
   Uses
      None
Comment: LCD_WF8B_BPELCD36_SHIFT unused
LCD_WF8B_BPELCD37_MASK 00000010

Symbol: LCD_WF8B_BPELCD37_MASK
   Definitions
      At line 1930 in file MKL46Z4.s
   Uses
      None
Comment: LCD_WF8B_BPELCD37_MASK unused
LCD_WF8B_BPELCD37_SHIFT 00000004



ARM Macro Assembler    Page 167 Alphabetic symbol ordering
Absolute symbols


Symbol: LCD_WF8B_BPELCD37_SHIFT
   Definitions
      At line 1931 in file MKL46Z4.s
   Uses
      None
Comment: LCD_WF8B_BPELCD37_SHIFT unused
LCD_WF8B_BPELCD38_MASK 00000010

Symbol: LCD_WF8B_BPELCD38_MASK
   Definitions
      At line 1926 in file MKL46Z4.s
   Uses
      None
Comment: LCD_WF8B_BPELCD38_MASK unused
LCD_WF8B_BPELCD38_SHIFT 00000004

Symbol: LCD_WF8B_BPELCD38_SHIFT
   Definitions
      At line 1927 in file MKL46Z4.s
   Uses
      None
Comment: LCD_WF8B_BPELCD38_SHIFT unused
LCD_WF8B_BPELCD39_MASK 00000010

Symbol: LCD_WF8B_BPELCD39_MASK
   Definitions
      At line 1922 in file MKL46Z4.s
   Uses
      None
Comment: LCD_WF8B_BPELCD39_MASK unused
LCD_WF8B_BPELCD39_SHIFT 00000004

Symbol: LCD_WF8B_BPELCD39_SHIFT
   Definitions
      At line 1923 in file MKL46Z4.s
   Uses
      None
Comment: LCD_WF8B_BPELCD39_SHIFT unused
LCD_WF8B_BPELCD3_MASK 00000010

Symbol: LCD_WF8B_BPELCD3_MASK
   Definitions
      At line 1924 in file MKL46Z4.s
   Uses
      None
Comment: LCD_WF8B_BPELCD3_MASK unused
LCD_WF8B_BPELCD3_SHIFT 00000004

Symbol: LCD_WF8B_BPELCD3_SHIFT
   Definitions
      At line 1925 in file MKL46Z4.s
   Uses
      None
Comment: LCD_WF8B_BPELCD3_SHIFT unused
LCD_WF8B_BPELCD40_MASK 00000010

Symbol: LCD_WF8B_BPELCD40_MASK
   Definitions



ARM Macro Assembler    Page 168 Alphabetic symbol ordering
Absolute symbols

      At line 1928 in file MKL46Z4.s
   Uses
      None
Comment: LCD_WF8B_BPELCD40_MASK unused
LCD_WF8B_BPELCD40_SHIFT 00000004

Symbol: LCD_WF8B_BPELCD40_SHIFT
   Definitions
      At line 1929 in file MKL46Z4.s
   Uses
      None
Comment: LCD_WF8B_BPELCD40_SHIFT unused
LCD_WF8B_BPELCD41_MASK 00000010

Symbol: LCD_WF8B_BPELCD41_MASK
   Definitions
      At line 1932 in file MKL46Z4.s
   Uses
      None
Comment: LCD_WF8B_BPELCD41_MASK unused
LCD_WF8B_BPELCD41_SHIFT 00000004

Symbol: LCD_WF8B_BPELCD41_SHIFT
   Definitions
      At line 1933 in file MKL46Z4.s
   Uses
      None
Comment: LCD_WF8B_BPELCD41_SHIFT unused
LCD_WF8B_BPELCD42_MASK 00000010

Symbol: LCD_WF8B_BPELCD42_MASK
   Definitions
      At line 1940 in file MKL46Z4.s
   Uses
      None
Comment: LCD_WF8B_BPELCD42_MASK unused
LCD_WF8B_BPELCD42_SHIFT 00000004

Symbol: LCD_WF8B_BPELCD42_SHIFT
   Definitions
      At line 1941 in file MKL46Z4.s
   Uses
      None
Comment: LCD_WF8B_BPELCD42_SHIFT unused
LCD_WF8B_BPELCD43_MASK 00000010

Symbol: LCD_WF8B_BPELCD43_MASK
   Definitions
      At line 1948 in file MKL46Z4.s
   Uses
      None
Comment: LCD_WF8B_BPELCD43_MASK unused
LCD_WF8B_BPELCD43_SHIFT 00000004

Symbol: LCD_WF8B_BPELCD43_SHIFT
   Definitions
      At line 1949 in file MKL46Z4.s
   Uses
      None



ARM Macro Assembler    Page 169 Alphabetic symbol ordering
Absolute symbols

Comment: LCD_WF8B_BPELCD43_SHIFT unused
LCD_WF8B_BPELCD44_MASK 00000010

Symbol: LCD_WF8B_BPELCD44_MASK
   Definitions
      At line 1954 in file MKL46Z4.s
   Uses
      None
Comment: LCD_WF8B_BPELCD44_MASK unused
LCD_WF8B_BPELCD44_SHIFT 00000004

Symbol: LCD_WF8B_BPELCD44_SHIFT
   Definitions
      At line 1955 in file MKL46Z4.s
   Uses
      None
Comment: LCD_WF8B_BPELCD44_SHIFT unused
LCD_WF8B_BPELCD45_MASK 00000010

Symbol: LCD_WF8B_BPELCD45_MASK
   Definitions
      At line 1962 in file MKL46Z4.s
   Uses
      None
Comment: LCD_WF8B_BPELCD45_MASK unused
LCD_WF8B_BPELCD45_SHIFT 00000004

Symbol: LCD_WF8B_BPELCD45_SHIFT
   Definitions
      At line 1963 in file MKL46Z4.s
   Uses
      None
Comment: LCD_WF8B_BPELCD45_SHIFT unused
LCD_WF8B_BPELCD46_MASK 00000010

Symbol: LCD_WF8B_BPELCD46_MASK
   Definitions
      At line 1970 in file MKL46Z4.s
   Uses
      None
Comment: LCD_WF8B_BPELCD46_MASK unused
LCD_WF8B_BPELCD46_SHIFT 00000004

Symbol: LCD_WF8B_BPELCD46_SHIFT
   Definitions
      At line 1971 in file MKL46Z4.s
   Uses
      None
Comment: LCD_WF8B_BPELCD46_SHIFT unused
LCD_WF8B_BPELCD47_MASK 00000010

Symbol: LCD_WF8B_BPELCD47_MASK
   Definitions
      At line 1984 in file MKL46Z4.s
   Uses
      None
Comment: LCD_WF8B_BPELCD47_MASK unused
LCD_WF8B_BPELCD47_SHIFT 00000004




ARM Macro Assembler    Page 170 Alphabetic symbol ordering
Absolute symbols

Symbol: LCD_WF8B_BPELCD47_SHIFT
   Definitions
      At line 1985 in file MKL46Z4.s
   Uses
      None
Comment: LCD_WF8B_BPELCD47_SHIFT unused
LCD_WF8B_BPELCD48_MASK 00000010

Symbol: LCD_WF8B_BPELCD48_MASK
   Definitions
      At line 1990 in file MKL46Z4.s
   Uses
      None
Comment: LCD_WF8B_BPELCD48_MASK unused
LCD_WF8B_BPELCD48_SHIFT 00000004

Symbol: LCD_WF8B_BPELCD48_SHIFT
   Definitions
      At line 1991 in file MKL46Z4.s
   Uses
      None
Comment: LCD_WF8B_BPELCD48_SHIFT unused
LCD_WF8B_BPELCD49_MASK 00000010

Symbol: LCD_WF8B_BPELCD49_MASK
   Definitions
      At line 1994 in file MKL46Z4.s
   Uses
      None
Comment: LCD_WF8B_BPELCD49_MASK unused
LCD_WF8B_BPELCD49_SHIFT 00000004

Symbol: LCD_WF8B_BPELCD49_SHIFT
   Definitions
      At line 1995 in file MKL46Z4.s
   Uses
      None
Comment: LCD_WF8B_BPELCD49_SHIFT unused
LCD_WF8B_BPELCD4_MASK 00000010

Symbol: LCD_WF8B_BPELCD4_MASK
   Definitions
      At line 2046 in file MKL46Z4.s
   Uses
      None
Comment: LCD_WF8B_BPELCD4_MASK unused
LCD_WF8B_BPELCD4_SHIFT 00000004

Symbol: LCD_WF8B_BPELCD4_SHIFT
   Definitions
      At line 2047 in file MKL46Z4.s
   Uses
      None
Comment: LCD_WF8B_BPELCD4_SHIFT unused
LCD_WF8B_BPELCD50_MASK 00000010

Symbol: LCD_WF8B_BPELCD50_MASK
   Definitions
      At line 2002 in file MKL46Z4.s



ARM Macro Assembler    Page 171 Alphabetic symbol ordering
Absolute symbols

   Uses
      None
Comment: LCD_WF8B_BPELCD50_MASK unused
LCD_WF8B_BPELCD50_SHIFT 00000004

Symbol: LCD_WF8B_BPELCD50_SHIFT
   Definitions
      At line 2003 in file MKL46Z4.s
   Uses
      None
Comment: LCD_WF8B_BPELCD50_SHIFT unused
LCD_WF8B_BPELCD51_MASK 00000010

Symbol: LCD_WF8B_BPELCD51_MASK
   Definitions
      At line 2010 in file MKL46Z4.s
   Uses
      None
Comment: LCD_WF8B_BPELCD51_MASK unused
LCD_WF8B_BPELCD51_SHIFT 00000004

Symbol: LCD_WF8B_BPELCD51_SHIFT
   Definitions
      At line 2011 in file MKL46Z4.s
   Uses
      None
Comment: LCD_WF8B_BPELCD51_SHIFT unused
LCD_WF8B_BPELCD52_MASK 00000010

Symbol: LCD_WF8B_BPELCD52_MASK
   Definitions
      At line 2018 in file MKL46Z4.s
   Uses
      None
Comment: LCD_WF8B_BPELCD52_MASK unused
LCD_WF8B_BPELCD52_SHIFT 00000004

Symbol: LCD_WF8B_BPELCD52_SHIFT
   Definitions
      At line 2019 in file MKL46Z4.s
   Uses
      None
Comment: LCD_WF8B_BPELCD52_SHIFT unused
LCD_WF8B_BPELCD53_MASK 00000010

Symbol: LCD_WF8B_BPELCD53_MASK
   Definitions
      At line 2026 in file MKL46Z4.s
   Uses
      None
Comment: LCD_WF8B_BPELCD53_MASK unused
LCD_WF8B_BPELCD53_SHIFT 00000004

Symbol: LCD_WF8B_BPELCD53_SHIFT
   Definitions
      At line 2027 in file MKL46Z4.s
   Uses
      None
Comment: LCD_WF8B_BPELCD53_SHIFT unused



ARM Macro Assembler    Page 172 Alphabetic symbol ordering
Absolute symbols

LCD_WF8B_BPELCD54_MASK 00000010

Symbol: LCD_WF8B_BPELCD54_MASK
   Definitions
      At line 2038 in file MKL46Z4.s
   Uses
      None
Comment: LCD_WF8B_BPELCD54_MASK unused
LCD_WF8B_BPELCD54_SHIFT 00000004

Symbol: LCD_WF8B_BPELCD54_SHIFT
   Definitions
      At line 2039 in file MKL46Z4.s
   Uses
      None
Comment: LCD_WF8B_BPELCD54_SHIFT unused
LCD_WF8B_BPELCD55_MASK 00000010

Symbol: LCD_WF8B_BPELCD55_MASK
   Definitions
      At line 2044 in file MKL46Z4.s
   Uses
      None
Comment: LCD_WF8B_BPELCD55_MASK unused
LCD_WF8B_BPELCD55_SHIFT 00000004

Symbol: LCD_WF8B_BPELCD55_SHIFT
   Definitions
      At line 2045 in file MKL46Z4.s
   Uses
      None
Comment: LCD_WF8B_BPELCD55_SHIFT unused
LCD_WF8B_BPELCD56_MASK 00000010

Symbol: LCD_WF8B_BPELCD56_MASK
   Definitions
      At line 2014 in file MKL46Z4.s
   Uses
      None
Comment: LCD_WF8B_BPELCD56_MASK unused
LCD_WF8B_BPELCD56_SHIFT 00000004

Symbol: LCD_WF8B_BPELCD56_SHIFT
   Definitions
      At line 2015 in file MKL46Z4.s
   Uses
      None
Comment: LCD_WF8B_BPELCD56_SHIFT unused
LCD_WF8B_BPELCD57_MASK 00000010

Symbol: LCD_WF8B_BPELCD57_MASK
   Definitions
      At line 2016 in file MKL46Z4.s
   Uses
      None
Comment: LCD_WF8B_BPELCD57_MASK unused
LCD_WF8B_BPELCD57_SHIFT 00000004

Symbol: LCD_WF8B_BPELCD57_SHIFT



ARM Macro Assembler    Page 173 Alphabetic symbol ordering
Absolute symbols

   Definitions
      At line 2017 in file MKL46Z4.s
   Uses
      None
Comment: LCD_WF8B_BPELCD57_SHIFT unused
LCD_WF8B_BPELCD58_MASK 00000010

Symbol: LCD_WF8B_BPELCD58_MASK
   Definitions
      At line 2022 in file MKL46Z4.s
   Uses
      None
Comment: LCD_WF8B_BPELCD58_MASK unused
LCD_WF8B_BPELCD58_SHIFT 00000004

Symbol: LCD_WF8B_BPELCD58_SHIFT
   Definitions
      At line 2023 in file MKL46Z4.s
   Uses
      None
Comment: LCD_WF8B_BPELCD58_SHIFT unused
LCD_WF8B_BPELCD59_MASK 00000010

Symbol: LCD_WF8B_BPELCD59_MASK
   Definitions
      At line 2024 in file MKL46Z4.s
   Uses
      None
Comment: LCD_WF8B_BPELCD59_MASK unused
LCD_WF8B_BPELCD59_SHIFT 00000004

Symbol: LCD_WF8B_BPELCD59_SHIFT
   Definitions
      At line 2025 in file MKL46Z4.s
   Uses
      None
Comment: LCD_WF8B_BPELCD59_SHIFT unused
LCD_WF8B_BPELCD5_MASK 00000010

Symbol: LCD_WF8B_BPELCD5_MASK
   Definitions
      At line 1980 in file MKL46Z4.s
   Uses
      None
Comment: LCD_WF8B_BPELCD5_MASK unused
LCD_WF8B_BPELCD5_SHIFT 00000004

Symbol: LCD_WF8B_BPELCD5_SHIFT
   Definitions
      At line 1981 in file MKL46Z4.s
   Uses
      None
Comment: LCD_WF8B_BPELCD5_SHIFT unused
LCD_WF8B_BPELCD60_MASK 00000010

Symbol: LCD_WF8B_BPELCD60_MASK
   Definitions
      At line 2032 in file MKL46Z4.s
   Uses



ARM Macro Assembler    Page 174 Alphabetic symbol ordering
Absolute symbols

      None
Comment: LCD_WF8B_BPELCD60_MASK unused
LCD_WF8B_BPELCD60_SHIFT 00000004

Symbol: LCD_WF8B_BPELCD60_SHIFT
   Definitions
      At line 2033 in file MKL46Z4.s
   Uses
      None
Comment: LCD_WF8B_BPELCD60_SHIFT unused
LCD_WF8B_BPELCD61_MASK 00000010

Symbol: LCD_WF8B_BPELCD61_MASK
   Definitions
      At line 2036 in file MKL46Z4.s
   Uses
      None
Comment: LCD_WF8B_BPELCD61_MASK unused
LCD_WF8B_BPELCD61_SHIFT 00000004

Symbol: LCD_WF8B_BPELCD61_SHIFT
   Definitions
      At line 2037 in file MKL46Z4.s
   Uses
      None
Comment: LCD_WF8B_BPELCD61_SHIFT unused
LCD_WF8B_BPELCD62_MASK 00000010

Symbol: LCD_WF8B_BPELCD62_MASK
   Definitions
      At line 2040 in file MKL46Z4.s
   Uses
      None
Comment: LCD_WF8B_BPELCD62_MASK unused
LCD_WF8B_BPELCD62_SHIFT 00000004

Symbol: LCD_WF8B_BPELCD62_SHIFT
   Definitions
      At line 2041 in file MKL46Z4.s
   Uses
      None
Comment: LCD_WF8B_BPELCD62_SHIFT unused
LCD_WF8B_BPELCD63_MASK 00000010

Symbol: LCD_WF8B_BPELCD63_MASK
   Definitions
      At line 2042 in file MKL46Z4.s
   Uses
      None
Comment: LCD_WF8B_BPELCD63_MASK unused
LCD_WF8B_BPELCD63_SHIFT 00000004

Symbol: LCD_WF8B_BPELCD63_SHIFT
   Definitions
      At line 2043 in file MKL46Z4.s
   Uses
      None
Comment: LCD_WF8B_BPELCD63_SHIFT unused
LCD_WF8B_BPELCD6_MASK 00000010



ARM Macro Assembler    Page 175 Alphabetic symbol ordering
Absolute symbols


Symbol: LCD_WF8B_BPELCD6_MASK
   Definitions
      At line 2006 in file MKL46Z4.s
   Uses
      None
Comment: LCD_WF8B_BPELCD6_MASK unused
LCD_WF8B_BPELCD6_SHIFT 00000004

Symbol: LCD_WF8B_BPELCD6_SHIFT
   Definitions
      At line 2007 in file MKL46Z4.s
   Uses
      None
Comment: LCD_WF8B_BPELCD6_SHIFT unused
LCD_WF8B_BPELCD7_MASK 00000010

Symbol: LCD_WF8B_BPELCD7_MASK
   Definitions
      At line 1960 in file MKL46Z4.s
   Uses
      None
Comment: LCD_WF8B_BPELCD7_MASK unused
LCD_WF8B_BPELCD7_SHIFT 00000004

Symbol: LCD_WF8B_BPELCD7_SHIFT
   Definitions
      At line 1961 in file MKL46Z4.s
   Uses
      None
Comment: LCD_WF8B_BPELCD7_SHIFT unused
LCD_WF8B_BPELCD8_MASK 00000010

Symbol: LCD_WF8B_BPELCD8_MASK
   Definitions
      At line 1936 in file MKL46Z4.s
   Uses
      None
Comment: LCD_WF8B_BPELCD8_MASK unused
LCD_WF8B_BPELCD8_SHIFT 00000004

Symbol: LCD_WF8B_BPELCD8_SHIFT
   Definitions
      At line 1937 in file MKL46Z4.s
   Uses
      None
Comment: LCD_WF8B_BPELCD8_SHIFT unused
LCD_WF8B_BPELCD9_MASK 00000010

Symbol: LCD_WF8B_BPELCD9_MASK
   Definitions
      At line 2000 in file MKL46Z4.s
   Uses
      None
Comment: LCD_WF8B_BPELCD9_MASK unused
LCD_WF8B_BPELCD9_SHIFT 00000004

Symbol: LCD_WF8B_BPELCD9_SHIFT
   Definitions



ARM Macro Assembler    Page 176 Alphabetic symbol ordering
Absolute symbols

      At line 2001 in file MKL46Z4.s
   Uses
      None
Comment: LCD_WF8B_BPELCD9_SHIFT unused
LCD_WF8B_BPFLCD0_MASK 00000020

Symbol: LCD_WF8B_BPFLCD0_MASK
   Definitions
      At line 2088 in file MKL46Z4.s
   Uses
      None
Comment: LCD_WF8B_BPFLCD0_MASK unused
LCD_WF8B_BPFLCD0_SHIFT 00000005

Symbol: LCD_WF8B_BPFLCD0_SHIFT
   Definitions
      At line 2089 in file MKL46Z4.s
   Uses
      None
Comment: LCD_WF8B_BPFLCD0_SHIFT unused
LCD_WF8B_BPFLCD10_MASK 00000020

Symbol: LCD_WF8B_BPFLCD10_MASK
   Definitions
      At line 2098 in file MKL46Z4.s
   Uses
      None
Comment: LCD_WF8B_BPFLCD10_MASK unused
LCD_WF8B_BPFLCD10_SHIFT 00000005

Symbol: LCD_WF8B_BPFLCD10_SHIFT
   Definitions
      At line 2099 in file MKL46Z4.s
   Uses
      None
Comment: LCD_WF8B_BPFLCD10_SHIFT unused
LCD_WF8B_BPFLCD11_MASK 00000020

Symbol: LCD_WF8B_BPFLCD11_MASK
   Definitions
      At line 2106 in file MKL46Z4.s
   Uses
      None
Comment: LCD_WF8B_BPFLCD11_MASK unused
LCD_WF8B_BPFLCD11_SHIFT 00000005

Symbol: LCD_WF8B_BPFLCD11_SHIFT
   Definitions
      At line 2107 in file MKL46Z4.s
   Uses
      None
Comment: LCD_WF8B_BPFLCD11_SHIFT unused
LCD_WF8B_BPFLCD12_MASK 00000020

Symbol: LCD_WF8B_BPFLCD12_MASK
   Definitions
      At line 2172 in file MKL46Z4.s
   Uses
      None



ARM Macro Assembler    Page 177 Alphabetic symbol ordering
Absolute symbols

Comment: LCD_WF8B_BPFLCD12_MASK unused
LCD_WF8B_BPFLCD12_SHIFT 00000005

Symbol: LCD_WF8B_BPFLCD12_SHIFT
   Definitions
      At line 2173 in file MKL46Z4.s
   Uses
      None
Comment: LCD_WF8B_BPFLCD12_SHIFT unused
LCD_WF8B_BPFLCD13_MASK 00000020

Symbol: LCD_WF8B_BPFLCD13_MASK
   Definitions
      At line 2048 in file MKL46Z4.s
   Uses
      None
Comment: LCD_WF8B_BPFLCD13_MASK unused
LCD_WF8B_BPFLCD13_SHIFT 00000005

Symbol: LCD_WF8B_BPFLCD13_SHIFT
   Definitions
      At line 2049 in file MKL46Z4.s
   Uses
      None
Comment: LCD_WF8B_BPFLCD13_SHIFT unused
LCD_WF8B_BPFLCD14_MASK 00000020

Symbol: LCD_WF8B_BPFLCD14_MASK
   Definitions
      At line 2064 in file MKL46Z4.s
   Uses
      None
Comment: LCD_WF8B_BPFLCD14_MASK unused
LCD_WF8B_BPFLCD14_SHIFT 00000005

Symbol: LCD_WF8B_BPFLCD14_SHIFT
   Definitions
      At line 2065 in file MKL46Z4.s
   Uses
      None
Comment: LCD_WF8B_BPFLCD14_SHIFT unused
LCD_WF8B_BPFLCD15_MASK 00000020

Symbol: LCD_WF8B_BPFLCD15_MASK
   Definitions
      At line 2070 in file MKL46Z4.s
   Uses
      None
Comment: LCD_WF8B_BPFLCD15_MASK unused
LCD_WF8B_BPFLCD15_SHIFT 00000005

Symbol: LCD_WF8B_BPFLCD15_SHIFT
   Definitions
      At line 2071 in file MKL46Z4.s
   Uses
      None
Comment: LCD_WF8B_BPFLCD15_SHIFT unused
LCD_WF8B_BPFLCD16_MASK 00000020




ARM Macro Assembler    Page 178 Alphabetic symbol ordering
Absolute symbols

Symbol: LCD_WF8B_BPFLCD16_MASK
   Definitions
      At line 2118 in file MKL46Z4.s
   Uses
      None
Comment: LCD_WF8B_BPFLCD16_MASK unused
LCD_WF8B_BPFLCD16_SHIFT 00000005

Symbol: LCD_WF8B_BPFLCD16_SHIFT
   Definitions
      At line 2119 in file MKL46Z4.s
   Uses
      None
Comment: LCD_WF8B_BPFLCD16_SHIFT unused
LCD_WF8B_BPFLCD17_MASK 00000020

Symbol: LCD_WF8B_BPFLCD17_MASK
   Definitions
      At line 2124 in file MKL46Z4.s
   Uses
      None
Comment: LCD_WF8B_BPFLCD17_MASK unused
LCD_WF8B_BPFLCD17_SHIFT 00000005

Symbol: LCD_WF8B_BPFLCD17_SHIFT
   Definitions
      At line 2125 in file MKL46Z4.s
   Uses
      None
Comment: LCD_WF8B_BPFLCD17_SHIFT unused
LCD_WF8B_BPFLCD18_MASK 00000020

Symbol: LCD_WF8B_BPFLCD18_MASK
   Definitions
      At line 2134 in file MKL46Z4.s
   Uses
      None
Comment: LCD_WF8B_BPFLCD18_MASK unused
LCD_WF8B_BPFLCD18_SHIFT 00000005

Symbol: LCD_WF8B_BPFLCD18_SHIFT
   Definitions
      At line 2135 in file MKL46Z4.s
   Uses
      None
Comment: LCD_WF8B_BPFLCD18_SHIFT unused
LCD_WF8B_BPFLCD19_MASK 00000020

Symbol: LCD_WF8B_BPFLCD19_MASK
   Definitions
      At line 2138 in file MKL46Z4.s
   Uses
      None
Comment: LCD_WF8B_BPFLCD19_MASK unused
LCD_WF8B_BPFLCD19_SHIFT 00000005

Symbol: LCD_WF8B_BPFLCD19_SHIFT
   Definitions
      At line 2139 in file MKL46Z4.s



ARM Macro Assembler    Page 179 Alphabetic symbol ordering
Absolute symbols

   Uses
      None
Comment: LCD_WF8B_BPFLCD19_SHIFT unused
LCD_WF8B_BPFLCD1_MASK 00000020

Symbol: LCD_WF8B_BPFLCD1_MASK
   Definitions
      At line 2110 in file MKL46Z4.s
   Uses
      None
Comment: LCD_WF8B_BPFLCD1_MASK unused
LCD_WF8B_BPFLCD1_SHIFT 00000005

Symbol: LCD_WF8B_BPFLCD1_SHIFT
   Definitions
      At line 2111 in file MKL46Z4.s
   Uses
      None
Comment: LCD_WF8B_BPFLCD1_SHIFT unused
LCD_WF8B_BPFLCD20_MASK 00000020

Symbol: LCD_WF8B_BPFLCD20_MASK
   Definitions
      At line 2150 in file MKL46Z4.s
   Uses
      None
Comment: LCD_WF8B_BPFLCD20_MASK unused
LCD_WF8B_BPFLCD20_SHIFT 00000005

Symbol: LCD_WF8B_BPFLCD20_SHIFT
   Definitions
      At line 2151 in file MKL46Z4.s
   Uses
      None
Comment: LCD_WF8B_BPFLCD20_SHIFT unused
LCD_WF8B_BPFLCD21_MASK 00000020

Symbol: LCD_WF8B_BPFLCD21_MASK
   Definitions
      At line 2156 in file MKL46Z4.s
   Uses
      None
Comment: LCD_WF8B_BPFLCD21_MASK unused
LCD_WF8B_BPFLCD21_SHIFT 00000005

Symbol: LCD_WF8B_BPFLCD21_SHIFT
   Definitions
      At line 2157 in file MKL46Z4.s
   Uses
      None
Comment: LCD_WF8B_BPFLCD21_SHIFT unused
LCD_WF8B_BPFLCD22_MASK 00000020

Symbol: LCD_WF8B_BPFLCD22_MASK
   Definitions
      At line 2168 in file MKL46Z4.s
   Uses
      None
Comment: LCD_WF8B_BPFLCD22_MASK unused



ARM Macro Assembler    Page 180 Alphabetic symbol ordering
Absolute symbols

LCD_WF8B_BPFLCD22_SHIFT 00000005

Symbol: LCD_WF8B_BPFLCD22_SHIFT
   Definitions
      At line 2169 in file MKL46Z4.s
   Uses
      None
Comment: LCD_WF8B_BPFLCD22_SHIFT unused
LCD_WF8B_BPFLCD23_MASK 00000020

Symbol: LCD_WF8B_BPFLCD23_MASK
   Definitions
      At line 2174 in file MKL46Z4.s
   Uses
      None
Comment: LCD_WF8B_BPFLCD23_MASK unused
LCD_WF8B_BPFLCD23_SHIFT 00000005

Symbol: LCD_WF8B_BPFLCD23_SHIFT
   Definitions
      At line 2175 in file MKL46Z4.s
   Uses
      None
Comment: LCD_WF8B_BPFLCD23_SHIFT unused
LCD_WF8B_BPFLCD24_MASK 00000020

Symbol: LCD_WF8B_BPFLCD24_MASK
   Definitions
      At line 2066 in file MKL46Z4.s
   Uses
      None
Comment: LCD_WF8B_BPFLCD24_MASK unused
LCD_WF8B_BPFLCD24_SHIFT 00000005

Symbol: LCD_WF8B_BPFLCD24_SHIFT
   Definitions
      At line 2067 in file MKL46Z4.s
   Uses
      None
Comment: LCD_WF8B_BPFLCD24_SHIFT unused
LCD_WF8B_BPFLCD25_MASK 00000020

Symbol: LCD_WF8B_BPFLCD25_MASK
   Definitions
      At line 2076 in file MKL46Z4.s
   Uses
      None
Comment: LCD_WF8B_BPFLCD25_MASK unused
LCD_WF8B_BPFLCD25_SHIFT 00000005

Symbol: LCD_WF8B_BPFLCD25_SHIFT
   Definitions
      At line 2077 in file MKL46Z4.s
   Uses
      None
Comment: LCD_WF8B_BPFLCD25_SHIFT unused
LCD_WF8B_BPFLCD26_MASK 00000020

Symbol: LCD_WF8B_BPFLCD26_MASK



ARM Macro Assembler    Page 181 Alphabetic symbol ordering
Absolute symbols

   Definitions
      At line 2094 in file MKL46Z4.s
   Uses
      None
Comment: LCD_WF8B_BPFLCD26_MASK unused
LCD_WF8B_BPFLCD26_SHIFT 00000005

Symbol: LCD_WF8B_BPFLCD26_SHIFT
   Definitions
      At line 2095 in file MKL46Z4.s
   Uses
      None
Comment: LCD_WF8B_BPFLCD26_SHIFT unused
LCD_WF8B_BPFLCD27_MASK 00000020

Symbol: LCD_WF8B_BPFLCD27_MASK
   Definitions
      At line 2104 in file MKL46Z4.s
   Uses
      None
Comment: LCD_WF8B_BPFLCD27_MASK unused
LCD_WF8B_BPFLCD27_SHIFT 00000005

Symbol: LCD_WF8B_BPFLCD27_SHIFT
   Definitions
      At line 2105 in file MKL46Z4.s
   Uses
      None
Comment: LCD_WF8B_BPFLCD27_SHIFT unused
LCD_WF8B_BPFLCD28_MASK 00000020

Symbol: LCD_WF8B_BPFLCD28_MASK
   Definitions
      At line 2126 in file MKL46Z4.s
   Uses
      None
Comment: LCD_WF8B_BPFLCD28_MASK unused
LCD_WF8B_BPFLCD28_SHIFT 00000005

Symbol: LCD_WF8B_BPFLCD28_SHIFT
   Definitions
      At line 2127 in file MKL46Z4.s
   Uses
      None
Comment: LCD_WF8B_BPFLCD28_SHIFT unused
LCD_WF8B_BPFLCD29_MASK 00000020

Symbol: LCD_WF8B_BPFLCD29_MASK
   Definitions
      At line 2130 in file MKL46Z4.s
   Uses
      None
Comment: LCD_WF8B_BPFLCD29_MASK unused
LCD_WF8B_BPFLCD29_SHIFT 00000005

Symbol: LCD_WF8B_BPFLCD29_SHIFT
   Definitions
      At line 2131 in file MKL46Z4.s
   Uses



ARM Macro Assembler    Page 182 Alphabetic symbol ordering
Absolute symbols

      None
Comment: LCD_WF8B_BPFLCD29_SHIFT unused
LCD_WF8B_BPFLCD2_MASK 00000020

Symbol: LCD_WF8B_BPFLCD2_MASK
   Definitions
      At line 2140 in file MKL46Z4.s
   Uses
      None
Comment: LCD_WF8B_BPFLCD2_MASK unused
LCD_WF8B_BPFLCD2_SHIFT 00000005

Symbol: LCD_WF8B_BPFLCD2_SHIFT
   Definitions
      At line 2141 in file MKL46Z4.s
   Uses
      None
Comment: LCD_WF8B_BPFLCD2_SHIFT unused
LCD_WF8B_BPFLCD30_MASK 00000020

Symbol: LCD_WF8B_BPFLCD30_MASK
   Definitions
      At line 2154 in file MKL46Z4.s
   Uses
      None
Comment: LCD_WF8B_BPFLCD30_MASK unused
LCD_WF8B_BPFLCD30_SHIFT 00000005

Symbol: LCD_WF8B_BPFLCD30_SHIFT
   Definitions
      At line 2155 in file MKL46Z4.s
   Uses
      None
Comment: LCD_WF8B_BPFLCD30_SHIFT unused
LCD_WF8B_BPFLCD31_MASK 00000020

Symbol: LCD_WF8B_BPFLCD31_MASK
   Definitions
      At line 2162 in file MKL46Z4.s
   Uses
      None
Comment: LCD_WF8B_BPFLCD31_MASK unused
LCD_WF8B_BPFLCD31_SHIFT 00000005

Symbol: LCD_WF8B_BPFLCD31_SHIFT
   Definitions
      At line 2163 in file MKL46Z4.s
   Uses
      None
Comment: LCD_WF8B_BPFLCD31_SHIFT unused
LCD_WF8B_BPFLCD32_MASK 00000020

Symbol: LCD_WF8B_BPFLCD32_MASK
   Definitions
      At line 2072 in file MKL46Z4.s
   Uses
      None
Comment: LCD_WF8B_BPFLCD32_MASK unused
LCD_WF8B_BPFLCD32_SHIFT 00000005



ARM Macro Assembler    Page 183 Alphabetic symbol ordering
Absolute symbols


Symbol: LCD_WF8B_BPFLCD32_SHIFT
   Definitions
      At line 2073 in file MKL46Z4.s
   Uses
      None
Comment: LCD_WF8B_BPFLCD32_SHIFT unused
LCD_WF8B_BPFLCD33_MASK 00000020

Symbol: LCD_WF8B_BPFLCD33_MASK
   Definitions
      At line 2082 in file MKL46Z4.s
   Uses
      None
Comment: LCD_WF8B_BPFLCD33_MASK unused
LCD_WF8B_BPFLCD33_SHIFT 00000005

Symbol: LCD_WF8B_BPFLCD33_SHIFT
   Definitions
      At line 2083 in file MKL46Z4.s
   Uses
      None
Comment: LCD_WF8B_BPFLCD33_SHIFT unused
LCD_WF8B_BPFLCD34_MASK 00000020

Symbol: LCD_WF8B_BPFLCD34_MASK
   Definitions
      At line 2136 in file MKL46Z4.s
   Uses
      None
Comment: LCD_WF8B_BPFLCD34_MASK unused
LCD_WF8B_BPFLCD34_SHIFT 00000005

Symbol: LCD_WF8B_BPFLCD34_SHIFT
   Definitions
      At line 2137 in file MKL46Z4.s
   Uses
      None
Comment: LCD_WF8B_BPFLCD34_SHIFT unused
LCD_WF8B_BPFLCD35_MASK 00000020

Symbol: LCD_WF8B_BPFLCD35_MASK
   Definitions
      At line 2158 in file MKL46Z4.s
   Uses
      None
Comment: LCD_WF8B_BPFLCD35_MASK unused
LCD_WF8B_BPFLCD35_SHIFT 00000005

Symbol: LCD_WF8B_BPFLCD35_SHIFT
   Definitions
      At line 2159 in file MKL46Z4.s
   Uses
      None
Comment: LCD_WF8B_BPFLCD35_SHIFT unused
LCD_WF8B_BPFLCD36_MASK 00000020

Symbol: LCD_WF8B_BPFLCD36_MASK
   Definitions



ARM Macro Assembler    Page 184 Alphabetic symbol ordering
Absolute symbols

      At line 2096 in file MKL46Z4.s
   Uses
      None
Comment: LCD_WF8B_BPFLCD36_MASK unused
LCD_WF8B_BPFLCD36_SHIFT 00000005

Symbol: LCD_WF8B_BPFLCD36_SHIFT
   Definitions
      At line 2097 in file MKL46Z4.s
   Uses
      None
Comment: LCD_WF8B_BPFLCD36_SHIFT unused
LCD_WF8B_BPFLCD37_MASK 00000020

Symbol: LCD_WF8B_BPFLCD37_MASK
   Definitions
      At line 2146 in file MKL46Z4.s
   Uses
      None
Comment: LCD_WF8B_BPFLCD37_MASK unused
LCD_WF8B_BPFLCD37_SHIFT 00000005

Symbol: LCD_WF8B_BPFLCD37_SHIFT
   Definitions
      At line 2147 in file MKL46Z4.s
   Uses
      None
Comment: LCD_WF8B_BPFLCD37_SHIFT unused
LCD_WF8B_BPFLCD38_MASK 00000020

Symbol: LCD_WF8B_BPFLCD38_MASK
   Definitions
      At line 2170 in file MKL46Z4.s
   Uses
      None
Comment: LCD_WF8B_BPFLCD38_MASK unused
LCD_WF8B_BPFLCD38_SHIFT 00000005

Symbol: LCD_WF8B_BPFLCD38_SHIFT
   Definitions
      At line 2171 in file MKL46Z4.s
   Uses
      None
Comment: LCD_WF8B_BPFLCD38_SHIFT unused
LCD_WF8B_BPFLCD39_MASK 00000020

Symbol: LCD_WF8B_BPFLCD39_MASK
   Definitions
      At line 2050 in file MKL46Z4.s
   Uses
      None
Comment: LCD_WF8B_BPFLCD39_MASK unused
LCD_WF8B_BPFLCD39_SHIFT 00000005

Symbol: LCD_WF8B_BPFLCD39_SHIFT
   Definitions
      At line 2051 in file MKL46Z4.s
   Uses
      None



ARM Macro Assembler    Page 185 Alphabetic symbol ordering
Absolute symbols

Comment: LCD_WF8B_BPFLCD39_SHIFT unused
LCD_WF8B_BPFLCD3_MASK 00000020

Symbol: LCD_WF8B_BPFLCD3_MASK
   Definitions
      At line 2144 in file MKL46Z4.s
   Uses
      None
Comment: LCD_WF8B_BPFLCD3_MASK unused
LCD_WF8B_BPFLCD3_SHIFT 00000005

Symbol: LCD_WF8B_BPFLCD3_SHIFT
   Definitions
      At line 2145 in file MKL46Z4.s
   Uses
      None
Comment: LCD_WF8B_BPFLCD3_SHIFT unused
LCD_WF8B_BPFLCD40_MASK 00000020

Symbol: LCD_WF8B_BPFLCD40_MASK
   Definitions
      At line 2114 in file MKL46Z4.s
   Uses
      None
Comment: LCD_WF8B_BPFLCD40_MASK unused
LCD_WF8B_BPFLCD40_SHIFT 00000005

Symbol: LCD_WF8B_BPFLCD40_SHIFT
   Definitions
      At line 2115 in file MKL46Z4.s
   Uses
      None
Comment: LCD_WF8B_BPFLCD40_SHIFT unused
LCD_WF8B_BPFLCD41_MASK 00000020

Symbol: LCD_WF8B_BPFLCD41_MASK
   Definitions
      At line 2080 in file MKL46Z4.s
   Uses
      None
Comment: LCD_WF8B_BPFLCD41_MASK unused
LCD_WF8B_BPFLCD41_SHIFT 00000005

Symbol: LCD_WF8B_BPFLCD41_SHIFT
   Definitions
      At line 2081 in file MKL46Z4.s
   Uses
      None
Comment: LCD_WF8B_BPFLCD41_SHIFT unused
LCD_WF8B_BPFLCD42_MASK 00000020

Symbol: LCD_WF8B_BPFLCD42_MASK
   Definitions
      At line 2128 in file MKL46Z4.s
   Uses
      None
Comment: LCD_WF8B_BPFLCD42_MASK unused
LCD_WF8B_BPFLCD42_SHIFT 00000005




ARM Macro Assembler    Page 186 Alphabetic symbol ordering
Absolute symbols

Symbol: LCD_WF8B_BPFLCD42_SHIFT
   Definitions
      At line 2129 in file MKL46Z4.s
   Uses
      None
Comment: LCD_WF8B_BPFLCD42_SHIFT unused
LCD_WF8B_BPFLCD43_MASK 00000020

Symbol: LCD_WF8B_BPFLCD43_MASK
   Definitions
      At line 2058 in file MKL46Z4.s
   Uses
      None
Comment: LCD_WF8B_BPFLCD43_MASK unused
LCD_WF8B_BPFLCD43_SHIFT 00000005

Symbol: LCD_WF8B_BPFLCD43_SHIFT
   Definitions
      At line 2059 in file MKL46Z4.s
   Uses
      None
Comment: LCD_WF8B_BPFLCD43_SHIFT unused
LCD_WF8B_BPFLCD44_MASK 00000020

Symbol: LCD_WF8B_BPFLCD44_MASK
   Definitions
      At line 2152 in file MKL46Z4.s
   Uses
      None
Comment: LCD_WF8B_BPFLCD44_MASK unused
LCD_WF8B_BPFLCD44_SHIFT 00000005

Symbol: LCD_WF8B_BPFLCD44_SHIFT
   Definitions
      At line 2153 in file MKL46Z4.s
   Uses
      None
Comment: LCD_WF8B_BPFLCD44_SHIFT unused
LCD_WF8B_BPFLCD45_MASK 00000020

Symbol: LCD_WF8B_BPFLCD45_MASK
   Definitions
      At line 2120 in file MKL46Z4.s
   Uses
      None
Comment: LCD_WF8B_BPFLCD45_MASK unused
LCD_WF8B_BPFLCD45_SHIFT 00000005

Symbol: LCD_WF8B_BPFLCD45_SHIFT
   Definitions
      At line 2121 in file MKL46Z4.s
   Uses
      None
Comment: LCD_WF8B_BPFLCD45_SHIFT unused
LCD_WF8B_BPFLCD46_MASK 00000020

Symbol: LCD_WF8B_BPFLCD46_MASK
   Definitions
      At line 2090 in file MKL46Z4.s



ARM Macro Assembler    Page 187 Alphabetic symbol ordering
Absolute symbols

   Uses
      None
Comment: LCD_WF8B_BPFLCD46_MASK unused
LCD_WF8B_BPFLCD46_SHIFT 00000005

Symbol: LCD_WF8B_BPFLCD46_SHIFT
   Definitions
      At line 2091 in file MKL46Z4.s
   Uses
      None
Comment: LCD_WF8B_BPFLCD46_SHIFT unused
LCD_WF8B_BPFLCD47_MASK 00000020

Symbol: LCD_WF8B_BPFLCD47_MASK
   Definitions
      At line 2054 in file MKL46Z4.s
   Uses
      None
Comment: LCD_WF8B_BPFLCD47_MASK unused
LCD_WF8B_BPFLCD47_SHIFT 00000005

Symbol: LCD_WF8B_BPFLCD47_SHIFT
   Definitions
      At line 2055 in file MKL46Z4.s
   Uses
      None
Comment: LCD_WF8B_BPFLCD47_SHIFT unused
LCD_WF8B_BPFLCD48_MASK 00000020

Symbol: LCD_WF8B_BPFLCD48_MASK
   Definitions
      At line 2164 in file MKL46Z4.s
   Uses
      None
Comment: LCD_WF8B_BPFLCD48_MASK unused
LCD_WF8B_BPFLCD48_SHIFT 00000005

Symbol: LCD_WF8B_BPFLCD48_SHIFT
   Definitions
      At line 2165 in file MKL46Z4.s
   Uses
      None
Comment: LCD_WF8B_BPFLCD48_SHIFT unused
LCD_WF8B_BPFLCD49_MASK 00000020

Symbol: LCD_WF8B_BPFLCD49_MASK
   Definitions
      At line 2148 in file MKL46Z4.s
   Uses
      None
Comment: LCD_WF8B_BPFLCD49_MASK unused
LCD_WF8B_BPFLCD49_SHIFT 00000005

Symbol: LCD_WF8B_BPFLCD49_SHIFT
   Definitions
      At line 2149 in file MKL46Z4.s
   Uses
      None
Comment: LCD_WF8B_BPFLCD49_SHIFT unused



ARM Macro Assembler    Page 188 Alphabetic symbol ordering
Absolute symbols

LCD_WF8B_BPFLCD4_MASK 00000020

Symbol: LCD_WF8B_BPFLCD4_MASK
   Definitions
      At line 2160 in file MKL46Z4.s
   Uses
      None
Comment: LCD_WF8B_BPFLCD4_MASK unused
LCD_WF8B_BPFLCD4_SHIFT 00000005

Symbol: LCD_WF8B_BPFLCD4_SHIFT
   Definitions
      At line 2161 in file MKL46Z4.s
   Uses
      None
Comment: LCD_WF8B_BPFLCD4_SHIFT unused
LCD_WF8B_BPFLCD50_MASK 00000020

Symbol: LCD_WF8B_BPFLCD50_MASK
   Definitions
      At line 2132 in file MKL46Z4.s
   Uses
      None
Comment: LCD_WF8B_BPFLCD50_MASK unused
LCD_WF8B_BPFLCD50_SHIFT 00000005

Symbol: LCD_WF8B_BPFLCD50_SHIFT
   Definitions
      At line 2133 in file MKL46Z4.s
   Uses
      None
Comment: LCD_WF8B_BPFLCD50_SHIFT unused
LCD_WF8B_BPFLCD51_MASK 00000020

Symbol: LCD_WF8B_BPFLCD51_MASK
   Definitions
      At line 2116 in file MKL46Z4.s
   Uses
      None
Comment: LCD_WF8B_BPFLCD51_MASK unused
LCD_WF8B_BPFLCD51_SHIFT 00000005

Symbol: LCD_WF8B_BPFLCD51_SHIFT
   Definitions
      At line 2117 in file MKL46Z4.s
   Uses
      None
Comment: LCD_WF8B_BPFLCD51_SHIFT unused
LCD_WF8B_BPFLCD52_MASK 00000020

Symbol: LCD_WF8B_BPFLCD52_MASK
   Definitions
      At line 2100 in file MKL46Z4.s
   Uses
      None
Comment: LCD_WF8B_BPFLCD52_MASK unused
LCD_WF8B_BPFLCD52_SHIFT 00000005

Symbol: LCD_WF8B_BPFLCD52_SHIFT



ARM Macro Assembler    Page 189 Alphabetic symbol ordering
Absolute symbols

   Definitions
      At line 2101 in file MKL46Z4.s
   Uses
      None
Comment: LCD_WF8B_BPFLCD52_SHIFT unused
LCD_WF8B_BPFLCD53_MASK 00000020

Symbol: LCD_WF8B_BPFLCD53_MASK
   Definitions
      At line 2084 in file MKL46Z4.s
   Uses
      None
Comment: LCD_WF8B_BPFLCD53_MASK unused
LCD_WF8B_BPFLCD53_SHIFT 00000005

Symbol: LCD_WF8B_BPFLCD53_SHIFT
   Definitions
      At line 2085 in file MKL46Z4.s
   Uses
      None
Comment: LCD_WF8B_BPFLCD53_SHIFT unused
LCD_WF8B_BPFLCD54_MASK 00000020

Symbol: LCD_WF8B_BPFLCD54_MASK
   Definitions
      At line 2068 in file MKL46Z4.s
   Uses
      None
Comment: LCD_WF8B_BPFLCD54_MASK unused
LCD_WF8B_BPFLCD54_SHIFT 00000005

Symbol: LCD_WF8B_BPFLCD54_SHIFT
   Definitions
      At line 2069 in file MKL46Z4.s
   Uses
      None
Comment: LCD_WF8B_BPFLCD54_SHIFT unused
LCD_WF8B_BPFLCD55_MASK 00000020

Symbol: LCD_WF8B_BPFLCD55_MASK
   Definitions
      At line 2052 in file MKL46Z4.s
   Uses
      None
Comment: LCD_WF8B_BPFLCD55_MASK unused
LCD_WF8B_BPFLCD55_SHIFT 00000005

Symbol: LCD_WF8B_BPFLCD55_SHIFT
   Definitions
      At line 2053 in file MKL46Z4.s
   Uses
      None
Comment: LCD_WF8B_BPFLCD55_SHIFT unused
LCD_WF8B_BPFLCD56_MASK 00000020

Symbol: LCD_WF8B_BPFLCD56_MASK
   Definitions
      At line 2108 in file MKL46Z4.s
   Uses



ARM Macro Assembler    Page 190 Alphabetic symbol ordering
Absolute symbols

      None
Comment: LCD_WF8B_BPFLCD56_MASK unused
LCD_WF8B_BPFLCD56_SHIFT 00000005

Symbol: LCD_WF8B_BPFLCD56_SHIFT
   Definitions
      At line 2109 in file MKL46Z4.s
   Uses
      None
Comment: LCD_WF8B_BPFLCD56_SHIFT unused
LCD_WF8B_BPFLCD57_MASK 00000020

Symbol: LCD_WF8B_BPFLCD57_MASK
   Definitions
      At line 2102 in file MKL46Z4.s
   Uses
      None
Comment: LCD_WF8B_BPFLCD57_MASK unused
LCD_WF8B_BPFLCD57_SHIFT 00000005

Symbol: LCD_WF8B_BPFLCD57_SHIFT
   Definitions
      At line 2103 in file MKL46Z4.s
   Uses
      None
Comment: LCD_WF8B_BPFLCD57_SHIFT unused
LCD_WF8B_BPFLCD58_MASK 00000020

Symbol: LCD_WF8B_BPFLCD58_MASK
   Definitions
      At line 2092 in file MKL46Z4.s
   Uses
      None
Comment: LCD_WF8B_BPFLCD58_MASK unused
LCD_WF8B_BPFLCD58_SHIFT 00000005

Symbol: LCD_WF8B_BPFLCD58_SHIFT
   Definitions
      At line 2093 in file MKL46Z4.s
   Uses
      None
Comment: LCD_WF8B_BPFLCD58_SHIFT unused
LCD_WF8B_BPFLCD59_MASK 00000020

Symbol: LCD_WF8B_BPFLCD59_MASK
   Definitions
      At line 2086 in file MKL46Z4.s
   Uses
      None
Comment: LCD_WF8B_BPFLCD59_MASK unused
LCD_WF8B_BPFLCD59_SHIFT 00000005

Symbol: LCD_WF8B_BPFLCD59_SHIFT
   Definitions
      At line 2087 in file MKL46Z4.s
   Uses
      None
Comment: LCD_WF8B_BPFLCD59_SHIFT unused
LCD_WF8B_BPFLCD5_MASK 00000020



ARM Macro Assembler    Page 191 Alphabetic symbol ordering
Absolute symbols


Symbol: LCD_WF8B_BPFLCD5_MASK
   Definitions
      At line 2060 in file MKL46Z4.s
   Uses
      None
Comment: LCD_WF8B_BPFLCD5_MASK unused
LCD_WF8B_BPFLCD5_SHIFT 00000005

Symbol: LCD_WF8B_BPFLCD5_SHIFT
   Definitions
      At line 2061 in file MKL46Z4.s
   Uses
      None
Comment: LCD_WF8B_BPFLCD5_SHIFT unused
LCD_WF8B_BPFLCD60_MASK 00000020

Symbol: LCD_WF8B_BPFLCD60_MASK
   Definitions
      At line 2078 in file MKL46Z4.s
   Uses
      None
Comment: LCD_WF8B_BPFLCD60_MASK unused
LCD_WF8B_BPFLCD60_SHIFT 00000005

Symbol: LCD_WF8B_BPFLCD60_SHIFT
   Definitions
      At line 2079 in file MKL46Z4.s
   Uses
      None
Comment: LCD_WF8B_BPFLCD60_SHIFT unused
LCD_WF8B_BPFLCD61_MASK 00000020

Symbol: LCD_WF8B_BPFLCD61_MASK
   Definitions
      At line 2074 in file MKL46Z4.s
   Uses
      None
Comment: LCD_WF8B_BPFLCD61_MASK unused
LCD_WF8B_BPFLCD61_SHIFT 00000005

Symbol: LCD_WF8B_BPFLCD61_SHIFT
   Definitions
      At line 2075 in file MKL46Z4.s
   Uses
      None
Comment: LCD_WF8B_BPFLCD61_SHIFT unused
LCD_WF8B_BPFLCD62_MASK 00000020

Symbol: LCD_WF8B_BPFLCD62_MASK
   Definitions
      At line 2062 in file MKL46Z4.s
   Uses
      None
Comment: LCD_WF8B_BPFLCD62_MASK unused
LCD_WF8B_BPFLCD62_SHIFT 00000005

Symbol: LCD_WF8B_BPFLCD62_SHIFT
   Definitions



ARM Macro Assembler    Page 192 Alphabetic symbol ordering
Absolute symbols

      At line 2063 in file MKL46Z4.s
   Uses
      None
Comment: LCD_WF8B_BPFLCD62_SHIFT unused
LCD_WF8B_BPFLCD63_MASK 00000020

Symbol: LCD_WF8B_BPFLCD63_MASK
   Definitions
      At line 2056 in file MKL46Z4.s
   Uses
      None
Comment: LCD_WF8B_BPFLCD63_MASK unused
LCD_WF8B_BPFLCD63_SHIFT 00000005

Symbol: LCD_WF8B_BPFLCD63_SHIFT
   Definitions
      At line 2057 in file MKL46Z4.s
   Uses
      None
Comment: LCD_WF8B_BPFLCD63_SHIFT unused
LCD_WF8B_BPFLCD6_MASK 00000020

Symbol: LCD_WF8B_BPFLCD6_MASK
   Definitions
      At line 2122 in file MKL46Z4.s
   Uses
      None
Comment: LCD_WF8B_BPFLCD6_MASK unused
LCD_WF8B_BPFLCD6_SHIFT 00000005

Symbol: LCD_WF8B_BPFLCD6_SHIFT
   Definitions
      At line 2123 in file MKL46Z4.s
   Uses
      None
Comment: LCD_WF8B_BPFLCD6_SHIFT unused
LCD_WF8B_BPFLCD7_MASK 00000020

Symbol: LCD_WF8B_BPFLCD7_MASK
   Definitions
      At line 2166 in file MKL46Z4.s
   Uses
      None
Comment: LCD_WF8B_BPFLCD7_MASK unused
LCD_WF8B_BPFLCD7_SHIFT 00000005

Symbol: LCD_WF8B_BPFLCD7_SHIFT
   Definitions
      At line 2167 in file MKL46Z4.s
   Uses
      None
Comment: LCD_WF8B_BPFLCD7_SHIFT unused
LCD_WF8B_BPFLCD8_MASK 00000020

Symbol: LCD_WF8B_BPFLCD8_MASK
   Definitions
      At line 2112 in file MKL46Z4.s
   Uses
      None



ARM Macro Assembler    Page 193 Alphabetic symbol ordering
Absolute symbols

Comment: LCD_WF8B_BPFLCD8_MASK unused
LCD_WF8B_BPFLCD8_SHIFT 00000005

Symbol: LCD_WF8B_BPFLCD8_SHIFT
   Definitions
      At line 2113 in file MKL46Z4.s
   Uses
      None
Comment: LCD_WF8B_BPFLCD8_SHIFT unused
LCD_WF8B_BPFLCD9_MASK 00000020

Symbol: LCD_WF8B_BPFLCD9_MASK
   Definitions
      At line 2142 in file MKL46Z4.s
   Uses
      None
Comment: LCD_WF8B_BPFLCD9_MASK unused
LCD_WF8B_BPFLCD9_SHIFT 00000005

Symbol: LCD_WF8B_BPFLCD9_SHIFT
   Definitions
      At line 2143 in file MKL46Z4.s
   Uses
      None
Comment: LCD_WF8B_BPFLCD9_SHIFT unused
LCD_WF8B_BPGLCD0_MASK 00000040

Symbol: LCD_WF8B_BPGLCD0_MASK
   Definitions
      At line 2198 in file MKL46Z4.s
   Uses
      None
Comment: LCD_WF8B_BPGLCD0_MASK unused
LCD_WF8B_BPGLCD0_SHIFT 00000006

Symbol: LCD_WF8B_BPGLCD0_SHIFT
   Definitions
      At line 2199 in file MKL46Z4.s
   Uses
      None
Comment: LCD_WF8B_BPGLCD0_SHIFT unused
LCD_WF8B_BPGLCD10_MASK 00000040

Symbol: LCD_WF8B_BPGLCD10_MASK
   Definitions
      At line 2256 in file MKL46Z4.s
   Uses
      None
Comment: LCD_WF8B_BPGLCD10_MASK unused
LCD_WF8B_BPGLCD10_SHIFT 00000006

Symbol: LCD_WF8B_BPGLCD10_SHIFT
   Definitions
      At line 2257 in file MKL46Z4.s
   Uses
      None
Comment: LCD_WF8B_BPGLCD10_SHIFT unused
LCD_WF8B_BPGLCD11_MASK 00000040




ARM Macro Assembler    Page 194 Alphabetic symbol ordering
Absolute symbols

Symbol: LCD_WF8B_BPGLCD11_MASK
   Definitions
      At line 2284 in file MKL46Z4.s
   Uses
      None
Comment: LCD_WF8B_BPGLCD11_MASK unused
LCD_WF8B_BPGLCD11_SHIFT 00000006

Symbol: LCD_WF8B_BPGLCD11_SHIFT
   Definitions
      At line 2285 in file MKL46Z4.s
   Uses
      None
Comment: LCD_WF8B_BPGLCD11_SHIFT unused
LCD_WF8B_BPGLCD12_MASK 00000040

Symbol: LCD_WF8B_BPGLCD12_MASK
   Definitions
      At line 2288 in file MKL46Z4.s
   Uses
      None
Comment: LCD_WF8B_BPGLCD12_MASK unused
LCD_WF8B_BPGLCD12_SHIFT 00000006

Symbol: LCD_WF8B_BPGLCD12_SHIFT
   Definitions
      At line 2289 in file MKL46Z4.s
   Uses
      None
Comment: LCD_WF8B_BPGLCD12_SHIFT unused
LCD_WF8B_BPGLCD13_MASK 00000040

Symbol: LCD_WF8B_BPGLCD13_MASK
   Definitions
      At line 2234 in file MKL46Z4.s
   Uses
      None
Comment: LCD_WF8B_BPGLCD13_MASK unused
LCD_WF8B_BPGLCD13_SHIFT 00000006

Symbol: LCD_WF8B_BPGLCD13_SHIFT
   Definitions
      At line 2235 in file MKL46Z4.s
   Uses
      None
Comment: LCD_WF8B_BPGLCD13_SHIFT unused
LCD_WF8B_BPGLCD14_MASK 00000040

Symbol: LCD_WF8B_BPGLCD14_MASK
   Definitions
      At line 2176 in file MKL46Z4.s
   Uses
      None
Comment: LCD_WF8B_BPGLCD14_MASK unused
LCD_WF8B_BPGLCD14_SHIFT 00000006

Symbol: LCD_WF8B_BPGLCD14_SHIFT
   Definitions
      At line 2177 in file MKL46Z4.s



ARM Macro Assembler    Page 195 Alphabetic symbol ordering
Absolute symbols

   Uses
      None
Comment: LCD_WF8B_BPGLCD14_SHIFT unused
LCD_WF8B_BPGLCD15_MASK 00000040

Symbol: LCD_WF8B_BPGLCD15_MASK
   Definitions
      At line 2182 in file MKL46Z4.s
   Uses
      None
Comment: LCD_WF8B_BPGLCD15_MASK unused
LCD_WF8B_BPGLCD15_SHIFT 00000006

Symbol: LCD_WF8B_BPGLCD15_SHIFT
   Definitions
      At line 2183 in file MKL46Z4.s
   Uses
      None
Comment: LCD_WF8B_BPGLCD15_SHIFT unused
LCD_WF8B_BPGLCD16_MASK 00000040

Symbol: LCD_WF8B_BPGLCD16_MASK
   Definitions
      At line 2212 in file MKL46Z4.s
   Uses
      None
Comment: LCD_WF8B_BPGLCD16_MASK unused
LCD_WF8B_BPGLCD16_SHIFT 00000006

Symbol: LCD_WF8B_BPGLCD16_SHIFT
   Definitions
      At line 2213 in file MKL46Z4.s
   Uses
      None
Comment: LCD_WF8B_BPGLCD16_SHIFT unused
LCD_WF8B_BPGLCD17_MASK 00000040

Symbol: LCD_WF8B_BPGLCD17_MASK
   Definitions
      At line 2216 in file MKL46Z4.s
   Uses
      None
Comment: LCD_WF8B_BPGLCD17_MASK unused
LCD_WF8B_BPGLCD17_SHIFT 00000006

Symbol: LCD_WF8B_BPGLCD17_SHIFT
   Definitions
      At line 2217 in file MKL46Z4.s
   Uses
      None
Comment: LCD_WF8B_BPGLCD17_SHIFT unused
LCD_WF8B_BPGLCD18_MASK 00000040

Symbol: LCD_WF8B_BPGLCD18_MASK
   Definitions
      At line 2220 in file MKL46Z4.s
   Uses
      None
Comment: LCD_WF8B_BPGLCD18_MASK unused



ARM Macro Assembler    Page 196 Alphabetic symbol ordering
Absolute symbols

LCD_WF8B_BPGLCD18_SHIFT 00000006

Symbol: LCD_WF8B_BPGLCD18_SHIFT
   Definitions
      At line 2221 in file MKL46Z4.s
   Uses
      None
Comment: LCD_WF8B_BPGLCD18_SHIFT unused
LCD_WF8B_BPGLCD19_MASK 00000040

Symbol: LCD_WF8B_BPGLCD19_MASK
   Definitions
      At line 2222 in file MKL46Z4.s
   Uses
      None
Comment: LCD_WF8B_BPGLCD19_MASK unused
LCD_WF8B_BPGLCD19_SHIFT 00000006

Symbol: LCD_WF8B_BPGLCD19_SHIFT
   Definitions
      At line 2223 in file MKL46Z4.s
   Uses
      None
Comment: LCD_WF8B_BPGLCD19_SHIFT unused
LCD_WF8B_BPGLCD1_MASK 00000040

Symbol: LCD_WF8B_BPGLCD1_MASK
   Definitions
      At line 2214 in file MKL46Z4.s
   Uses
      None
Comment: LCD_WF8B_BPGLCD1_MASK unused
LCD_WF8B_BPGLCD1_SHIFT 00000006

Symbol: LCD_WF8B_BPGLCD1_SHIFT
   Definitions
      At line 2215 in file MKL46Z4.s
   Uses
      None
Comment: LCD_WF8B_BPGLCD1_SHIFT unused
LCD_WF8B_BPGLCD20_MASK 00000040

Symbol: LCD_WF8B_BPGLCD20_MASK
   Definitions
      At line 2228 in file MKL46Z4.s
   Uses
      None
Comment: LCD_WF8B_BPGLCD20_MASK unused
LCD_WF8B_BPGLCD20_SHIFT 00000006

Symbol: LCD_WF8B_BPGLCD20_SHIFT
   Definitions
      At line 2229 in file MKL46Z4.s
   Uses
      None
Comment: LCD_WF8B_BPGLCD20_SHIFT unused
LCD_WF8B_BPGLCD21_MASK 00000040

Symbol: LCD_WF8B_BPGLCD21_MASK



ARM Macro Assembler    Page 197 Alphabetic symbol ordering
Absolute symbols

   Definitions
      At line 2232 in file MKL46Z4.s
   Uses
      None
Comment: LCD_WF8B_BPGLCD21_MASK unused
LCD_WF8B_BPGLCD21_SHIFT 00000006

Symbol: LCD_WF8B_BPGLCD21_SHIFT
   Definitions
      At line 2233 in file MKL46Z4.s
   Uses
      None
Comment: LCD_WF8B_BPGLCD21_SHIFT unused
LCD_WF8B_BPGLCD22_MASK 00000040

Symbol: LCD_WF8B_BPGLCD22_MASK
   Definitions
      At line 2238 in file MKL46Z4.s
   Uses
      None
Comment: LCD_WF8B_BPGLCD22_MASK unused
LCD_WF8B_BPGLCD22_SHIFT 00000006

Symbol: LCD_WF8B_BPGLCD22_SHIFT
   Definitions
      At line 2239 in file MKL46Z4.s
   Uses
      None
Comment: LCD_WF8B_BPGLCD22_SHIFT unused
LCD_WF8B_BPGLCD23_MASK 00000040

Symbol: LCD_WF8B_BPGLCD23_MASK
   Definitions
      At line 2244 in file MKL46Z4.s
   Uses
      None
Comment: LCD_WF8B_BPGLCD23_MASK unused
LCD_WF8B_BPGLCD23_SHIFT 00000006

Symbol: LCD_WF8B_BPGLCD23_SHIFT
   Definitions
      At line 2245 in file MKL46Z4.s
   Uses
      None
Comment: LCD_WF8B_BPGLCD23_SHIFT unused
LCD_WF8B_BPGLCD24_MASK 00000040

Symbol: LCD_WF8B_BPGLCD24_MASK
   Definitions
      At line 2246 in file MKL46Z4.s
   Uses
      None
Comment: LCD_WF8B_BPGLCD24_MASK unused
LCD_WF8B_BPGLCD24_SHIFT 00000006

Symbol: LCD_WF8B_BPGLCD24_SHIFT
   Definitions
      At line 2247 in file MKL46Z4.s
   Uses



ARM Macro Assembler    Page 198 Alphabetic symbol ordering
Absolute symbols

      None
Comment: LCD_WF8B_BPGLCD24_SHIFT unused
LCD_WF8B_BPGLCD25_MASK 00000040

Symbol: LCD_WF8B_BPGLCD25_MASK
   Definitions
      At line 2248 in file MKL46Z4.s
   Uses
      None
Comment: LCD_WF8B_BPGLCD25_MASK unused
LCD_WF8B_BPGLCD25_SHIFT 00000006

Symbol: LCD_WF8B_BPGLCD25_SHIFT
   Definitions
      At line 2249 in file MKL46Z4.s
   Uses
      None
Comment: LCD_WF8B_BPGLCD25_SHIFT unused
LCD_WF8B_BPGLCD26_MASK 00000040

Symbol: LCD_WF8B_BPGLCD26_MASK
   Definitions
      At line 2252 in file MKL46Z4.s
   Uses
      None
Comment: LCD_WF8B_BPGLCD26_MASK unused
LCD_WF8B_BPGLCD26_SHIFT 00000006

Symbol: LCD_WF8B_BPGLCD26_SHIFT
   Definitions
      At line 2253 in file MKL46Z4.s
   Uses
      None
Comment: LCD_WF8B_BPGLCD26_SHIFT unused
LCD_WF8B_BPGLCD27_MASK 00000040

Symbol: LCD_WF8B_BPGLCD27_MASK
   Definitions
      At line 2254 in file MKL46Z4.s
   Uses
      None
Comment: LCD_WF8B_BPGLCD27_MASK unused
LCD_WF8B_BPGLCD27_SHIFT 00000006

Symbol: LCD_WF8B_BPGLCD27_SHIFT
   Definitions
      At line 2255 in file MKL46Z4.s
   Uses
      None
Comment: LCD_WF8B_BPGLCD27_SHIFT unused
LCD_WF8B_BPGLCD28_MASK 00000040

Symbol: LCD_WF8B_BPGLCD28_MASK
   Definitions
      At line 2260 in file MKL46Z4.s
   Uses
      None
Comment: LCD_WF8B_BPGLCD28_MASK unused
LCD_WF8B_BPGLCD28_SHIFT 00000006



ARM Macro Assembler    Page 199 Alphabetic symbol ordering
Absolute symbols


Symbol: LCD_WF8B_BPGLCD28_SHIFT
   Definitions
      At line 2261 in file MKL46Z4.s
   Uses
      None
Comment: LCD_WF8B_BPGLCD28_SHIFT unused
LCD_WF8B_BPGLCD29_MASK 00000040

Symbol: LCD_WF8B_BPGLCD29_MASK
   Definitions
      At line 2262 in file MKL46Z4.s
   Uses
      None
Comment: LCD_WF8B_BPGLCD29_MASK unused
LCD_WF8B_BPGLCD29_SHIFT 00000006

Symbol: LCD_WF8B_BPGLCD29_SHIFT
   Definitions
      At line 2263 in file MKL46Z4.s
   Uses
      None
Comment: LCD_WF8B_BPGLCD29_SHIFT unused
LCD_WF8B_BPGLCD2_MASK 00000040

Symbol: LCD_WF8B_BPGLCD2_MASK
   Definitions
      At line 2270 in file MKL46Z4.s
   Uses
      None
Comment: LCD_WF8B_BPGLCD2_MASK unused
LCD_WF8B_BPGLCD2_SHIFT 00000006

Symbol: LCD_WF8B_BPGLCD2_SHIFT
   Definitions
      At line 2271 in file MKL46Z4.s
   Uses
      None
Comment: LCD_WF8B_BPGLCD2_SHIFT unused
LCD_WF8B_BPGLCD30_MASK 00000040

Symbol: LCD_WF8B_BPGLCD30_MASK
   Definitions
      At line 2268 in file MKL46Z4.s
   Uses
      None
Comment: LCD_WF8B_BPGLCD30_MASK unused
LCD_WF8B_BPGLCD30_SHIFT 00000006

Symbol: LCD_WF8B_BPGLCD30_SHIFT
   Definitions
      At line 2269 in file MKL46Z4.s
   Uses
      None
Comment: LCD_WF8B_BPGLCD30_SHIFT unused
LCD_WF8B_BPGLCD31_MASK 00000040

Symbol: LCD_WF8B_BPGLCD31_MASK
   Definitions



ARM Macro Assembler    Page 200 Alphabetic symbol ordering
Absolute symbols

      At line 2272 in file MKL46Z4.s
   Uses
      None
Comment: LCD_WF8B_BPGLCD31_MASK unused
LCD_WF8B_BPGLCD31_SHIFT 00000006

Symbol: LCD_WF8B_BPGLCD31_SHIFT
   Definitions
      At line 2273 in file MKL46Z4.s
   Uses
      None
Comment: LCD_WF8B_BPGLCD31_SHIFT unused
LCD_WF8B_BPGLCD32_MASK 00000040

Symbol: LCD_WF8B_BPGLCD32_MASK
   Definitions
      At line 2276 in file MKL46Z4.s
   Uses
      None
Comment: LCD_WF8B_BPGLCD32_MASK unused
LCD_WF8B_BPGLCD32_SHIFT 00000006

Symbol: LCD_WF8B_BPGLCD32_SHIFT
   Definitions
      At line 2277 in file MKL46Z4.s
   Uses
      None
Comment: LCD_WF8B_BPGLCD32_SHIFT unused
LCD_WF8B_BPGLCD33_MASK 00000040

Symbol: LCD_WF8B_BPGLCD33_MASK
   Definitions
      At line 2278 in file MKL46Z4.s
   Uses
      None
Comment: LCD_WF8B_BPGLCD33_MASK unused
LCD_WF8B_BPGLCD33_SHIFT 00000006

Symbol: LCD_WF8B_BPGLCD33_SHIFT
   Definitions
      At line 2279 in file MKL46Z4.s
   Uses
      None
Comment: LCD_WF8B_BPGLCD33_SHIFT unused
LCD_WF8B_BPGLCD34_MASK 00000040

Symbol: LCD_WF8B_BPGLCD34_MASK
   Definitions
      At line 2282 in file MKL46Z4.s
   Uses
      None
Comment: LCD_WF8B_BPGLCD34_MASK unused
LCD_WF8B_BPGLCD34_SHIFT 00000006

Symbol: LCD_WF8B_BPGLCD34_SHIFT
   Definitions
      At line 2283 in file MKL46Z4.s
   Uses
      None



ARM Macro Assembler    Page 201 Alphabetic symbol ordering
Absolute symbols

Comment: LCD_WF8B_BPGLCD34_SHIFT unused
LCD_WF8B_BPGLCD35_MASK 00000040

Symbol: LCD_WF8B_BPGLCD35_MASK
   Definitions
      At line 2286 in file MKL46Z4.s
   Uses
      None
Comment: LCD_WF8B_BPGLCD35_MASK unused
LCD_WF8B_BPGLCD35_SHIFT 00000006

Symbol: LCD_WF8B_BPGLCD35_SHIFT
   Definitions
      At line 2287 in file MKL46Z4.s
   Uses
      None
Comment: LCD_WF8B_BPGLCD35_SHIFT unused
LCD_WF8B_BPGLCD36_MASK 00000040

Symbol: LCD_WF8B_BPGLCD36_MASK
   Definitions
      At line 2292 in file MKL46Z4.s
   Uses
      None
Comment: LCD_WF8B_BPGLCD36_MASK unused
LCD_WF8B_BPGLCD36_SHIFT 00000006

Symbol: LCD_WF8B_BPGLCD36_SHIFT
   Definitions
      At line 2293 in file MKL46Z4.s
   Uses
      None
Comment: LCD_WF8B_BPGLCD36_SHIFT unused
LCD_WF8B_BPGLCD37_MASK 00000040

Symbol: LCD_WF8B_BPGLCD37_MASK
   Definitions
      At line 2296 in file MKL46Z4.s
   Uses
      None
Comment: LCD_WF8B_BPGLCD37_MASK unused
LCD_WF8B_BPGLCD37_SHIFT 00000006

Symbol: LCD_WF8B_BPGLCD37_SHIFT
   Definitions
      At line 2297 in file MKL46Z4.s
   Uses
      None
Comment: LCD_WF8B_BPGLCD37_SHIFT unused
LCD_WF8B_BPGLCD38_MASK 00000040

Symbol: LCD_WF8B_BPGLCD38_MASK
   Definitions
      At line 2300 in file MKL46Z4.s
   Uses
      None
Comment: LCD_WF8B_BPGLCD38_MASK unused
LCD_WF8B_BPGLCD38_SHIFT 00000006




ARM Macro Assembler    Page 202 Alphabetic symbol ordering
Absolute symbols

Symbol: LCD_WF8B_BPGLCD38_SHIFT
   Definitions
      At line 2301 in file MKL46Z4.s
   Uses
      None
Comment: LCD_WF8B_BPGLCD38_SHIFT unused
LCD_WF8B_BPGLCD39_MASK 00000040

Symbol: LCD_WF8B_BPGLCD39_MASK
   Definitions
      At line 2302 in file MKL46Z4.s
   Uses
      None
Comment: LCD_WF8B_BPGLCD39_MASK unused
LCD_WF8B_BPGLCD39_SHIFT 00000006

Symbol: LCD_WF8B_BPGLCD39_SHIFT
   Definitions
      At line 2303 in file MKL46Z4.s
   Uses
      None
Comment: LCD_WF8B_BPGLCD39_SHIFT unused
LCD_WF8B_BPGLCD3_MASK 00000040

Symbol: LCD_WF8B_BPGLCD3_MASK
   Definitions
      At line 2294 in file MKL46Z4.s
   Uses
      None
Comment: LCD_WF8B_BPGLCD3_MASK unused
LCD_WF8B_BPGLCD3_SHIFT 00000006

Symbol: LCD_WF8B_BPGLCD3_SHIFT
   Definitions
      At line 2295 in file MKL46Z4.s
   Uses
      None
Comment: LCD_WF8B_BPGLCD3_SHIFT unused
LCD_WF8B_BPGLCD40_MASK 00000040

Symbol: LCD_WF8B_BPGLCD40_MASK
   Definitions
      At line 2298 in file MKL46Z4.s
   Uses
      None
Comment: LCD_WF8B_BPGLCD40_MASK unused
LCD_WF8B_BPGLCD40_SHIFT 00000006

Symbol: LCD_WF8B_BPGLCD40_SHIFT
   Definitions
      At line 2299 in file MKL46Z4.s
   Uses
      None
Comment: LCD_WF8B_BPGLCD40_SHIFT unused
LCD_WF8B_BPGLCD41_MASK 00000040

Symbol: LCD_WF8B_BPGLCD41_MASK
   Definitions
      At line 2290 in file MKL46Z4.s



ARM Macro Assembler    Page 203 Alphabetic symbol ordering
Absolute symbols

   Uses
      None
Comment: LCD_WF8B_BPGLCD41_MASK unused
LCD_WF8B_BPGLCD41_SHIFT 00000006

Symbol: LCD_WF8B_BPGLCD41_SHIFT
   Definitions
      At line 2291 in file MKL46Z4.s
   Uses
      None
Comment: LCD_WF8B_BPGLCD41_SHIFT unused
LCD_WF8B_BPGLCD42_MASK 00000040

Symbol: LCD_WF8B_BPGLCD42_MASK
   Definitions
      At line 2280 in file MKL46Z4.s
   Uses
      None
Comment: LCD_WF8B_BPGLCD42_MASK unused
LCD_WF8B_BPGLCD42_SHIFT 00000006

Symbol: LCD_WF8B_BPGLCD42_SHIFT
   Definitions
      At line 2281 in file MKL46Z4.s
   Uses
      None
Comment: LCD_WF8B_BPGLCD42_SHIFT unused
LCD_WF8B_BPGLCD43_MASK 00000040

Symbol: LCD_WF8B_BPGLCD43_MASK
   Definitions
      At line 2274 in file MKL46Z4.s
   Uses
      None
Comment: LCD_WF8B_BPGLCD43_MASK unused
LCD_WF8B_BPGLCD43_SHIFT 00000006

Symbol: LCD_WF8B_BPGLCD43_SHIFT
   Definitions
      At line 2275 in file MKL46Z4.s
   Uses
      None
Comment: LCD_WF8B_BPGLCD43_SHIFT unused
LCD_WF8B_BPGLCD44_MASK 00000040

Symbol: LCD_WF8B_BPGLCD44_MASK
   Definitions
      At line 2266 in file MKL46Z4.s
   Uses
      None
Comment: LCD_WF8B_BPGLCD44_MASK unused
LCD_WF8B_BPGLCD44_SHIFT 00000006

Symbol: LCD_WF8B_BPGLCD44_SHIFT
   Definitions
      At line 2267 in file MKL46Z4.s
   Uses
      None
Comment: LCD_WF8B_BPGLCD44_SHIFT unused



ARM Macro Assembler    Page 204 Alphabetic symbol ordering
Absolute symbols

LCD_WF8B_BPGLCD45_MASK 00000040

Symbol: LCD_WF8B_BPGLCD45_MASK
   Definitions
      At line 2258 in file MKL46Z4.s
   Uses
      None
Comment: LCD_WF8B_BPGLCD45_MASK unused
LCD_WF8B_BPGLCD45_SHIFT 00000006

Symbol: LCD_WF8B_BPGLCD45_SHIFT
   Definitions
      At line 2259 in file MKL46Z4.s
   Uses
      None
Comment: LCD_WF8B_BPGLCD45_SHIFT unused
LCD_WF8B_BPGLCD46_MASK 00000040

Symbol: LCD_WF8B_BPGLCD46_MASK
   Definitions
      At line 2250 in file MKL46Z4.s
   Uses
      None
Comment: LCD_WF8B_BPGLCD46_MASK unused
LCD_WF8B_BPGLCD46_SHIFT 00000006

Symbol: LCD_WF8B_BPGLCD46_SHIFT
   Definitions
      At line 2251 in file MKL46Z4.s
   Uses
      None
Comment: LCD_WF8B_BPGLCD46_SHIFT unused
LCD_WF8B_BPGLCD47_MASK 00000040

Symbol: LCD_WF8B_BPGLCD47_MASK
   Definitions
      At line 2242 in file MKL46Z4.s
   Uses
      None
Comment: LCD_WF8B_BPGLCD47_MASK unused
LCD_WF8B_BPGLCD47_SHIFT 00000006

Symbol: LCD_WF8B_BPGLCD47_SHIFT
   Definitions
      At line 2243 in file MKL46Z4.s
   Uses
      None
Comment: LCD_WF8B_BPGLCD47_SHIFT unused
LCD_WF8B_BPGLCD48_MASK 00000040

Symbol: LCD_WF8B_BPGLCD48_MASK
   Definitions
      At line 2236 in file MKL46Z4.s
   Uses
      None
Comment: LCD_WF8B_BPGLCD48_MASK unused
LCD_WF8B_BPGLCD48_SHIFT 00000006

Symbol: LCD_WF8B_BPGLCD48_SHIFT



ARM Macro Assembler    Page 205 Alphabetic symbol ordering
Absolute symbols

   Definitions
      At line 2237 in file MKL46Z4.s
   Uses
      None
Comment: LCD_WF8B_BPGLCD48_SHIFT unused
LCD_WF8B_BPGLCD49_MASK 00000040

Symbol: LCD_WF8B_BPGLCD49_MASK
   Definitions
      At line 2226 in file MKL46Z4.s
   Uses
      None
Comment: LCD_WF8B_BPGLCD49_MASK unused
LCD_WF8B_BPGLCD49_SHIFT 00000006

Symbol: LCD_WF8B_BPGLCD49_SHIFT
   Definitions
      At line 2227 in file MKL46Z4.s
   Uses
      None
Comment: LCD_WF8B_BPGLCD49_SHIFT unused
LCD_WF8B_BPGLCD4_MASK 00000040

Symbol: LCD_WF8B_BPGLCD4_MASK
   Definitions
      At line 2264 in file MKL46Z4.s
   Uses
      None
Comment: LCD_WF8B_BPGLCD4_MASK unused
LCD_WF8B_BPGLCD4_SHIFT 00000006

Symbol: LCD_WF8B_BPGLCD4_SHIFT
   Definitions
      At line 2265 in file MKL46Z4.s
   Uses
      None
Comment: LCD_WF8B_BPGLCD4_SHIFT unused
LCD_WF8B_BPGLCD50_MASK 00000040

Symbol: LCD_WF8B_BPGLCD50_MASK
   Definitions
      At line 2218 in file MKL46Z4.s
   Uses
      None
Comment: LCD_WF8B_BPGLCD50_MASK unused
LCD_WF8B_BPGLCD50_SHIFT 00000006

Symbol: LCD_WF8B_BPGLCD50_SHIFT
   Definitions
      At line 2219 in file MKL46Z4.s
   Uses
      None
Comment: LCD_WF8B_BPGLCD50_SHIFT unused
LCD_WF8B_BPGLCD51_MASK 00000040

Symbol: LCD_WF8B_BPGLCD51_MASK
   Definitions
      At line 2210 in file MKL46Z4.s
   Uses



ARM Macro Assembler    Page 206 Alphabetic symbol ordering
Absolute symbols

      None
Comment: LCD_WF8B_BPGLCD51_MASK unused
LCD_WF8B_BPGLCD51_SHIFT 00000006

Symbol: LCD_WF8B_BPGLCD51_SHIFT
   Definitions
      At line 2211 in file MKL46Z4.s
   Uses
      None
Comment: LCD_WF8B_BPGLCD51_SHIFT unused
LCD_WF8B_BPGLCD52_MASK 00000040

Symbol: LCD_WF8B_BPGLCD52_MASK
   Definitions
      At line 2202 in file MKL46Z4.s
   Uses
      None
Comment: LCD_WF8B_BPGLCD52_MASK unused
LCD_WF8B_BPGLCD52_SHIFT 00000006

Symbol: LCD_WF8B_BPGLCD52_SHIFT
   Definitions
      At line 2203 in file MKL46Z4.s
   Uses
      None
Comment: LCD_WF8B_BPGLCD52_SHIFT unused
LCD_WF8B_BPGLCD53_MASK 00000040

Symbol: LCD_WF8B_BPGLCD53_MASK
   Definitions
      At line 2194 in file MKL46Z4.s
   Uses
      None
Comment: LCD_WF8B_BPGLCD53_MASK unused
LCD_WF8B_BPGLCD53_SHIFT 00000006

Symbol: LCD_WF8B_BPGLCD53_SHIFT
   Definitions
      At line 2195 in file MKL46Z4.s
   Uses
      None
Comment: LCD_WF8B_BPGLCD53_SHIFT unused
LCD_WF8B_BPGLCD54_MASK 00000040

Symbol: LCD_WF8B_BPGLCD54_MASK
   Definitions
      At line 2186 in file MKL46Z4.s
   Uses
      None
Comment: LCD_WF8B_BPGLCD54_MASK unused
LCD_WF8B_BPGLCD54_SHIFT 00000006

Symbol: LCD_WF8B_BPGLCD54_SHIFT
   Definitions
      At line 2187 in file MKL46Z4.s
   Uses
      None
Comment: LCD_WF8B_BPGLCD54_SHIFT unused
LCD_WF8B_BPGLCD55_MASK 00000040



ARM Macro Assembler    Page 207 Alphabetic symbol ordering
Absolute symbols


Symbol: LCD_WF8B_BPGLCD55_MASK
   Definitions
      At line 2178 in file MKL46Z4.s
   Uses
      None
Comment: LCD_WF8B_BPGLCD55_MASK unused
LCD_WF8B_BPGLCD55_SHIFT 00000006

Symbol: LCD_WF8B_BPGLCD55_SHIFT
   Definitions
      At line 2179 in file MKL46Z4.s
   Uses
      None
Comment: LCD_WF8B_BPGLCD55_SHIFT unused
LCD_WF8B_BPGLCD56_MASK 00000040

Symbol: LCD_WF8B_BPGLCD56_MASK
   Definitions
      At line 2206 in file MKL46Z4.s
   Uses
      None
Comment: LCD_WF8B_BPGLCD56_MASK unused
LCD_WF8B_BPGLCD56_SHIFT 00000006

Symbol: LCD_WF8B_BPGLCD56_SHIFT
   Definitions
      At line 2207 in file MKL46Z4.s
   Uses
      None
Comment: LCD_WF8B_BPGLCD56_SHIFT unused
LCD_WF8B_BPGLCD57_MASK 00000040

Symbol: LCD_WF8B_BPGLCD57_MASK
   Definitions
      At line 2200 in file MKL46Z4.s
   Uses
      None
Comment: LCD_WF8B_BPGLCD57_MASK unused
LCD_WF8B_BPGLCD57_SHIFT 00000006

Symbol: LCD_WF8B_BPGLCD57_SHIFT
   Definitions
      At line 2201 in file MKL46Z4.s
   Uses
      None
Comment: LCD_WF8B_BPGLCD57_SHIFT unused
LCD_WF8B_BPGLCD58_MASK 00000040

Symbol: LCD_WF8B_BPGLCD58_MASK
   Definitions
      At line 2196 in file MKL46Z4.s
   Uses
      None
Comment: LCD_WF8B_BPGLCD58_MASK unused
LCD_WF8B_BPGLCD58_SHIFT 00000006

Symbol: LCD_WF8B_BPGLCD58_SHIFT
   Definitions



ARM Macro Assembler    Page 208 Alphabetic symbol ordering
Absolute symbols

      At line 2197 in file MKL46Z4.s
   Uses
      None
Comment: LCD_WF8B_BPGLCD58_SHIFT unused
LCD_WF8B_BPGLCD59_MASK 00000040

Symbol: LCD_WF8B_BPGLCD59_MASK
   Definitions
      At line 2192 in file MKL46Z4.s
   Uses
      None
Comment: LCD_WF8B_BPGLCD59_MASK unused
LCD_WF8B_BPGLCD59_SHIFT 00000006

Symbol: LCD_WF8B_BPGLCD59_SHIFT
   Definitions
      At line 2193 in file MKL46Z4.s
   Uses
      None
Comment: LCD_WF8B_BPGLCD59_SHIFT unused
LCD_WF8B_BPGLCD5_MASK 00000040

Symbol: LCD_WF8B_BPGLCD5_MASK
   Definitions
      At line 2240 in file MKL46Z4.s
   Uses
      None
Comment: LCD_WF8B_BPGLCD5_MASK unused
LCD_WF8B_BPGLCD5_SHIFT 00000006

Symbol: LCD_WF8B_BPGLCD5_SHIFT
   Definitions
      At line 2241 in file MKL46Z4.s
   Uses
      None
Comment: LCD_WF8B_BPGLCD5_SHIFT unused
LCD_WF8B_BPGLCD60_MASK 00000040

Symbol: LCD_WF8B_BPGLCD60_MASK
   Definitions
      At line 2190 in file MKL46Z4.s
   Uses
      None
Comment: LCD_WF8B_BPGLCD60_MASK unused
LCD_WF8B_BPGLCD60_SHIFT 00000006

Symbol: LCD_WF8B_BPGLCD60_SHIFT
   Definitions
      At line 2191 in file MKL46Z4.s
   Uses
      None
Comment: LCD_WF8B_BPGLCD60_SHIFT unused
LCD_WF8B_BPGLCD61_MASK 00000040

Symbol: LCD_WF8B_BPGLCD61_MASK
   Definitions
      At line 2188 in file MKL46Z4.s
   Uses
      None



ARM Macro Assembler    Page 209 Alphabetic symbol ordering
Absolute symbols

Comment: LCD_WF8B_BPGLCD61_MASK unused
LCD_WF8B_BPGLCD61_SHIFT 00000006

Symbol: LCD_WF8B_BPGLCD61_SHIFT
   Definitions
      At line 2189 in file MKL46Z4.s
   Uses
      None
Comment: LCD_WF8B_BPGLCD61_SHIFT unused
LCD_WF8B_BPGLCD62_MASK 00000040

Symbol: LCD_WF8B_BPGLCD62_MASK
   Definitions
      At line 2184 in file MKL46Z4.s
   Uses
      None
Comment: LCD_WF8B_BPGLCD62_MASK unused
LCD_WF8B_BPGLCD62_SHIFT 00000006

Symbol: LCD_WF8B_BPGLCD62_SHIFT
   Definitions
      At line 2185 in file MKL46Z4.s
   Uses
      None
Comment: LCD_WF8B_BPGLCD62_SHIFT unused
LCD_WF8B_BPGLCD63_MASK 00000040

Symbol: LCD_WF8B_BPGLCD63_MASK
   Definitions
      At line 2180 in file MKL46Z4.s
   Uses
      None
Comment: LCD_WF8B_BPGLCD63_MASK unused
LCD_WF8B_BPGLCD63_SHIFT 00000006

Symbol: LCD_WF8B_BPGLCD63_SHIFT
   Definitions
      At line 2181 in file MKL46Z4.s
   Uses
      None
Comment: LCD_WF8B_BPGLCD63_SHIFT unused
LCD_WF8B_BPGLCD6_MASK 00000040

Symbol: LCD_WF8B_BPGLCD6_MASK
   Definitions
      At line 2208 in file MKL46Z4.s
   Uses
      None
Comment: LCD_WF8B_BPGLCD6_MASK unused
LCD_WF8B_BPGLCD6_SHIFT 00000006

Symbol: LCD_WF8B_BPGLCD6_SHIFT
   Definitions
      At line 2209 in file MKL46Z4.s
   Uses
      None
Comment: LCD_WF8B_BPGLCD6_SHIFT unused
LCD_WF8B_BPGLCD7_MASK 00000040




ARM Macro Assembler    Page 210 Alphabetic symbol ordering
Absolute symbols

Symbol: LCD_WF8B_BPGLCD7_MASK
   Definitions
      At line 2204 in file MKL46Z4.s
   Uses
      None
Comment: LCD_WF8B_BPGLCD7_MASK unused
LCD_WF8B_BPGLCD7_SHIFT 00000006

Symbol: LCD_WF8B_BPGLCD7_SHIFT
   Definitions
      At line 2205 in file MKL46Z4.s
   Uses
      None
Comment: LCD_WF8B_BPGLCD7_SHIFT unused
LCD_WF8B_BPGLCD8_MASK 00000040

Symbol: LCD_WF8B_BPGLCD8_MASK
   Definitions
      At line 2224 in file MKL46Z4.s
   Uses
      None
Comment: LCD_WF8B_BPGLCD8_MASK unused
LCD_WF8B_BPGLCD8_SHIFT 00000006

Symbol: LCD_WF8B_BPGLCD8_SHIFT
   Definitions
      At line 2225 in file MKL46Z4.s
   Uses
      None
Comment: LCD_WF8B_BPGLCD8_SHIFT unused
LCD_WF8B_BPGLCD9_MASK 00000040

Symbol: LCD_WF8B_BPGLCD9_MASK
   Definitions
      At line 2230 in file MKL46Z4.s
   Uses
      None
Comment: LCD_WF8B_BPGLCD9_MASK unused
LCD_WF8B_BPGLCD9_SHIFT 00000006

Symbol: LCD_WF8B_BPGLCD9_SHIFT
   Definitions
      At line 2231 in file MKL46Z4.s
   Uses
      None
Comment: LCD_WF8B_BPGLCD9_SHIFT unused
LCD_WF8B_BPHLCD0_MASK 00000080

Symbol: LCD_WF8B_BPHLCD0_MASK
   Definitions
      At line 2318 in file MKL46Z4.s
   Uses
      None
Comment: LCD_WF8B_BPHLCD0_MASK unused
LCD_WF8B_BPHLCD0_SHIFT 00000007

Symbol: LCD_WF8B_BPHLCD0_SHIFT
   Definitions
      At line 2319 in file MKL46Z4.s



ARM Macro Assembler    Page 211 Alphabetic symbol ordering
Absolute symbols

   Uses
      None
Comment: LCD_WF8B_BPHLCD0_SHIFT unused
LCD_WF8B_BPHLCD10_MASK 00000080

Symbol: LCD_WF8B_BPHLCD10_MASK
   Definitions
      At line 2424 in file MKL46Z4.s
   Uses
      None
Comment: LCD_WF8B_BPHLCD10_MASK unused
LCD_WF8B_BPHLCD10_SHIFT 00000007

Symbol: LCD_WF8B_BPHLCD10_SHIFT
   Definitions
      At line 2425 in file MKL46Z4.s
   Uses
      None
Comment: LCD_WF8B_BPHLCD10_SHIFT unused
LCD_WF8B_BPHLCD11_MASK 00000080

Symbol: LCD_WF8B_BPHLCD11_MASK
   Definitions
      At line 2422 in file MKL46Z4.s
   Uses
      None
Comment: LCD_WF8B_BPHLCD11_MASK unused
LCD_WF8B_BPHLCD11_SHIFT 00000007

Symbol: LCD_WF8B_BPHLCD11_SHIFT
   Definitions
      At line 2423 in file MKL46Z4.s
   Uses
      None
Comment: LCD_WF8B_BPHLCD11_SHIFT unused
LCD_WF8B_BPHLCD12_MASK 00000080

Symbol: LCD_WF8B_BPHLCD12_MASK
   Definitions
      At line 2420 in file MKL46Z4.s
   Uses
      None
Comment: LCD_WF8B_BPHLCD12_MASK unused
LCD_WF8B_BPHLCD12_SHIFT 00000007

Symbol: LCD_WF8B_BPHLCD12_SHIFT
   Definitions
      At line 2421 in file MKL46Z4.s
   Uses
      None
Comment: LCD_WF8B_BPHLCD12_SHIFT unused
LCD_WF8B_BPHLCD13_MASK 00000080

Symbol: LCD_WF8B_BPHLCD13_MASK
   Definitions
      At line 2418 in file MKL46Z4.s
   Uses
      None
Comment: LCD_WF8B_BPHLCD13_MASK unused



ARM Macro Assembler    Page 212 Alphabetic symbol ordering
Absolute symbols

LCD_WF8B_BPHLCD13_SHIFT 00000007

Symbol: LCD_WF8B_BPHLCD13_SHIFT
   Definitions
      At line 2419 in file MKL46Z4.s
   Uses
      None
Comment: LCD_WF8B_BPHLCD13_SHIFT unused
LCD_WF8B_BPHLCD14_MASK 00000080

Symbol: LCD_WF8B_BPHLCD14_MASK
   Definitions
      At line 2416 in file MKL46Z4.s
   Uses
      None
Comment: LCD_WF8B_BPHLCD14_MASK unused
LCD_WF8B_BPHLCD14_SHIFT 00000007

Symbol: LCD_WF8B_BPHLCD14_SHIFT
   Definitions
      At line 2417 in file MKL46Z4.s
   Uses
      None
Comment: LCD_WF8B_BPHLCD14_SHIFT unused
LCD_WF8B_BPHLCD15_MASK 00000080

Symbol: LCD_WF8B_BPHLCD15_MASK
   Definitions
      At line 2412 in file MKL46Z4.s
   Uses
      None
Comment: LCD_WF8B_BPHLCD15_MASK unused
LCD_WF8B_BPHLCD15_SHIFT 00000007

Symbol: LCD_WF8B_BPHLCD15_SHIFT
   Definitions
      At line 2413 in file MKL46Z4.s
   Uses
      None
Comment: LCD_WF8B_BPHLCD15_SHIFT unused
LCD_WF8B_BPHLCD16_MASK 00000080

Symbol: LCD_WF8B_BPHLCD16_MASK
   Definitions
      At line 2410 in file MKL46Z4.s
   Uses
      None
Comment: LCD_WF8B_BPHLCD16_MASK unused
LCD_WF8B_BPHLCD16_SHIFT 00000007

Symbol: LCD_WF8B_BPHLCD16_SHIFT
   Definitions
      At line 2411 in file MKL46Z4.s
   Uses
      None
Comment: LCD_WF8B_BPHLCD16_SHIFT unused
LCD_WF8B_BPHLCD17_MASK 00000080

Symbol: LCD_WF8B_BPHLCD17_MASK



ARM Macro Assembler    Page 213 Alphabetic symbol ordering
Absolute symbols

   Definitions
      At line 2408 in file MKL46Z4.s
   Uses
      None
Comment: LCD_WF8B_BPHLCD17_MASK unused
LCD_WF8B_BPHLCD17_SHIFT 00000007

Symbol: LCD_WF8B_BPHLCD17_SHIFT
   Definitions
      At line 2409 in file MKL46Z4.s
   Uses
      None
Comment: LCD_WF8B_BPHLCD17_SHIFT unused
LCD_WF8B_BPHLCD18_MASK 00000080

Symbol: LCD_WF8B_BPHLCD18_MASK
   Definitions
      At line 2406 in file MKL46Z4.s
   Uses
      None
Comment: LCD_WF8B_BPHLCD18_MASK unused
LCD_WF8B_BPHLCD18_SHIFT 00000007

Symbol: LCD_WF8B_BPHLCD18_SHIFT
   Definitions
      At line 2407 in file MKL46Z4.s
   Uses
      None
Comment: LCD_WF8B_BPHLCD18_SHIFT unused
LCD_WF8B_BPHLCD19_MASK 00000080

Symbol: LCD_WF8B_BPHLCD19_MASK
   Definitions
      At line 2404 in file MKL46Z4.s
   Uses
      None
Comment: LCD_WF8B_BPHLCD19_MASK unused
LCD_WF8B_BPHLCD19_SHIFT 00000007

Symbol: LCD_WF8B_BPHLCD19_SHIFT
   Definitions
      At line 2405 in file MKL46Z4.s
   Uses
      None
Comment: LCD_WF8B_BPHLCD19_SHIFT unused
LCD_WF8B_BPHLCD1_MASK 00000080

Symbol: LCD_WF8B_BPHLCD1_MASK
   Definitions
      At line 2334 in file MKL46Z4.s
   Uses
      None
Comment: LCD_WF8B_BPHLCD1_MASK unused
LCD_WF8B_BPHLCD1_SHIFT 00000007

Symbol: LCD_WF8B_BPHLCD1_SHIFT
   Definitions
      At line 2335 in file MKL46Z4.s
   Uses



ARM Macro Assembler    Page 214 Alphabetic symbol ordering
Absolute symbols

      None
Comment: LCD_WF8B_BPHLCD1_SHIFT unused
LCD_WF8B_BPHLCD20_MASK 00000080

Symbol: LCD_WF8B_BPHLCD20_MASK
   Definitions
      At line 2402 in file MKL46Z4.s
   Uses
      None
Comment: LCD_WF8B_BPHLCD20_MASK unused
LCD_WF8B_BPHLCD20_SHIFT 00000007

Symbol: LCD_WF8B_BPHLCD20_SHIFT
   Definitions
      At line 2403 in file MKL46Z4.s
   Uses
      None
Comment: LCD_WF8B_BPHLCD20_SHIFT unused
LCD_WF8B_BPHLCD21_MASK 00000080

Symbol: LCD_WF8B_BPHLCD21_MASK
   Definitions
      At line 2400 in file MKL46Z4.s
   Uses
      None
Comment: LCD_WF8B_BPHLCD21_MASK unused
LCD_WF8B_BPHLCD21_SHIFT 00000007

Symbol: LCD_WF8B_BPHLCD21_SHIFT
   Definitions
      At line 2401 in file MKL46Z4.s
   Uses
      None
Comment: LCD_WF8B_BPHLCD21_SHIFT unused
LCD_WF8B_BPHLCD22_MASK 00000080

Symbol: LCD_WF8B_BPHLCD22_MASK
   Definitions
      At line 2396 in file MKL46Z4.s
   Uses
      None
Comment: LCD_WF8B_BPHLCD22_MASK unused
LCD_WF8B_BPHLCD22_SHIFT 00000007

Symbol: LCD_WF8B_BPHLCD22_SHIFT
   Definitions
      At line 2397 in file MKL46Z4.s
   Uses
      None
Comment: LCD_WF8B_BPHLCD22_SHIFT unused
LCD_WF8B_BPHLCD23_MASK 00000080

Symbol: LCD_WF8B_BPHLCD23_MASK
   Definitions
      At line 2394 in file MKL46Z4.s
   Uses
      None
Comment: LCD_WF8B_BPHLCD23_MASK unused
LCD_WF8B_BPHLCD23_SHIFT 00000007



ARM Macro Assembler    Page 215 Alphabetic symbol ordering
Absolute symbols


Symbol: LCD_WF8B_BPHLCD23_SHIFT
   Definitions
      At line 2395 in file MKL46Z4.s
   Uses
      None
Comment: LCD_WF8B_BPHLCD23_SHIFT unused
LCD_WF8B_BPHLCD24_MASK 00000080

Symbol: LCD_WF8B_BPHLCD24_MASK
   Definitions
      At line 2392 in file MKL46Z4.s
   Uses
      None
Comment: LCD_WF8B_BPHLCD24_MASK unused
LCD_WF8B_BPHLCD24_SHIFT 00000007

Symbol: LCD_WF8B_BPHLCD24_SHIFT
   Definitions
      At line 2393 in file MKL46Z4.s
   Uses
      None
Comment: LCD_WF8B_BPHLCD24_SHIFT unused
LCD_WF8B_BPHLCD25_MASK 00000080

Symbol: LCD_WF8B_BPHLCD25_MASK
   Definitions
      At line 2390 in file MKL46Z4.s
   Uses
      None
Comment: LCD_WF8B_BPHLCD25_MASK unused
LCD_WF8B_BPHLCD25_SHIFT 00000007

Symbol: LCD_WF8B_BPHLCD25_SHIFT
   Definitions
      At line 2391 in file MKL46Z4.s
   Uses
      None
Comment: LCD_WF8B_BPHLCD25_SHIFT unused
LCD_WF8B_BPHLCD26_MASK 00000080

Symbol: LCD_WF8B_BPHLCD26_MASK
   Definitions
      At line 2388 in file MKL46Z4.s
   Uses
      None
Comment: LCD_WF8B_BPHLCD26_MASK unused
LCD_WF8B_BPHLCD26_SHIFT 00000007

Symbol: LCD_WF8B_BPHLCD26_SHIFT
   Definitions
      At line 2389 in file MKL46Z4.s
   Uses
      None
Comment: LCD_WF8B_BPHLCD26_SHIFT unused
LCD_WF8B_BPHLCD27_MASK 00000080

Symbol: LCD_WF8B_BPHLCD27_MASK
   Definitions



ARM Macro Assembler    Page 216 Alphabetic symbol ordering
Absolute symbols

      At line 2386 in file MKL46Z4.s
   Uses
      None
Comment: LCD_WF8B_BPHLCD27_MASK unused
LCD_WF8B_BPHLCD27_SHIFT 00000007

Symbol: LCD_WF8B_BPHLCD27_SHIFT
   Definitions
      At line 2387 in file MKL46Z4.s
   Uses
      None
Comment: LCD_WF8B_BPHLCD27_SHIFT unused
LCD_WF8B_BPHLCD28_MASK 00000080

Symbol: LCD_WF8B_BPHLCD28_MASK
   Definitions
      At line 2384 in file MKL46Z4.s
   Uses
      None
Comment: LCD_WF8B_BPHLCD28_MASK unused
LCD_WF8B_BPHLCD28_SHIFT 00000007

Symbol: LCD_WF8B_BPHLCD28_SHIFT
   Definitions
      At line 2385 in file MKL46Z4.s
   Uses
      None
Comment: LCD_WF8B_BPHLCD28_SHIFT unused
LCD_WF8B_BPHLCD29_MASK 00000080

Symbol: LCD_WF8B_BPHLCD29_MASK
   Definitions
      At line 2380 in file MKL46Z4.s
   Uses
      None
Comment: LCD_WF8B_BPHLCD29_MASK unused
LCD_WF8B_BPHLCD29_SHIFT 00000007

Symbol: LCD_WF8B_BPHLCD29_SHIFT
   Definitions
      At line 2381 in file MKL46Z4.s
   Uses
      None
Comment: LCD_WF8B_BPHLCD29_SHIFT unused
LCD_WF8B_BPHLCD2_MASK 00000080

Symbol: LCD_WF8B_BPHLCD2_MASK
   Definitions
      At line 2350 in file MKL46Z4.s
   Uses
      None
Comment: LCD_WF8B_BPHLCD2_MASK unused
LCD_WF8B_BPHLCD2_SHIFT 00000007

Symbol: LCD_WF8B_BPHLCD2_SHIFT
   Definitions
      At line 2351 in file MKL46Z4.s
   Uses
      None



ARM Macro Assembler    Page 217 Alphabetic symbol ordering
Absolute symbols

Comment: LCD_WF8B_BPHLCD2_SHIFT unused
LCD_WF8B_BPHLCD30_MASK 00000080

Symbol: LCD_WF8B_BPHLCD30_MASK
   Definitions
      At line 2378 in file MKL46Z4.s
   Uses
      None
Comment: LCD_WF8B_BPHLCD30_MASK unused
LCD_WF8B_BPHLCD30_SHIFT 00000007

Symbol: LCD_WF8B_BPHLCD30_SHIFT
   Definitions
      At line 2379 in file MKL46Z4.s
   Uses
      None
Comment: LCD_WF8B_BPHLCD30_SHIFT unused
LCD_WF8B_BPHLCD31_MASK 00000080

Symbol: LCD_WF8B_BPHLCD31_MASK
   Definitions
      At line 2376 in file MKL46Z4.s
   Uses
      None
Comment: LCD_WF8B_BPHLCD31_MASK unused
LCD_WF8B_BPHLCD31_SHIFT 00000007

Symbol: LCD_WF8B_BPHLCD31_SHIFT
   Definitions
      At line 2377 in file MKL46Z4.s
   Uses
      None
Comment: LCD_WF8B_BPHLCD31_SHIFT unused
LCD_WF8B_BPHLCD32_MASK 00000080

Symbol: LCD_WF8B_BPHLCD32_MASK
   Definitions
      At line 2374 in file MKL46Z4.s
   Uses
      None
Comment: LCD_WF8B_BPHLCD32_MASK unused
LCD_WF8B_BPHLCD32_SHIFT 00000007

Symbol: LCD_WF8B_BPHLCD32_SHIFT
   Definitions
      At line 2375 in file MKL46Z4.s
   Uses
      None
Comment: LCD_WF8B_BPHLCD32_SHIFT unused
LCD_WF8B_BPHLCD33_MASK 00000080

Symbol: LCD_WF8B_BPHLCD33_MASK
   Definitions
      At line 2372 in file MKL46Z4.s
   Uses
      None
Comment: LCD_WF8B_BPHLCD33_MASK unused
LCD_WF8B_BPHLCD33_SHIFT 00000007




ARM Macro Assembler    Page 218 Alphabetic symbol ordering
Absolute symbols

Symbol: LCD_WF8B_BPHLCD33_SHIFT
   Definitions
      At line 2373 in file MKL46Z4.s
   Uses
      None
Comment: LCD_WF8B_BPHLCD33_SHIFT unused
LCD_WF8B_BPHLCD34_MASK 00000080

Symbol: LCD_WF8B_BPHLCD34_MASK
   Definitions
      At line 2370 in file MKL46Z4.s
   Uses
      None
Comment: LCD_WF8B_BPHLCD34_MASK unused
LCD_WF8B_BPHLCD34_SHIFT 00000007

Symbol: LCD_WF8B_BPHLCD34_SHIFT
   Definitions
      At line 2371 in file MKL46Z4.s
   Uses
      None
Comment: LCD_WF8B_BPHLCD34_SHIFT unused
LCD_WF8B_BPHLCD35_MASK 00000080

Symbol: LCD_WF8B_BPHLCD35_MASK
   Definitions
      At line 2368 in file MKL46Z4.s
   Uses
      None
Comment: LCD_WF8B_BPHLCD35_MASK unused
LCD_WF8B_BPHLCD35_SHIFT 00000007

Symbol: LCD_WF8B_BPHLCD35_SHIFT
   Definitions
      At line 2369 in file MKL46Z4.s
   Uses
      None
Comment: LCD_WF8B_BPHLCD35_SHIFT unused
LCD_WF8B_BPHLCD36_MASK 00000080

Symbol: LCD_WF8B_BPHLCD36_MASK
   Definitions
      At line 2364 in file MKL46Z4.s
   Uses
      None
Comment: LCD_WF8B_BPHLCD36_MASK unused
LCD_WF8B_BPHLCD36_SHIFT 00000007

Symbol: LCD_WF8B_BPHLCD36_SHIFT
   Definitions
      At line 2365 in file MKL46Z4.s
   Uses
      None
Comment: LCD_WF8B_BPHLCD36_SHIFT unused
LCD_WF8B_BPHLCD37_MASK 00000080

Symbol: LCD_WF8B_BPHLCD37_MASK
   Definitions
      At line 2362 in file MKL46Z4.s



ARM Macro Assembler    Page 219 Alphabetic symbol ordering
Absolute symbols

   Uses
      None
Comment: LCD_WF8B_BPHLCD37_MASK unused
LCD_WF8B_BPHLCD37_SHIFT 00000007

Symbol: LCD_WF8B_BPHLCD37_SHIFT
   Definitions
      At line 2363 in file MKL46Z4.s
   Uses
      None
Comment: LCD_WF8B_BPHLCD37_SHIFT unused
LCD_WF8B_BPHLCD38_MASK 00000080

Symbol: LCD_WF8B_BPHLCD38_MASK
   Definitions
      At line 2360 in file MKL46Z4.s
   Uses
      None
Comment: LCD_WF8B_BPHLCD38_MASK unused
LCD_WF8B_BPHLCD38_SHIFT 00000007

Symbol: LCD_WF8B_BPHLCD38_SHIFT
   Definitions
      At line 2361 in file MKL46Z4.s
   Uses
      None
Comment: LCD_WF8B_BPHLCD38_SHIFT unused
LCD_WF8B_BPHLCD39_MASK 00000080

Symbol: LCD_WF8B_BPHLCD39_MASK
   Definitions
      At line 2358 in file MKL46Z4.s
   Uses
      None
Comment: LCD_WF8B_BPHLCD39_MASK unused
LCD_WF8B_BPHLCD39_SHIFT 00000007

Symbol: LCD_WF8B_BPHLCD39_SHIFT
   Definitions
      At line 2359 in file MKL46Z4.s
   Uses
      None
Comment: LCD_WF8B_BPHLCD39_SHIFT unused
LCD_WF8B_BPHLCD3_MASK 00000080

Symbol: LCD_WF8B_BPHLCD3_MASK
   Definitions
      At line 2366 in file MKL46Z4.s
   Uses
      None
Comment: LCD_WF8B_BPHLCD3_MASK unused
LCD_WF8B_BPHLCD3_SHIFT 00000007

Symbol: LCD_WF8B_BPHLCD3_SHIFT
   Definitions
      At line 2367 in file MKL46Z4.s
   Uses
      None
Comment: LCD_WF8B_BPHLCD3_SHIFT unused



ARM Macro Assembler    Page 220 Alphabetic symbol ordering
Absolute symbols

LCD_WF8B_BPHLCD40_MASK 00000080

Symbol: LCD_WF8B_BPHLCD40_MASK
   Definitions
      At line 2356 in file MKL46Z4.s
   Uses
      None
Comment: LCD_WF8B_BPHLCD40_MASK unused
LCD_WF8B_BPHLCD40_SHIFT 00000007

Symbol: LCD_WF8B_BPHLCD40_SHIFT
   Definitions
      At line 2357 in file MKL46Z4.s
   Uses
      None
Comment: LCD_WF8B_BPHLCD40_SHIFT unused
LCD_WF8B_BPHLCD41_MASK 00000080

Symbol: LCD_WF8B_BPHLCD41_MASK
   Definitions
      At line 2354 in file MKL46Z4.s
   Uses
      None
Comment: LCD_WF8B_BPHLCD41_MASK unused
LCD_WF8B_BPHLCD41_SHIFT 00000007

Symbol: LCD_WF8B_BPHLCD41_SHIFT
   Definitions
      At line 2355 in file MKL46Z4.s
   Uses
      None
Comment: LCD_WF8B_BPHLCD41_SHIFT unused
LCD_WF8B_BPHLCD42_MASK 00000080

Symbol: LCD_WF8B_BPHLCD42_MASK
   Definitions
      At line 2352 in file MKL46Z4.s
   Uses
      None
Comment: LCD_WF8B_BPHLCD42_MASK unused
LCD_WF8B_BPHLCD42_SHIFT 00000007

Symbol: LCD_WF8B_BPHLCD42_SHIFT
   Definitions
      At line 2353 in file MKL46Z4.s
   Uses
      None
Comment: LCD_WF8B_BPHLCD42_SHIFT unused
LCD_WF8B_BPHLCD43_MASK 00000080

Symbol: LCD_WF8B_BPHLCD43_MASK
   Definitions
      At line 2348 in file MKL46Z4.s
   Uses
      None
Comment: LCD_WF8B_BPHLCD43_MASK unused
LCD_WF8B_BPHLCD43_SHIFT 00000007

Symbol: LCD_WF8B_BPHLCD43_SHIFT



ARM Macro Assembler    Page 221 Alphabetic symbol ordering
Absolute symbols

   Definitions
      At line 2349 in file MKL46Z4.s
   Uses
      None
Comment: LCD_WF8B_BPHLCD43_SHIFT unused
LCD_WF8B_BPHLCD44_MASK 00000080

Symbol: LCD_WF8B_BPHLCD44_MASK
   Definitions
      At line 2346 in file MKL46Z4.s
   Uses
      None
Comment: LCD_WF8B_BPHLCD44_MASK unused
LCD_WF8B_BPHLCD44_SHIFT 00000007

Symbol: LCD_WF8B_BPHLCD44_SHIFT
   Definitions
      At line 2347 in file MKL46Z4.s
   Uses
      None
Comment: LCD_WF8B_BPHLCD44_SHIFT unused
LCD_WF8B_BPHLCD45_MASK 00000080

Symbol: LCD_WF8B_BPHLCD45_MASK
   Definitions
      At line 2344 in file MKL46Z4.s
   Uses
      None
Comment: LCD_WF8B_BPHLCD45_MASK unused
LCD_WF8B_BPHLCD45_SHIFT 00000007

Symbol: LCD_WF8B_BPHLCD45_SHIFT
   Definitions
      At line 2345 in file MKL46Z4.s
   Uses
      None
Comment: LCD_WF8B_BPHLCD45_SHIFT unused
LCD_WF8B_BPHLCD46_MASK 00000080

Symbol: LCD_WF8B_BPHLCD46_MASK
   Definitions
      At line 2342 in file MKL46Z4.s
   Uses
      None
Comment: LCD_WF8B_BPHLCD46_MASK unused
LCD_WF8B_BPHLCD46_SHIFT 00000007

Symbol: LCD_WF8B_BPHLCD46_SHIFT
   Definitions
      At line 2343 in file MKL46Z4.s
   Uses
      None
Comment: LCD_WF8B_BPHLCD46_SHIFT unused
LCD_WF8B_BPHLCD47_MASK 00000080

Symbol: LCD_WF8B_BPHLCD47_MASK
   Definitions
      At line 2340 in file MKL46Z4.s
   Uses



ARM Macro Assembler    Page 222 Alphabetic symbol ordering
Absolute symbols

      None
Comment: LCD_WF8B_BPHLCD47_MASK unused
LCD_WF8B_BPHLCD47_SHIFT 00000007

Symbol: LCD_WF8B_BPHLCD47_SHIFT
   Definitions
      At line 2341 in file MKL46Z4.s
   Uses
      None
Comment: LCD_WF8B_BPHLCD47_SHIFT unused
LCD_WF8B_BPHLCD48_MASK 00000080

Symbol: LCD_WF8B_BPHLCD48_MASK
   Definitions
      At line 2338 in file MKL46Z4.s
   Uses
      None
Comment: LCD_WF8B_BPHLCD48_MASK unused
LCD_WF8B_BPHLCD48_SHIFT 00000007

Symbol: LCD_WF8B_BPHLCD48_SHIFT
   Definitions
      At line 2339 in file MKL46Z4.s
   Uses
      None
Comment: LCD_WF8B_BPHLCD48_SHIFT unused
LCD_WF8B_BPHLCD49_MASK 00000080

Symbol: LCD_WF8B_BPHLCD49_MASK
   Definitions
      At line 2336 in file MKL46Z4.s
   Uses
      None
Comment: LCD_WF8B_BPHLCD49_MASK unused
LCD_WF8B_BPHLCD49_SHIFT 00000007

Symbol: LCD_WF8B_BPHLCD49_SHIFT
   Definitions
      At line 2337 in file MKL46Z4.s
   Uses
      None
Comment: LCD_WF8B_BPHLCD49_SHIFT unused
LCD_WF8B_BPHLCD4_MASK 00000080

Symbol: LCD_WF8B_BPHLCD4_MASK
   Definitions
      At line 2382 in file MKL46Z4.s
   Uses
      None
Comment: LCD_WF8B_BPHLCD4_MASK unused
LCD_WF8B_BPHLCD4_SHIFT 00000007

Symbol: LCD_WF8B_BPHLCD4_SHIFT
   Definitions
      At line 2383 in file MKL46Z4.s
   Uses
      None
Comment: LCD_WF8B_BPHLCD4_SHIFT unused
LCD_WF8B_BPHLCD50_MASK 00000080



ARM Macro Assembler    Page 223 Alphabetic symbol ordering
Absolute symbols


Symbol: LCD_WF8B_BPHLCD50_MASK
   Definitions
      At line 2332 in file MKL46Z4.s
   Uses
      None
Comment: LCD_WF8B_BPHLCD50_MASK unused
LCD_WF8B_BPHLCD50_SHIFT 00000007

Symbol: LCD_WF8B_BPHLCD50_SHIFT
   Definitions
      At line 2333 in file MKL46Z4.s
   Uses
      None
Comment: LCD_WF8B_BPHLCD50_SHIFT unused
LCD_WF8B_BPHLCD51_MASK 00000080

Symbol: LCD_WF8B_BPHLCD51_MASK
   Definitions
      At line 2330 in file MKL46Z4.s
   Uses
      None
Comment: LCD_WF8B_BPHLCD51_MASK unused
LCD_WF8B_BPHLCD51_SHIFT 00000007

Symbol: LCD_WF8B_BPHLCD51_SHIFT
   Definitions
      At line 2331 in file MKL46Z4.s
   Uses
      None
Comment: LCD_WF8B_BPHLCD51_SHIFT unused
LCD_WF8B_BPHLCD52_MASK 00000080

Symbol: LCD_WF8B_BPHLCD52_MASK
   Definitions
      At line 2328 in file MKL46Z4.s
   Uses
      None
Comment: LCD_WF8B_BPHLCD52_MASK unused
LCD_WF8B_BPHLCD52_SHIFT 00000007

Symbol: LCD_WF8B_BPHLCD52_SHIFT
   Definitions
      At line 2329 in file MKL46Z4.s
   Uses
      None
Comment: LCD_WF8B_BPHLCD52_SHIFT unused
LCD_WF8B_BPHLCD53_MASK 00000080

Symbol: LCD_WF8B_BPHLCD53_MASK
   Definitions
      At line 2326 in file MKL46Z4.s
   Uses
      None
Comment: LCD_WF8B_BPHLCD53_MASK unused
LCD_WF8B_BPHLCD53_SHIFT 00000007

Symbol: LCD_WF8B_BPHLCD53_SHIFT
   Definitions



ARM Macro Assembler    Page 224 Alphabetic symbol ordering
Absolute symbols

      At line 2327 in file MKL46Z4.s
   Uses
      None
Comment: LCD_WF8B_BPHLCD53_SHIFT unused
LCD_WF8B_BPHLCD54_MASK 00000080

Symbol: LCD_WF8B_BPHLCD54_MASK
   Definitions
      At line 2324 in file MKL46Z4.s
   Uses
      None
Comment: LCD_WF8B_BPHLCD54_MASK unused
LCD_WF8B_BPHLCD54_SHIFT 00000007

Symbol: LCD_WF8B_BPHLCD54_SHIFT
   Definitions
      At line 2325 in file MKL46Z4.s
   Uses
      None
Comment: LCD_WF8B_BPHLCD54_SHIFT unused
LCD_WF8B_BPHLCD55_MASK 00000080

Symbol: LCD_WF8B_BPHLCD55_MASK
   Definitions
      At line 2322 in file MKL46Z4.s
   Uses
      None
Comment: LCD_WF8B_BPHLCD55_MASK unused
LCD_WF8B_BPHLCD55_SHIFT 00000007

Symbol: LCD_WF8B_BPHLCD55_SHIFT
   Definitions
      At line 2323 in file MKL46Z4.s
   Uses
      None
Comment: LCD_WF8B_BPHLCD55_SHIFT unused
LCD_WF8B_BPHLCD56_MASK 00000080

Symbol: LCD_WF8B_BPHLCD56_MASK
   Definitions
      At line 2320 in file MKL46Z4.s
   Uses
      None
Comment: LCD_WF8B_BPHLCD56_MASK unused
LCD_WF8B_BPHLCD56_SHIFT 00000007

Symbol: LCD_WF8B_BPHLCD56_SHIFT
   Definitions
      At line 2321 in file MKL46Z4.s
   Uses
      None
Comment: LCD_WF8B_BPHLCD56_SHIFT unused
LCD_WF8B_BPHLCD57_MASK 00000080

Symbol: LCD_WF8B_BPHLCD57_MASK
   Definitions
      At line 2316 in file MKL46Z4.s
   Uses
      None



ARM Macro Assembler    Page 225 Alphabetic symbol ordering
Absolute symbols

Comment: LCD_WF8B_BPHLCD57_MASK unused
LCD_WF8B_BPHLCD57_SHIFT 00000007

Symbol: LCD_WF8B_BPHLCD57_SHIFT
   Definitions
      At line 2317 in file MKL46Z4.s
   Uses
      None
Comment: LCD_WF8B_BPHLCD57_SHIFT unused
LCD_WF8B_BPHLCD58_MASK 00000080

Symbol: LCD_WF8B_BPHLCD58_MASK
   Definitions
      At line 2314 in file MKL46Z4.s
   Uses
      None
Comment: LCD_WF8B_BPHLCD58_MASK unused
LCD_WF8B_BPHLCD58_SHIFT 00000007

Symbol: LCD_WF8B_BPHLCD58_SHIFT
   Definitions
      At line 2315 in file MKL46Z4.s
   Uses
      None
Comment: LCD_WF8B_BPHLCD58_SHIFT unused
LCD_WF8B_BPHLCD59_MASK 00000080

Symbol: LCD_WF8B_BPHLCD59_MASK
   Definitions
      At line 2312 in file MKL46Z4.s
   Uses
      None
Comment: LCD_WF8B_BPHLCD59_MASK unused
LCD_WF8B_BPHLCD59_SHIFT 00000007

Symbol: LCD_WF8B_BPHLCD59_SHIFT
   Definitions
      At line 2313 in file MKL46Z4.s
   Uses
      None
Comment: LCD_WF8B_BPHLCD59_SHIFT unused
LCD_WF8B_BPHLCD5_MASK 00000080

Symbol: LCD_WF8B_BPHLCD5_MASK
   Definitions
      At line 2398 in file MKL46Z4.s
   Uses
      None
Comment: LCD_WF8B_BPHLCD5_MASK unused
LCD_WF8B_BPHLCD5_SHIFT 00000007

Symbol: LCD_WF8B_BPHLCD5_SHIFT
   Definitions
      At line 2399 in file MKL46Z4.s
   Uses
      None
Comment: LCD_WF8B_BPHLCD5_SHIFT unused
LCD_WF8B_BPHLCD60_MASK 00000080




ARM Macro Assembler    Page 226 Alphabetic symbol ordering
Absolute symbols

Symbol: LCD_WF8B_BPHLCD60_MASK
   Definitions
      At line 2310 in file MKL46Z4.s
   Uses
      None
Comment: LCD_WF8B_BPHLCD60_MASK unused
LCD_WF8B_BPHLCD60_SHIFT 00000007

Symbol: LCD_WF8B_BPHLCD60_SHIFT
   Definitions
      At line 2311 in file MKL46Z4.s
   Uses
      None
Comment: LCD_WF8B_BPHLCD60_SHIFT unused
LCD_WF8B_BPHLCD61_MASK 00000080

Symbol: LCD_WF8B_BPHLCD61_MASK
   Definitions
      At line 2308 in file MKL46Z4.s
   Uses
      None
Comment: LCD_WF8B_BPHLCD61_MASK unused
LCD_WF8B_BPHLCD61_SHIFT 00000007

Symbol: LCD_WF8B_BPHLCD61_SHIFT
   Definitions
      At line 2309 in file MKL46Z4.s
   Uses
      None
Comment: LCD_WF8B_BPHLCD61_SHIFT unused
LCD_WF8B_BPHLCD62_MASK 00000080

Symbol: LCD_WF8B_BPHLCD62_MASK
   Definitions
      At line 2306 in file MKL46Z4.s
   Uses
      None
Comment: LCD_WF8B_BPHLCD62_MASK unused
LCD_WF8B_BPHLCD62_SHIFT 00000007

Symbol: LCD_WF8B_BPHLCD62_SHIFT
   Definitions
      At line 2307 in file MKL46Z4.s
   Uses
      None
Comment: LCD_WF8B_BPHLCD62_SHIFT unused
LCD_WF8B_BPHLCD63_MASK 00000080

Symbol: LCD_WF8B_BPHLCD63_MASK
   Definitions
      At line 2304 in file MKL46Z4.s
   Uses
      None
Comment: LCD_WF8B_BPHLCD63_MASK unused
LCD_WF8B_BPHLCD63_SHIFT 00000007

Symbol: LCD_WF8B_BPHLCD63_SHIFT
   Definitions
      At line 2305 in file MKL46Z4.s



ARM Macro Assembler    Page 227 Alphabetic symbol ordering
Absolute symbols

   Uses
      None
Comment: LCD_WF8B_BPHLCD63_SHIFT unused
LCD_WF8B_BPHLCD6_MASK 00000080

Symbol: LCD_WF8B_BPHLCD6_MASK
   Definitions
      At line 2414 in file MKL46Z4.s
   Uses
      None
Comment: LCD_WF8B_BPHLCD6_MASK unused
LCD_WF8B_BPHLCD6_SHIFT 00000007

Symbol: LCD_WF8B_BPHLCD6_SHIFT
   Definitions
      At line 2415 in file MKL46Z4.s
   Uses
      None
Comment: LCD_WF8B_BPHLCD6_SHIFT unused
LCD_WF8B_BPHLCD7_MASK 00000080

Symbol: LCD_WF8B_BPHLCD7_MASK
   Definitions
      At line 2430 in file MKL46Z4.s
   Uses
      None
Comment: LCD_WF8B_BPHLCD7_MASK unused
LCD_WF8B_BPHLCD7_SHIFT 00000007

Symbol: LCD_WF8B_BPHLCD7_SHIFT
   Definitions
      At line 2431 in file MKL46Z4.s
   Uses
      None
Comment: LCD_WF8B_BPHLCD7_SHIFT unused
LCD_WF8B_BPHLCD8_MASK 00000080

Symbol: LCD_WF8B_BPHLCD8_MASK
   Definitions
      At line 2428 in file MKL46Z4.s
   Uses
      None
Comment: LCD_WF8B_BPHLCD8_MASK unused
LCD_WF8B_BPHLCD8_SHIFT 00000007

Symbol: LCD_WF8B_BPHLCD8_SHIFT
   Definitions
      At line 2429 in file MKL46Z4.s
   Uses
      None
Comment: LCD_WF8B_BPHLCD8_SHIFT unused
LCD_WF8B_BPHLCD9_MASK 00000080

Symbol: LCD_WF8B_BPHLCD9_MASK
   Definitions
      At line 2426 in file MKL46Z4.s
   Uses
      None
Comment: LCD_WF8B_BPHLCD9_MASK unused



ARM Macro Assembler    Page 228 Alphabetic symbol ordering
Absolute symbols

LCD_WF8B_BPHLCD9_SHIFT 00000007

Symbol: LCD_WF8B_BPHLCD9_SHIFT
   Definitions
      At line 2427 in file MKL46Z4.s
   Uses
      None
Comment: LCD_WF8B_BPHLCD9_SHIFT unused
LCD_WF8_REG 40053028

Symbol: LCD_WF8_REG
   Definitions
      At line 1191 in file MKL46Z4.s
   Uses
      None
Comment: LCD_WF8_REG unused
LCD_WF9_REG 40053028

Symbol: LCD_WF9_REG
   Definitions
      At line 1192 in file MKL46Z4.s
   Uses
      None
Comment: LCD_WF9_REG unused
LCD_WF_A_MASK 00000001

Symbol: LCD_WF_A_MASK
   Definitions
      At line 1390 in file MKL46Z4.s
   Uses
      None
Comment: LCD_WF_A_MASK unused
LCD_WF_A_SHIFT 00000000

Symbol: LCD_WF_A_SHIFT
   Definitions
      At line 1391 in file MKL46Z4.s
   Uses
      None
Comment: LCD_WF_A_SHIFT unused
LCD_WF_B_MASK 00000002

Symbol: LCD_WF_B_MASK
   Definitions
      At line 1392 in file MKL46Z4.s
   Uses
      None
Comment: LCD_WF_B_MASK unused
LCD_WF_B_SHIFT 00000001

Symbol: LCD_WF_B_SHIFT
   Definitions
      At line 1393 in file MKL46Z4.s
   Uses
      None
Comment: LCD_WF_B_SHIFT unused
LCD_WF_C_MASK 00000004

Symbol: LCD_WF_C_MASK



ARM Macro Assembler    Page 229 Alphabetic symbol ordering
Absolute symbols

   Definitions
      At line 1394 in file MKL46Z4.s
   Uses
      None
Comment: LCD_WF_C_MASK unused
LCD_WF_C_SHIFT 00000002

Symbol: LCD_WF_C_SHIFT
   Definitions
      At line 1395 in file MKL46Z4.s
   Uses
      None
Comment: LCD_WF_C_SHIFT unused
LCD_WF_D_MASK 00000008

Symbol: LCD_WF_D_MASK
   Definitions
      At line 1396 in file MKL46Z4.s
   Uses
      None
Comment: LCD_WF_D_MASK unused
LCD_WF_D_SHIFT 00000003

Symbol: LCD_WF_D_SHIFT
   Definitions
      At line 1397 in file MKL46Z4.s
   Uses
      None
Comment: LCD_WF_D_SHIFT unused
LCD_WF_E_MASK 00000010

Symbol: LCD_WF_E_MASK
   Definitions
      At line 1398 in file MKL46Z4.s
   Uses
      None
Comment: LCD_WF_E_MASK unused
LCD_WF_E_SHIFT 00000004

Symbol: LCD_WF_E_SHIFT
   Definitions
      At line 1399 in file MKL46Z4.s
   Uses
      None
Comment: LCD_WF_E_SHIFT unused
LCD_WF_F_MASK 00000020

Symbol: LCD_WF_F_MASK
   Definitions
      At line 1400 in file MKL46Z4.s
   Uses
      None
Comment: LCD_WF_F_MASK unused
LCD_WF_F_SHIFT 00000005

Symbol: LCD_WF_F_SHIFT
   Definitions
      At line 1401 in file MKL46Z4.s
   Uses



ARM Macro Assembler    Page 230 Alphabetic symbol ordering
Absolute symbols

      None
Comment: LCD_WF_F_SHIFT unused
LCD_WF_G_MASK 00000040

Symbol: LCD_WF_G_MASK
   Definitions
      At line 1402 in file MKL46Z4.s
   Uses
      None
Comment: LCD_WF_G_MASK unused
LCD_WF_G_SHIFT 00000006

Symbol: LCD_WF_G_SHIFT
   Definitions
      At line 1403 in file MKL46Z4.s
   Uses
      None
Comment: LCD_WF_G_SHIFT unused
LCD_WF_H_MASK 00000080

Symbol: LCD_WF_H_MASK
   Definitions
      At line 1404 in file MKL46Z4.s
   Uses
      None
Comment: LCD_WF_H_MASK unused
LCD_WF_H_SHIFT 00000007

Symbol: LCD_WF_H_SHIFT
   Definitions
      At line 1405 in file MKL46Z4.s
   Uses
      None
Comment: LCD_WF_H_SHIFT unused
LCD_WF_OFFSET 00000020

Symbol: LCD_WF_OFFSET
   Definitions
      At line 969 in file MKL46Z4.s
   Uses
      At line 994 in file MKL46Z4.s
Comment: LCD_WF_OFFSET used once
LCD_WF_WF0_MASK 000000FF

Symbol: LCD_WF_WF0_MASK
   Definitions
      At line 1249 in file MKL46Z4.s
   Uses
      None
Comment: LCD_WF_WF0_MASK unused
LCD_WF_WF0_SHIFT 00000000

Symbol: LCD_WF_WF0_SHIFT
   Definitions
      At line 1250 in file MKL46Z4.s
   Uses
      None
Comment: LCD_WF_WF0_SHIFT unused
LCD_WF_WF10_MASK 00FF0000



ARM Macro Assembler    Page 231 Alphabetic symbol ordering
Absolute symbols


Symbol: LCD_WF_WF10_MASK
   Definitions
      At line 1343 in file MKL46Z4.s
   Uses
      None
Comment: LCD_WF_WF10_MASK unused
LCD_WF_WF10_SHIFT 00000010

Symbol: LCD_WF_WF10_SHIFT
   Definitions
      At line 1344 in file MKL46Z4.s
   Uses
      None
Comment: LCD_WF_WF10_SHIFT unused
LCD_WF_WF11_MASK FF000000

Symbol: LCD_WF_WF11_MASK
   Definitions
      At line 1367 in file MKL46Z4.s
   Uses
      None
Comment: LCD_WF_WF11_MASK unused
LCD_WF_WF11_SHIFT 00000018

Symbol: LCD_WF_WF11_SHIFT
   Definitions
      At line 1368 in file MKL46Z4.s
   Uses
      None
Comment: LCD_WF_WF11_SHIFT unused
LCD_WF_WF12_MASK 000000FF

Symbol: LCD_WF_WF12_MASK
   Definitions
      At line 1273 in file MKL46Z4.s
   Uses
      None
Comment: LCD_WF_WF12_MASK unused
LCD_WF_WF12_SHIFT 00000000

Symbol: LCD_WF_WF12_SHIFT
   Definitions
      At line 1274 in file MKL46Z4.s
   Uses
      None
Comment: LCD_WF_WF12_SHIFT unused
LCD_WF_WF13_MASK 0000FF00

Symbol: LCD_WF_WF13_MASK
   Definitions
      At line 1295 in file MKL46Z4.s
   Uses
      None
Comment: LCD_WF_WF13_MASK unused
LCD_WF_WF13_SHIFT 00000008

Symbol: LCD_WF_WF13_SHIFT
   Definitions



ARM Macro Assembler    Page 232 Alphabetic symbol ordering
Absolute symbols

      At line 1296 in file MKL46Z4.s
   Uses
      None
Comment: LCD_WF_WF13_SHIFT unused
LCD_WF_WF14_MASK 00FF0000

Symbol: LCD_WF_WF14_MASK
   Definitions
      At line 1331 in file MKL46Z4.s
   Uses
      None
Comment: LCD_WF_WF14_MASK unused
LCD_WF_WF14_SHIFT 00000010

Symbol: LCD_WF_WF14_SHIFT
   Definitions
      At line 1332 in file MKL46Z4.s
   Uses
      None
Comment: LCD_WF_WF14_SHIFT unused
LCD_WF_WF15_MASK FF000000

Symbol: LCD_WF_WF15_MASK
   Definitions
      At line 1375 in file MKL46Z4.s
   Uses
      None
Comment: LCD_WF_WF15_MASK unused
LCD_WF_WF15_SHIFT 00000018

Symbol: LCD_WF_WF15_SHIFT
   Definitions
      At line 1376 in file MKL46Z4.s
   Uses
      None
Comment: LCD_WF_WF15_SHIFT unused
LCD_WF_WF16_MASK 000000FF

Symbol: LCD_WF_WF16_MASK
   Definitions
      At line 1279 in file MKL46Z4.s
   Uses
      None
Comment: LCD_WF_WF16_MASK unused
LCD_WF_WF16_SHIFT 00000000

Symbol: LCD_WF_WF16_SHIFT
   Definitions
      At line 1280 in file MKL46Z4.s
   Uses
      None
Comment: LCD_WF_WF16_SHIFT unused
LCD_WF_WF17_MASK 0000FF00

Symbol: LCD_WF_WF17_MASK
   Definitions
      At line 1291 in file MKL46Z4.s
   Uses
      None



ARM Macro Assembler    Page 233 Alphabetic symbol ordering
Absolute symbols

Comment: LCD_WF_WF17_MASK unused
LCD_WF_WF17_SHIFT 00000008

Symbol: LCD_WF_WF17_SHIFT
   Definitions
      At line 1292 in file MKL46Z4.s
   Uses
      None
Comment: LCD_WF_WF17_SHIFT unused
LCD_WF_WF18_MASK 00FF0000

Symbol: LCD_WF_WF18_MASK
   Definitions
      At line 1321 in file MKL46Z4.s
   Uses
      None
Comment: LCD_WF_WF18_MASK unused
LCD_WF_WF18_SHIFT 00000010

Symbol: LCD_WF_WF18_SHIFT
   Definitions
      At line 1322 in file MKL46Z4.s
   Uses
      None
Comment: LCD_WF_WF18_SHIFT unused
LCD_WF_WF19_MASK FF000000

Symbol: LCD_WF_WF19_MASK
   Definitions
      At line 1373 in file MKL46Z4.s
   Uses
      None
Comment: LCD_WF_WF19_MASK unused
LCD_WF_WF19_SHIFT 00000018

Symbol: LCD_WF_WF19_SHIFT
   Definitions
      At line 1374 in file MKL46Z4.s
   Uses
      None
Comment: LCD_WF_WF19_SHIFT unused
LCD_WF_WF1_MASK 0000FF00

Symbol: LCD_WF_WF1_MASK
   Definitions
      At line 1305 in file MKL46Z4.s
   Uses
      None
Comment: LCD_WF_WF1_MASK unused
LCD_WF_WF1_SHIFT 00000008

Symbol: LCD_WF_WF1_SHIFT
   Definitions
      At line 1306 in file MKL46Z4.s
   Uses
      None
Comment: LCD_WF_WF1_SHIFT unused
LCD_WF_WF20_MASK 000000FF




ARM Macro Assembler    Page 234 Alphabetic symbol ordering
Absolute symbols

Symbol: LCD_WF_WF20_MASK
   Definitions
      At line 1277 in file MKL46Z4.s
   Uses
      None
Comment: LCD_WF_WF20_MASK unused
LCD_WF_WF20_SHIFT 00000000

Symbol: LCD_WF_WF20_SHIFT
   Definitions
      At line 1278 in file MKL46Z4.s
   Uses
      None
Comment: LCD_WF_WF20_SHIFT unused
LCD_WF_WF21_MASK 0000FF00

Symbol: LCD_WF_WF21_MASK
   Definitions
      At line 1311 in file MKL46Z4.s
   Uses
      None
Comment: LCD_WF_WF21_MASK unused
LCD_WF_WF21_SHIFT 00000008

Symbol: LCD_WF_WF21_SHIFT
   Definitions
      At line 1312 in file MKL46Z4.s
   Uses
      None
Comment: LCD_WF_WF21_SHIFT unused
LCD_WF_WF22_MASK 00FF0000

Symbol: LCD_WF_WF22_MASK
   Definitions
      At line 1325 in file MKL46Z4.s
   Uses
      None
Comment: LCD_WF_WF22_MASK unused
LCD_WF_WF22_SHIFT 00000010

Symbol: LCD_WF_WF22_SHIFT
   Definitions
      At line 1326 in file MKL46Z4.s
   Uses
      None
Comment: LCD_WF_WF22_SHIFT unused
LCD_WF_WF23_MASK FF000000

Symbol: LCD_WF_WF23_MASK
   Definitions
      At line 1371 in file MKL46Z4.s
   Uses
      None
Comment: LCD_WF_WF23_MASK unused
LCD_WF_WF23_SHIFT 00000018

Symbol: LCD_WF_WF23_SHIFT
   Definitions
      At line 1372 in file MKL46Z4.s



ARM Macro Assembler    Page 235 Alphabetic symbol ordering
Absolute symbols

   Uses
      None
Comment: LCD_WF_WF23_SHIFT unused
LCD_WF_WF24_MASK 000000FF

Symbol: LCD_WF_WF24_MASK
   Definitions
      At line 1275 in file MKL46Z4.s
   Uses
      None
Comment: LCD_WF_WF24_MASK unused
LCD_WF_WF24_SHIFT 00000000

Symbol: LCD_WF_WF24_SHIFT
   Definitions
      At line 1276 in file MKL46Z4.s
   Uses
      None
Comment: LCD_WF_WF24_SHIFT unused
LCD_WF_WF25_MASK 0000FF00

Symbol: LCD_WF_WF25_MASK
   Definitions
      At line 1289 in file MKL46Z4.s
   Uses
      None
Comment: LCD_WF_WF25_MASK unused
LCD_WF_WF25_SHIFT 00000008

Symbol: LCD_WF_WF25_SHIFT
   Definitions
      At line 1290 in file MKL46Z4.s
   Uses
      None
Comment: LCD_WF_WF25_SHIFT unused
LCD_WF_WF26_MASK 00FF0000

Symbol: LCD_WF_WF26_MASK
   Definitions
      At line 1313 in file MKL46Z4.s
   Uses
      None
Comment: LCD_WF_WF26_MASK unused
LCD_WF_WF26_SHIFT 00000010

Symbol: LCD_WF_WF26_SHIFT
   Definitions
      At line 1314 in file MKL46Z4.s
   Uses
      None
Comment: LCD_WF_WF26_SHIFT unused
LCD_WF_WF27_MASK FF000000

Symbol: LCD_WF_WF27_MASK
   Definitions
      At line 1369 in file MKL46Z4.s
   Uses
      None
Comment: LCD_WF_WF27_MASK unused



ARM Macro Assembler    Page 236 Alphabetic symbol ordering
Absolute symbols

LCD_WF_WF27_SHIFT 00000018

Symbol: LCD_WF_WF27_SHIFT
   Definitions
      At line 1370 in file MKL46Z4.s
   Uses
      None
Comment: LCD_WF_WF27_SHIFT unused
LCD_WF_WF28_MASK 000000FF

Symbol: LCD_WF_WF28_MASK
   Definitions
      At line 1271 in file MKL46Z4.s
   Uses
      None
Comment: LCD_WF_WF28_MASK unused
LCD_WF_WF28_SHIFT 00000000

Symbol: LCD_WF_WF28_SHIFT
   Definitions
      At line 1272 in file MKL46Z4.s
   Uses
      None
Comment: LCD_WF_WF28_SHIFT unused
LCD_WF_WF29_MASK 0000FF00

Symbol: LCD_WF_WF29_MASK
   Definitions
      At line 1307 in file MKL46Z4.s
   Uses
      None
Comment: LCD_WF_WF29_MASK unused
LCD_WF_WF29_SHIFT 00000008

Symbol: LCD_WF_WF29_SHIFT
   Definitions
      At line 1308 in file MKL46Z4.s
   Uses
      None
Comment: LCD_WF_WF29_SHIFT unused
LCD_WF_WF2_MASK 00FF0000

Symbol: LCD_WF_WF2_MASK
   Definitions
      At line 1335 in file MKL46Z4.s
   Uses
      None
Comment: LCD_WF_WF2_MASK unused
LCD_WF_WF2_SHIFT 00000010

Symbol: LCD_WF_WF2_SHIFT
   Definitions
      At line 1336 in file MKL46Z4.s
   Uses
      None
Comment: LCD_WF_WF2_SHIFT unused
LCD_WF_WF30_MASK 00FF0000

Symbol: LCD_WF_WF30_MASK



ARM Macro Assembler    Page 237 Alphabetic symbol ordering
Absolute symbols

   Definitions
      At line 1339 in file MKL46Z4.s
   Uses
      None
Comment: LCD_WF_WF30_MASK unused
LCD_WF_WF30_SHIFT 00000010

Symbol: LCD_WF_WF30_SHIFT
   Definitions
      At line 1340 in file MKL46Z4.s
   Uses
      None
Comment: LCD_WF_WF30_SHIFT unused
LCD_WF_WF31_MASK FF000000

Symbol: LCD_WF_WF31_MASK
   Definitions
      At line 1365 in file MKL46Z4.s
   Uses
      None
Comment: LCD_WF_WF31_MASK unused
LCD_WF_WF31_SHIFT 00000018

Symbol: LCD_WF_WF31_SHIFT
   Definitions
      At line 1366 in file MKL46Z4.s
   Uses
      None
Comment: LCD_WF_WF31_SHIFT unused
LCD_WF_WF32_MASK 000000FF

Symbol: LCD_WF_WF32_MASK
   Definitions
      At line 1269 in file MKL46Z4.s
   Uses
      None
Comment: LCD_WF_WF32_MASK unused
LCD_WF_WF32_SHIFT 00000000

Symbol: LCD_WF_WF32_SHIFT
   Definitions
      At line 1270 in file MKL46Z4.s
   Uses
      None
Comment: LCD_WF_WF32_SHIFT unused
LCD_WF_WF33_MASK 0000FF00

Symbol: LCD_WF_WF33_MASK
   Definitions
      At line 1309 in file MKL46Z4.s
   Uses
      None
Comment: LCD_WF_WF33_MASK unused
LCD_WF_WF33_SHIFT 00000008

Symbol: LCD_WF_WF33_SHIFT
   Definitions
      At line 1310 in file MKL46Z4.s
   Uses



ARM Macro Assembler    Page 238 Alphabetic symbol ordering
Absolute symbols

      None
Comment: LCD_WF_WF33_SHIFT unused
LCD_WF_WF34_MASK 00FF0000

Symbol: LCD_WF_WF34_MASK
   Definitions
      At line 1327 in file MKL46Z4.s
   Uses
      None
Comment: LCD_WF_WF34_MASK unused
LCD_WF_WF34_SHIFT 00000010

Symbol: LCD_WF_WF34_SHIFT
   Definitions
      At line 1328 in file MKL46Z4.s
   Uses
      None
Comment: LCD_WF_WF34_SHIFT unused
LCD_WF_WF35_MASK FF000000

Symbol: LCD_WF_WF35_MASK
   Definitions
      At line 1363 in file MKL46Z4.s
   Uses
      None
Comment: LCD_WF_WF35_MASK unused
LCD_WF_WF35_SHIFT 00000018

Symbol: LCD_WF_WF35_SHIFT
   Definitions
      At line 1364 in file MKL46Z4.s
   Uses
      None
Comment: LCD_WF_WF35_SHIFT unused
LCD_WF_WF36_MASK 000000FF

Symbol: LCD_WF_WF36_MASK
   Definitions
      At line 1267 in file MKL46Z4.s
   Uses
      None
Comment: LCD_WF_WF36_MASK unused
LCD_WF_WF36_SHIFT 00000000

Symbol: LCD_WF_WF36_SHIFT
   Definitions
      At line 1268 in file MKL46Z4.s
   Uses
      None
Comment: LCD_WF_WF36_SHIFT unused
LCD_WF_WF37_MASK 0000FF00

Symbol: LCD_WF_WF37_MASK
   Definitions
      At line 1301 in file MKL46Z4.s
   Uses
      None
Comment: LCD_WF_WF37_MASK unused
LCD_WF_WF37_SHIFT 00000008



ARM Macro Assembler    Page 239 Alphabetic symbol ordering
Absolute symbols


Symbol: LCD_WF_WF37_SHIFT
   Definitions
      At line 1302 in file MKL46Z4.s
   Uses
      None
Comment: LCD_WF_WF37_SHIFT unused
LCD_WF_WF38_MASK 00FF0000

Symbol: LCD_WF_WF38_MASK
   Definitions
      At line 1323 in file MKL46Z4.s
   Uses
      None
Comment: LCD_WF_WF38_MASK unused
LCD_WF_WF38_SHIFT 00000010

Symbol: LCD_WF_WF38_SHIFT
   Definitions
      At line 1324 in file MKL46Z4.s
   Uses
      None
Comment: LCD_WF_WF38_SHIFT unused
LCD_WF_WF39_MASK FF000000

Symbol: LCD_WF_WF39_MASK
   Definitions
      At line 1361 in file MKL46Z4.s
   Uses
      None
Comment: LCD_WF_WF39_MASK unused
LCD_WF_WF39_SHIFT 00000018

Symbol: LCD_WF_WF39_SHIFT
   Definitions
      At line 1362 in file MKL46Z4.s
   Uses
      None
Comment: LCD_WF_WF39_SHIFT unused
LCD_WF_WF3_MASK FF000000

Symbol: LCD_WF_WF3_MASK
   Definitions
      At line 1351 in file MKL46Z4.s
   Uses
      None
Comment: LCD_WF_WF3_MASK unused
LCD_WF_WF3_SHIFT 00000018

Symbol: LCD_WF_WF3_SHIFT
   Definitions
      At line 1352 in file MKL46Z4.s
   Uses
      None
Comment: LCD_WF_WF3_SHIFT unused
LCD_WF_WF40_MASK 000000FF

Symbol: LCD_WF_WF40_MASK
   Definitions



ARM Macro Assembler    Page 240 Alphabetic symbol ordering
Absolute symbols

      At line 1263 in file MKL46Z4.s
   Uses
      None
Comment: LCD_WF_WF40_MASK unused
LCD_WF_WF40_SHIFT 00000000

Symbol: LCD_WF_WF40_SHIFT
   Definitions
      At line 1264 in file MKL46Z4.s
   Uses
      None
Comment: LCD_WF_WF40_SHIFT unused
LCD_WF_WF41_MASK 0000FF00

Symbol: LCD_WF_WF41_MASK
   Definitions
      At line 1293 in file MKL46Z4.s
   Uses
      None
Comment: LCD_WF_WF41_MASK unused
LCD_WF_WF41_SHIFT 00000008

Symbol: LCD_WF_WF41_SHIFT
   Definitions
      At line 1294 in file MKL46Z4.s
   Uses
      None
Comment: LCD_WF_WF41_SHIFT unused
LCD_WF_WF42_MASK 00FF0000

Symbol: LCD_WF_WF42_MASK
   Definitions
      At line 1319 in file MKL46Z4.s
   Uses
      None
Comment: LCD_WF_WF42_MASK unused
LCD_WF_WF42_SHIFT 00000010

Symbol: LCD_WF_WF42_SHIFT
   Definitions
      At line 1320 in file MKL46Z4.s
   Uses
      None
Comment: LCD_WF_WF42_SHIFT unused
LCD_WF_WF43_MASK FF000000

Symbol: LCD_WF_WF43_MASK
   Definitions
      At line 1357 in file MKL46Z4.s
   Uses
      None
Comment: LCD_WF_WF43_MASK unused
LCD_WF_WF43_SHIFT 00000018

Symbol: LCD_WF_WF43_SHIFT
   Definitions
      At line 1358 in file MKL46Z4.s
   Uses
      None



ARM Macro Assembler    Page 241 Alphabetic symbol ordering
Absolute symbols

Comment: LCD_WF_WF43_SHIFT unused
LCD_WF_WF44_MASK 000000FF

Symbol: LCD_WF_WF44_MASK
   Definitions
      At line 1261 in file MKL46Z4.s
   Uses
      None
Comment: LCD_WF_WF44_MASK unused
LCD_WF_WF44_SHIFT 00000000

Symbol: LCD_WF_WF44_SHIFT
   Definitions
      At line 1262 in file MKL46Z4.s
   Uses
      None
Comment: LCD_WF_WF44_SHIFT unused
LCD_WF_WF45_MASK 0000FF00

Symbol: LCD_WF_WF45_MASK
   Definitions
      At line 1285 in file MKL46Z4.s
   Uses
      None
Comment: LCD_WF_WF45_MASK unused
LCD_WF_WF45_SHIFT 00000008

Symbol: LCD_WF_WF45_SHIFT
   Definitions
      At line 1286 in file MKL46Z4.s
   Uses
      None
Comment: LCD_WF_WF45_SHIFT unused
LCD_WF_WF46_MASK 00FF0000

Symbol: LCD_WF_WF46_MASK
   Definitions
      At line 1315 in file MKL46Z4.s
   Uses
      None
Comment: LCD_WF_WF46_MASK unused
LCD_WF_WF46_SHIFT 00000010

Symbol: LCD_WF_WF46_SHIFT
   Definitions
      At line 1316 in file MKL46Z4.s
   Uses
      None
Comment: LCD_WF_WF46_SHIFT unused
LCD_WF_WF47_MASK FF000000

Symbol: LCD_WF_WF47_MASK
   Definitions
      At line 1355 in file MKL46Z4.s
   Uses
      None
Comment: LCD_WF_WF47_MASK unused
LCD_WF_WF47_SHIFT 00000018




ARM Macro Assembler    Page 242 Alphabetic symbol ordering
Absolute symbols

Symbol: LCD_WF_WF47_SHIFT
   Definitions
      At line 1356 in file MKL46Z4.s
   Uses
      None
Comment: LCD_WF_WF47_SHIFT unused
LCD_WF_WF48_MASK 000000FF

Symbol: LCD_WF_WF48_MASK
   Definitions
      At line 1259 in file MKL46Z4.s
   Uses
      None
Comment: LCD_WF_WF48_MASK unused
LCD_WF_WF48_SHIFT 00000000

Symbol: LCD_WF_WF48_SHIFT
   Definitions
      At line 1260 in file MKL46Z4.s
   Uses
      None
Comment: LCD_WF_WF48_SHIFT unused
LCD_WF_WF49_MASK 0000FF00

Symbol: LCD_WF_WF49_MASK
   Definitions
      At line 1283 in file MKL46Z4.s
   Uses
      None
Comment: LCD_WF_WF49_MASK unused
LCD_WF_WF49_SHIFT 00000008

Symbol: LCD_WF_WF49_SHIFT
   Definitions
      At line 1284 in file MKL46Z4.s
   Uses
      None
Comment: LCD_WF_WF49_SHIFT unused
LCD_WF_WF4_MASK 000000FF

Symbol: LCD_WF_WF4_MASK
   Definitions
      At line 1257 in file MKL46Z4.s
   Uses
      None
Comment: LCD_WF_WF4_MASK unused
LCD_WF_WF4_SHIFT 00000000

Symbol: LCD_WF_WF4_SHIFT
   Definitions
      At line 1258 in file MKL46Z4.s
   Uses
      None
Comment: LCD_WF_WF4_SHIFT unused
LCD_WF_WF50_MASK 00FF0000

Symbol: LCD_WF_WF50_MASK
   Definitions
      At line 1329 in file MKL46Z4.s



ARM Macro Assembler    Page 243 Alphabetic symbol ordering
Absolute symbols

   Uses
      None
Comment: LCD_WF_WF50_MASK unused
LCD_WF_WF50_SHIFT 00000010

Symbol: LCD_WF_WF50_SHIFT
   Definitions
      At line 1330 in file MKL46Z4.s
   Uses
      None
Comment: LCD_WF_WF50_SHIFT unused
LCD_WF_WF51_MASK FF000000

Symbol: LCD_WF_WF51_MASK
   Definitions
      At line 1353 in file MKL46Z4.s
   Uses
      None
Comment: LCD_WF_WF51_MASK unused
LCD_WF_WF51_SHIFT 00000018

Symbol: LCD_WF_WF51_SHIFT
   Definitions
      At line 1354 in file MKL46Z4.s
   Uses
      None
Comment: LCD_WF_WF51_SHIFT unused
LCD_WF_WF52_MASK 000000FF

Symbol: LCD_WF_WF52_MASK
   Definitions
      At line 1255 in file MKL46Z4.s
   Uses
      None
Comment: LCD_WF_WF52_MASK unused
LCD_WF_WF52_SHIFT 00000000

Symbol: LCD_WF_WF52_SHIFT
   Definitions
      At line 1256 in file MKL46Z4.s
   Uses
      None
Comment: LCD_WF_WF52_SHIFT unused
LCD_WF_WF53_MASK 0000FF00

Symbol: LCD_WF_WF53_MASK
   Definitions
      At line 1299 in file MKL46Z4.s
   Uses
      None
Comment: LCD_WF_WF53_MASK unused
LCD_WF_WF53_SHIFT 00000008

Symbol: LCD_WF_WF53_SHIFT
   Definitions
      At line 1300 in file MKL46Z4.s
   Uses
      None
Comment: LCD_WF_WF53_SHIFT unused



ARM Macro Assembler    Page 244 Alphabetic symbol ordering
Absolute symbols

LCD_WF_WF54_MASK 00FF0000

Symbol: LCD_WF_WF54_MASK
   Definitions
      At line 1333 in file MKL46Z4.s
   Uses
      None
Comment: LCD_WF_WF54_MASK unused
LCD_WF_WF54_SHIFT 00000010

Symbol: LCD_WF_WF54_SHIFT
   Definitions
      At line 1334 in file MKL46Z4.s
   Uses
      None
Comment: LCD_WF_WF54_SHIFT unused
LCD_WF_WF55_MASK FF000000

Symbol: LCD_WF_WF55_MASK
   Definitions
      At line 1349 in file MKL46Z4.s
   Uses
      None
Comment: LCD_WF_WF55_MASK unused
LCD_WF_WF55_SHIFT 00000018

Symbol: LCD_WF_WF55_SHIFT
   Definitions
      At line 1350 in file MKL46Z4.s
   Uses
      None
Comment: LCD_WF_WF55_SHIFT unused
LCD_WF_WF56_MASK 000000FF

Symbol: LCD_WF_WF56_MASK
   Definitions
      At line 1253 in file MKL46Z4.s
   Uses
      None
Comment: LCD_WF_WF56_MASK unused
LCD_WF_WF56_SHIFT 00000000

Symbol: LCD_WF_WF56_SHIFT
   Definitions
      At line 1254 in file MKL46Z4.s
   Uses
      None
Comment: LCD_WF_WF56_SHIFT unused
LCD_WF_WF57_MASK 0000FF00

Symbol: LCD_WF_WF57_MASK
   Definitions
      At line 1297 in file MKL46Z4.s
   Uses
      None
Comment: LCD_WF_WF57_MASK unused
LCD_WF_WF57_SHIFT 00000008

Symbol: LCD_WF_WF57_SHIFT



ARM Macro Assembler    Page 245 Alphabetic symbol ordering
Absolute symbols

   Definitions
      At line 1298 in file MKL46Z4.s
   Uses
      None
Comment: LCD_WF_WF57_SHIFT unused
LCD_WF_WF58_MASK 00FF0000

Symbol: LCD_WF_WF58_MASK
   Definitions
      At line 1337 in file MKL46Z4.s
   Uses
      None
Comment: LCD_WF_WF58_MASK unused
LCD_WF_WF58_SHIFT 00000010

Symbol: LCD_WF_WF58_SHIFT
   Definitions
      At line 1338 in file MKL46Z4.s
   Uses
      None
Comment: LCD_WF_WF58_SHIFT unused
LCD_WF_WF59_MASK FF000000

Symbol: LCD_WF_WF59_MASK
   Definitions
      At line 1347 in file MKL46Z4.s
   Uses
      None
Comment: LCD_WF_WF59_MASK unused
LCD_WF_WF59_SHIFT 00000018

Symbol: LCD_WF_WF59_SHIFT
   Definitions
      At line 1348 in file MKL46Z4.s
   Uses
      None
Comment: LCD_WF_WF59_SHIFT unused
LCD_WF_WF5_MASK 0000FF00

Symbol: LCD_WF_WF5_MASK
   Definitions
      At line 1281 in file MKL46Z4.s
   Uses
      None
Comment: LCD_WF_WF5_MASK unused
LCD_WF_WF5_SHIFT 00000008

Symbol: LCD_WF_WF5_SHIFT
   Definitions
      At line 1282 in file MKL46Z4.s
   Uses
      None
Comment: LCD_WF_WF5_SHIFT unused
LCD_WF_WF60_MASK 000000FF

Symbol: LCD_WF_WF60_MASK
   Definitions
      At line 1251 in file MKL46Z4.s
   Uses



ARM Macro Assembler    Page 246 Alphabetic symbol ordering
Absolute symbols

      None
Comment: LCD_WF_WF60_MASK unused
LCD_WF_WF60_SHIFT 00000000

Symbol: LCD_WF_WF60_SHIFT
   Definitions
      At line 1252 in file MKL46Z4.s
   Uses
      None
Comment: LCD_WF_WF60_SHIFT unused
LCD_WF_WF61_MASK 0000FF00

Symbol: LCD_WF_WF61_MASK
   Definitions
      At line 1287 in file MKL46Z4.s
   Uses
      None
Comment: LCD_WF_WF61_MASK unused
LCD_WF_WF61_SHIFT 00000008

Symbol: LCD_WF_WF61_SHIFT
   Definitions
      At line 1288 in file MKL46Z4.s
   Uses
      None
Comment: LCD_WF_WF61_SHIFT unused
LCD_WF_WF62_MASK 00FF0000

Symbol: LCD_WF_WF62_MASK
   Definitions
      At line 1341 in file MKL46Z4.s
   Uses
      None
Comment: LCD_WF_WF62_MASK unused
LCD_WF_WF62_SHIFT 00000010

Symbol: LCD_WF_WF62_SHIFT
   Definitions
      At line 1342 in file MKL46Z4.s
   Uses
      None
Comment: LCD_WF_WF62_SHIFT unused
LCD_WF_WF63_MASK FF000000

Symbol: LCD_WF_WF63_MASK
   Definitions
      At line 1345 in file MKL46Z4.s
   Uses
      None
Comment: LCD_WF_WF63_MASK unused
LCD_WF_WF63_SHIFT 00000018

Symbol: LCD_WF_WF63_SHIFT
   Definitions
      At line 1346 in file MKL46Z4.s
   Uses
      None
Comment: LCD_WF_WF63_SHIFT unused
LCD_WF_WF6_MASK 00FF0000



ARM Macro Assembler    Page 247 Alphabetic symbol ordering
Absolute symbols


Symbol: LCD_WF_WF6_MASK
   Definitions
      At line 1317 in file MKL46Z4.s
   Uses
      None
Comment: LCD_WF_WF6_MASK unused
LCD_WF_WF6_SHIFT 00000010

Symbol: LCD_WF_WF6_SHIFT
   Definitions
      At line 1318 in file MKL46Z4.s
   Uses
      None
Comment: LCD_WF_WF6_SHIFT unused
LCD_WF_WF7_MASK FF000000

Symbol: LCD_WF_WF7_MASK
   Definitions
      At line 1359 in file MKL46Z4.s
   Uses
      None
Comment: LCD_WF_WF7_MASK unused
LCD_WF_WF7_SHIFT 00000018

Symbol: LCD_WF_WF7_SHIFT
   Definitions
      At line 1360 in file MKL46Z4.s
   Uses
      None
Comment: LCD_WF_WF7_SHIFT unused
LCD_WF_WF8_MASK 000000FF

Symbol: LCD_WF_WF8_MASK
   Definitions
      At line 1265 in file MKL46Z4.s
   Uses
      None
Comment: LCD_WF_WF8_MASK unused
LCD_WF_WF8_SHIFT 00000000

Symbol: LCD_WF_WF8_SHIFT
   Definitions
      At line 1266 in file MKL46Z4.s
   Uses
      None
Comment: LCD_WF_WF8_SHIFT unused
LCD_WF_WF9_MASK 0000FF00

Symbol: LCD_WF_WF9_MASK
   Definitions
      At line 1303 in file MKL46Z4.s
   Uses
      None
Comment: LCD_WF_WF9_MASK unused
LCD_WF_WF9_SHIFT 00000008

Symbol: LCD_WF_WF9_SHIFT
   Definitions



ARM Macro Assembler    Page 248 Alphabetic symbol ordering
Absolute symbols

      At line 1304 in file MKL46Z4.s
   Uses
      None
Comment: LCD_WF_WF9_SHIFT unused
LF 0000000A

Symbol: LF
   Definitions
      At line 26 in file test.s
   Uses
      At line 4238 in file test.s
      At line 4239 in file test.s
      At line 4240 in file test.s
      At line 4241 in file test.s

LLWU_IPR E000E404

Symbol: LLWU_IPR
   Definitions
      At line 2647 in file MKL46Z4.s
   Uses
      None
Comment: LLWU_IPR unused
LLWU_IRQ 00000007

Symbol: LLWU_IRQ
   Definitions
      At line 2717 in file MKL46Z4.s
   Uses
      At line 2751 in file MKL46Z4.s
Comment: LLWU_IRQ used once
LLWU_IRQ_MASK 00000080

Symbol: LLWU_IRQ_MASK
   Definitions
      At line 2751 in file MKL46Z4.s
   Uses
      None
Comment: LLWU_IRQ_MASK unused
LLWU_PRI_POS 0000001E

Symbol: LLWU_PRI_POS
   Definitions
      At line 2683 in file MKL46Z4.s
   Uses
      None
Comment: LLWU_PRI_POS unused
LLWU_Vector 00000017

Symbol: LLWU_Vector
   Definitions
      At line 2801 in file MKL46Z4.s
   Uses
      None
Comment: LLWU_Vector unused
LLW_IRQn 00000007

Symbol: LLW_IRQn
   Definitions



ARM Macro Assembler    Page 249 Alphabetic symbol ordering
Absolute symbols

      At line 130 in file MKL46Z4.s
   Uses
      None
Comment: LLW_IRQn unused
LPTMR0_IPR E000E41C

Symbol: LPTMR0_IPR
   Definitions
      At line 2668 in file MKL46Z4.s
   Uses
      None
Comment: LPTMR0_IPR unused
LPTMR0_IRQ 0000001C

Symbol: LPTMR0_IRQ
   Definitions
      At line 2738 in file MKL46Z4.s
   Uses
      At line 2772 in file MKL46Z4.s
Comment: LPTMR0_IRQ used once
LPTMR0_IRQ_MASK 10000000

Symbol: LPTMR0_IRQ_MASK
   Definitions
      At line 2772 in file MKL46Z4.s
   Uses
      None
Comment: LPTMR0_IRQ_MASK unused
LPTMR0_PRI_POS 00000006

Symbol: LPTMR0_PRI_POS
   Definitions
      At line 2704 in file MKL46Z4.s
   Uses
      None
Comment: LPTMR0_PRI_POS unused
LPTMR0_Vector 0000002C

Symbol: LPTMR0_Vector
   Definitions
      At line 2822 in file MKL46Z4.s
   Uses
      None
Comment: LPTMR0_Vector unused
LPTimer_IRQn 0000001C

Symbol: LPTimer_IRQn
   Definitions
      At line 151 in file MKL46Z4.s
   Uses
      None
Comment: LPTimer_IRQn unused
LVD_LVW_IRQn 00000006

Symbol: LVD_LVW_IRQn
   Definitions
      At line 129 in file MKL46Z4.s
   Uses
      None



ARM Macro Assembler    Page 250 Alphabetic symbol ordering
Absolute symbols

Comment: LVD_LVW_IRQn unused
MCG_BASE 40064000

Symbol: MCG_BASE
   Definitions
      At line 2434 in file MKL46Z4.s
   Uses
      At line 2441 in file MKL46Z4.s
      At line 2442 in file MKL46Z4.s
      At line 2443 in file MKL46Z4.s
      At line 2444 in file MKL46Z4.s
      At line 2445 in file MKL46Z4.s
      At line 2446 in file MKL46Z4.s

MCG_C1 40064000

Symbol: MCG_C1
   Definitions
      At line 2441 in file MKL46Z4.s
   Uses
      None
Comment: MCG_C1 unused
MCG_C1_CLKS_MASK 000000C0

Symbol: MCG_C1_CLKS_MASK
   Definitions
      At line 2471 in file MKL46Z4.s
   Uses
      None
Comment: MCG_C1_CLKS_MASK unused
MCG_C1_CLKS_SHIFT 00000006

Symbol: MCG_C1_CLKS_SHIFT
   Definitions
      At line 2472 in file MKL46Z4.s
   Uses
      None
Comment: MCG_C1_CLKS_SHIFT unused
MCG_C1_FRDIV_MASK 00000038

Symbol: MCG_C1_FRDIV_MASK
   Definitions
      At line 2473 in file MKL46Z4.s
   Uses
      None
Comment: MCG_C1_FRDIV_MASK unused
MCG_C1_FRDIV_SHIFT 00000003

Symbol: MCG_C1_FRDIV_SHIFT
   Definitions
      At line 2474 in file MKL46Z4.s
   Uses
      None
Comment: MCG_C1_FRDIV_SHIFT unused
MCG_C1_IRCLKEN_MASK 00000002

Symbol: MCG_C1_IRCLKEN_MASK
   Definitions
      At line 2477 in file MKL46Z4.s



ARM Macro Assembler    Page 251 Alphabetic symbol ordering
Absolute symbols

   Uses
      None
Comment: MCG_C1_IRCLKEN_MASK unused
MCG_C1_IRCLKEN_SHIFT 00000001

Symbol: MCG_C1_IRCLKEN_SHIFT
   Definitions
      At line 2478 in file MKL46Z4.s
   Uses
      None
Comment: MCG_C1_IRCLKEN_SHIFT unused
MCG_C1_IREFSTEN_MASK 00000001

Symbol: MCG_C1_IREFSTEN_MASK
   Definitions
      At line 2479 in file MKL46Z4.s
   Uses
      None
Comment: MCG_C1_IREFSTEN_MASK unused
MCG_C1_IREFSTEN_SHIFT 00000000

Symbol: MCG_C1_IREFSTEN_SHIFT
   Definitions
      At line 2480 in file MKL46Z4.s
   Uses
      None
Comment: MCG_C1_IREFSTEN_SHIFT unused
MCG_C1_IREFS_MASK 00000004

Symbol: MCG_C1_IREFS_MASK
   Definitions
      At line 2475 in file MKL46Z4.s
   Uses
      None
Comment: MCG_C1_IREFS_MASK unused
MCG_C1_IREFS_SHIFT 00000002

Symbol: MCG_C1_IREFS_SHIFT
   Definitions
      At line 2476 in file MKL46Z4.s
   Uses
      None
Comment: MCG_C1_IREFS_SHIFT unused
MCG_C1_OFFSET 00000000

Symbol: MCG_C1_OFFSET
   Definitions
      At line 2435 in file MKL46Z4.s
   Uses
      At line 2441 in file MKL46Z4.s
Comment: MCG_C1_OFFSET used once
MCG_C2 40064001

Symbol: MCG_C2
   Definitions
      At line 2442 in file MKL46Z4.s
   Uses
      None
Comment: MCG_C2 unused



ARM Macro Assembler    Page 252 Alphabetic symbol ordering
Absolute symbols

MCG_C2_EREFS0_MASK 00000004

Symbol: MCG_C2_EREFS0_MASK
   Definitions
      At line 2511 in file MKL46Z4.s
   Uses
      None
Comment: MCG_C2_EREFS0_MASK unused
MCG_C2_EREFS0_SHIFT 00000002

Symbol: MCG_C2_EREFS0_SHIFT
   Definitions
      At line 2512 in file MKL46Z4.s
   Uses
      None
Comment: MCG_C2_EREFS0_SHIFT unused
MCG_C2_FCFTRIM_MASK 00000040

Symbol: MCG_C2_FCFTRIM_MASK
   Definitions
      At line 2505 in file MKL46Z4.s
   Uses
      None
Comment: MCG_C2_FCFTRIM_MASK unused
MCG_C2_FCFTRIM_SHIFT 00000006

Symbol: MCG_C2_FCFTRIM_SHIFT
   Definitions
      At line 2506 in file MKL46Z4.s
   Uses
      None
Comment: MCG_C2_FCFTRIM_SHIFT unused
MCG_C2_HGO0_MASK 00000008

Symbol: MCG_C2_HGO0_MASK
   Definitions
      At line 2509 in file MKL46Z4.s
   Uses
      None
Comment: MCG_C2_HGO0_MASK unused
MCG_C2_HGO0_SHIFT 00000003

Symbol: MCG_C2_HGO0_SHIFT
   Definitions
      At line 2510 in file MKL46Z4.s
   Uses
      None
Comment: MCG_C2_HGO0_SHIFT unused
MCG_C2_IRCS_MASK 00000001

Symbol: MCG_C2_IRCS_MASK
   Definitions
      At line 2515 in file MKL46Z4.s
   Uses
      None
Comment: MCG_C2_IRCS_MASK unused
MCG_C2_IRCS_SHIFT 00000000

Symbol: MCG_C2_IRCS_SHIFT



ARM Macro Assembler    Page 253 Alphabetic symbol ordering
Absolute symbols

   Definitions
      At line 2516 in file MKL46Z4.s
   Uses
      None
Comment: MCG_C2_IRCS_SHIFT unused
MCG_C2_LOCRE0_MASK 00000080

Symbol: MCG_C2_LOCRE0_MASK
   Definitions
      At line 2503 in file MKL46Z4.s
   Uses
      None
Comment: MCG_C2_LOCRE0_MASK unused
MCG_C2_LOCRE0_SHIFT 00000007

Symbol: MCG_C2_LOCRE0_SHIFT
   Definitions
      At line 2504 in file MKL46Z4.s
   Uses
      None
Comment: MCG_C2_LOCRE0_SHIFT unused
MCG_C2_LP_MASK 00000002

Symbol: MCG_C2_LP_MASK
   Definitions
      At line 2513 in file MKL46Z4.s
   Uses
      None
Comment: MCG_C2_LP_MASK unused
MCG_C2_LP_SHIFT 00000001

Symbol: MCG_C2_LP_SHIFT
   Definitions
      At line 2514 in file MKL46Z4.s
   Uses
      None
Comment: MCG_C2_LP_SHIFT unused
MCG_C2_OFFSET 00000001

Symbol: MCG_C2_OFFSET
   Definitions
      At line 2436 in file MKL46Z4.s
   Uses
      At line 2442 in file MKL46Z4.s
Comment: MCG_C2_OFFSET used once
MCG_C2_RANGE0_MASK 00000030

Symbol: MCG_C2_RANGE0_MASK
   Definitions
      At line 2507 in file MKL46Z4.s
   Uses
      None
Comment: MCG_C2_RANGE0_MASK unused
MCG_C2_RANGE0_SHIFT 00000004

Symbol: MCG_C2_RANGE0_SHIFT
   Definitions
      At line 2508 in file MKL46Z4.s
   Uses



ARM Macro Assembler    Page 254 Alphabetic symbol ordering
Absolute symbols

      None
Comment: MCG_C2_RANGE0_SHIFT unused
MCG_C3_SCTRIM_MASK 000000FF

Symbol: MCG_C3_SCTRIM_MASK
   Definitions
      At line 2521 in file MKL46Z4.s
   Uses
      None
Comment: MCG_C3_SCTRIM_MASK unused
MCG_C3_SCTRIM_SHIFT 00000000

Symbol: MCG_C3_SCTRIM_SHIFT
   Definitions
      At line 2522 in file MKL46Z4.s
   Uses
      None
Comment: MCG_C3_SCTRIM_SHIFT unused
MCG_C4 40064003

Symbol: MCG_C4
   Definitions
      At line 2443 in file MKL46Z4.s
   Uses
      None
Comment: MCG_C4 unused
MCG_C4_DMX32_MASK 00000080

Symbol: MCG_C4_DMX32_MASK
   Definitions
      At line 2537 in file MKL46Z4.s
   Uses
      None
Comment: MCG_C4_DMX32_MASK unused
MCG_C4_DMX32_SHIFT 00000007

Symbol: MCG_C4_DMX32_SHIFT
   Definitions
      At line 2538 in file MKL46Z4.s
   Uses
      None
Comment: MCG_C4_DMX32_SHIFT unused
MCG_C4_DRST_DRS_MASK 00000060

Symbol: MCG_C4_DRST_DRS_MASK
   Definitions
      At line 2539 in file MKL46Z4.s
   Uses
      None
Comment: MCG_C4_DRST_DRS_MASK unused
MCG_C4_DRST_DRS_SHIFT 00000005

Symbol: MCG_C4_DRST_DRS_SHIFT
   Definitions
      At line 2540 in file MKL46Z4.s
   Uses
      None
Comment: MCG_C4_DRST_DRS_SHIFT unused
MCG_C4_FCTRIM_MASK 0000001E



ARM Macro Assembler    Page 255 Alphabetic symbol ordering
Absolute symbols


Symbol: MCG_C4_FCTRIM_MASK
   Definitions
      At line 2541 in file MKL46Z4.s
   Uses
      None
Comment: MCG_C4_FCTRIM_MASK unused
MCG_C4_FCTRIM_SHIFT 00000001

Symbol: MCG_C4_FCTRIM_SHIFT
   Definitions
      At line 2542 in file MKL46Z4.s
   Uses
      None
Comment: MCG_C4_FCTRIM_SHIFT unused
MCG_C4_OFFSET 00000003

Symbol: MCG_C4_OFFSET
   Definitions
      At line 2437 in file MKL46Z4.s
   Uses
      At line 2443 in file MKL46Z4.s
Comment: MCG_C4_OFFSET used once
MCG_C4_SCFTRIM_MASK 00000001

Symbol: MCG_C4_SCFTRIM_MASK
   Definitions
      At line 2543 in file MKL46Z4.s
   Uses
      None
Comment: MCG_C4_SCFTRIM_MASK unused
MCG_C4_SCFTRIM_SHIFT 00000000

Symbol: MCG_C4_SCFTRIM_SHIFT
   Definitions
      At line 2544 in file MKL46Z4.s
   Uses
      None
Comment: MCG_C4_SCFTRIM_SHIFT unused
MCG_C5 40064004

Symbol: MCG_C5
   Definitions
      At line 2444 in file MKL46Z4.s
   Uses
      None
Comment: MCG_C5 unused
MCG_C5_OFFSET 00000004

Symbol: MCG_C5_OFFSET
   Definitions
      At line 2438 in file MKL46Z4.s
   Uses
      At line 2444 in file MKL46Z4.s
Comment: MCG_C5_OFFSET used once
MCG_C5_PLLCLKEN0_MASK 00000040

Symbol: MCG_C5_PLLCLKEN0_MASK
   Definitions



ARM Macro Assembler    Page 256 Alphabetic symbol ordering
Absolute symbols

      At line 2553 in file MKL46Z4.s
   Uses
      None
Comment: MCG_C5_PLLCLKEN0_MASK unused
MCG_C5_PLLCLKEN0_SHIFT 00000006

Symbol: MCG_C5_PLLCLKEN0_SHIFT
   Definitions
      At line 2554 in file MKL46Z4.s
   Uses
      None
Comment: MCG_C5_PLLCLKEN0_SHIFT unused
MCG_C5_PLLSTEN0_MASK 00000020

Symbol: MCG_C5_PLLSTEN0_MASK
   Definitions
      At line 2555 in file MKL46Z4.s
   Uses
      None
Comment: MCG_C5_PLLSTEN0_MASK unused
MCG_C5_PLLSTEN0_SHIFT 00000005

Symbol: MCG_C5_PLLSTEN0_SHIFT
   Definitions
      At line 2556 in file MKL46Z4.s
   Uses
      None
Comment: MCG_C5_PLLSTEN0_SHIFT unused
MCG_C5_PRDIV0_DIV2 00000001

Symbol: MCG_C5_PRDIV0_DIV2
   Definitions
      At line 2559 in file MKL46Z4.s
   Uses
      None
Comment: MCG_C5_PRDIV0_DIV2 unused
MCG_C5_PRDIV0_MASK 0000001F

Symbol: MCG_C5_PRDIV0_MASK
   Definitions
      At line 2557 in file MKL46Z4.s
   Uses
      None
Comment: MCG_C5_PRDIV0_MASK unused
MCG_C5_PRDIV0_SHIFT 00000000

Symbol: MCG_C5_PRDIV0_SHIFT
   Definitions
      At line 2558 in file MKL46Z4.s
   Uses
      None
Comment: MCG_C5_PRDIV0_SHIFT unused
MCG_C6 40064005

Symbol: MCG_C6
   Definitions
      At line 2445 in file MKL46Z4.s
   Uses
      None



ARM Macro Assembler    Page 257 Alphabetic symbol ordering
Absolute symbols

Comment: MCG_C6 unused
MCG_C6_CME0_MASK 00000020

Symbol: MCG_C6_CME0_MASK
   Definitions
      At line 2573 in file MKL46Z4.s
   Uses
      None
Comment: MCG_C6_CME0_MASK unused
MCG_C6_CME0_SHIFT 00000005

Symbol: MCG_C6_CME0_SHIFT
   Definitions
      At line 2574 in file MKL46Z4.s
   Uses
      None
Comment: MCG_C6_CME0_SHIFT unused
MCG_C6_LOLIE0_MASK 00000080

Symbol: MCG_C6_LOLIE0_MASK
   Definitions
      At line 2569 in file MKL46Z4.s
   Uses
      None
Comment: MCG_C6_LOLIE0_MASK unused
MCG_C6_LOLIE0_SHIFT 00000007

Symbol: MCG_C6_LOLIE0_SHIFT
   Definitions
      At line 2570 in file MKL46Z4.s
   Uses
      None
Comment: MCG_C6_LOLIE0_SHIFT unused
MCG_C6_OFFSET 00000005

Symbol: MCG_C6_OFFSET
   Definitions
      At line 2439 in file MKL46Z4.s
   Uses
      At line 2445 in file MKL46Z4.s
Comment: MCG_C6_OFFSET used once
MCG_C6_PLLS_MASK 00000040

Symbol: MCG_C6_PLLS_MASK
   Definitions
      At line 2571 in file MKL46Z4.s
   Uses
      None
Comment: MCG_C6_PLLS_MASK unused
MCG_C6_PLLS_SHIFT 00000006

Symbol: MCG_C6_PLLS_SHIFT
   Definitions
      At line 2572 in file MKL46Z4.s
   Uses
      None
Comment: MCG_C6_PLLS_SHIFT unused
MCG_C6_VDIV0_MASK 0000001F




ARM Macro Assembler    Page 258 Alphabetic symbol ordering
Absolute symbols

Symbol: MCG_C6_VDIV0_MASK
   Definitions
      At line 2575 in file MKL46Z4.s
   Uses
      None
Comment: MCG_C6_VDIV0_MASK unused
MCG_C6_VDIV0_SHIFT 00000000

Symbol: MCG_C6_VDIV0_SHIFT
   Definitions
      At line 2576 in file MKL46Z4.s
   Uses
      None
Comment: MCG_C6_VDIV0_SHIFT unused
MCG_IPR E000E418

Symbol: MCG_IPR
   Definitions
      At line 2667 in file MKL46Z4.s
   Uses
      None
Comment: MCG_IPR unused
MCG_IRQ 0000001B

Symbol: MCG_IRQ
   Definitions
      At line 2737 in file MKL46Z4.s
   Uses
      At line 2771 in file MKL46Z4.s
Comment: MCG_IRQ used once
MCG_IRQ_MASK 08000000

Symbol: MCG_IRQ_MASK
   Definitions
      At line 2771 in file MKL46Z4.s
   Uses
      None
Comment: MCG_IRQ_MASK unused
MCG_IRQn 0000001B

Symbol: MCG_IRQn
   Definitions
      At line 150 in file MKL46Z4.s
   Uses
      None
Comment: MCG_IRQn unused
MCG_PRI_POS 0000001E

Symbol: MCG_PRI_POS
   Definitions
      At line 2703 in file MKL46Z4.s
   Uses
      None
Comment: MCG_PRI_POS unused
MCG_S 40064006

Symbol: MCG_S
   Definitions
      At line 2446 in file MKL46Z4.s



ARM Macro Assembler    Page 259 Alphabetic symbol ordering
Absolute symbols

   Uses
      None
Comment: MCG_S unused
MCG_S_CLKST_MASK 0000000C

Symbol: MCG_S_CLKST_MASK
   Definitions
      At line 2604 in file MKL46Z4.s
   Uses
      None
Comment: MCG_S_CLKST_MASK unused
MCG_S_CLKST_SHIFT 00000002

Symbol: MCG_S_CLKST_SHIFT
   Definitions
      At line 2605 in file MKL46Z4.s
   Uses
      None
Comment: MCG_S_CLKST_SHIFT unused
MCG_S_IRCST_MASK 00000001

Symbol: MCG_S_IRCST_MASK
   Definitions
      At line 2608 in file MKL46Z4.s
   Uses
      None
Comment: MCG_S_IRCST_MASK unused
MCG_S_IRCST_SHIFT 00000000

Symbol: MCG_S_IRCST_SHIFT
   Definitions
      At line 2609 in file MKL46Z4.s
   Uses
      None
Comment: MCG_S_IRCST_SHIFT unused
MCG_S_IREFST_MASK 00000010

Symbol: MCG_S_IREFST_MASK
   Definitions
      At line 2602 in file MKL46Z4.s
   Uses
      None
Comment: MCG_S_IREFST_MASK unused
MCG_S_IREFST_SHIFT 00000004

Symbol: MCG_S_IREFST_SHIFT
   Definitions
      At line 2603 in file MKL46Z4.s
   Uses
      None
Comment: MCG_S_IREFST_SHIFT unused
MCG_S_LOCK0_MASK 00000040

Symbol: MCG_S_LOCK0_MASK
   Definitions
      At line 2598 in file MKL46Z4.s
   Uses
      None
Comment: MCG_S_LOCK0_MASK unused



ARM Macro Assembler    Page 260 Alphabetic symbol ordering
Absolute symbols

MCG_S_LOCK0_SHIFT 00000006

Symbol: MCG_S_LOCK0_SHIFT
   Definitions
      At line 2599 in file MKL46Z4.s
   Uses
      None
Comment: MCG_S_LOCK0_SHIFT unused
MCG_S_LOLS_MASK 00000080

Symbol: MCG_S_LOLS_MASK
   Definitions
      At line 2596 in file MKL46Z4.s
   Uses
      None
Comment: MCG_S_LOLS_MASK unused
MCG_S_LOLS_SHIFT 00000007

Symbol: MCG_S_LOLS_SHIFT
   Definitions
      At line 2597 in file MKL46Z4.s
   Uses
      None
Comment: MCG_S_LOLS_SHIFT unused
MCG_S_OFFSET 00000006

Symbol: MCG_S_OFFSET
   Definitions
      At line 2440 in file MKL46Z4.s
   Uses
      At line 2446 in file MKL46Z4.s
Comment: MCG_S_OFFSET used once
MCG_S_OSCINIT0_MASK 00000002

Symbol: MCG_S_OSCINIT0_MASK
   Definitions
      At line 2606 in file MKL46Z4.s
   Uses
      None
Comment: MCG_S_OSCINIT0_MASK unused
MCG_S_OSCINIT0_SHIFT 00000001

Symbol: MCG_S_OSCINIT0_SHIFT
   Definitions
      At line 2607 in file MKL46Z4.s
   Uses
      None
Comment: MCG_S_OSCINIT0_SHIFT unused
MCG_S_PLLST_MASK 00000020

Symbol: MCG_S_PLLST_MASK
   Definitions
      At line 2600 in file MKL46Z4.s
   Uses
      None
Comment: MCG_S_PLLST_MASK unused
MCG_S_PLLST_SHIFT 00000005

Symbol: MCG_S_PLLST_SHIFT



ARM Macro Assembler    Page 261 Alphabetic symbol ordering
Absolute symbols

   Definitions
      At line 2601 in file MKL46Z4.s
   Uses
      None
Comment: MCG_S_PLLST_SHIFT unused
MCG_Vector 0000002B

Symbol: MCG_Vector
   Definitions
      At line 2821 in file MKL46Z4.s
   Uses
      None
Comment: MCG_Vector unused
MCU_MEM_MAP_VERSION 00000200

Symbol: MCU_MEM_MAP_VERSION
   Definitions
      At line 158 in file MKL46Z4.s
   Uses
      None
Comment: MCU_MEM_MAP_VERSION unused
MCU_MEM_MAP_VERSION_MINOR 00000002

Symbol: MCU_MEM_MAP_VERSION_MINOR
   Definitions
      At line 160 in file MKL46Z4.s
   Uses
      None
Comment: MCU_MEM_MAP_VERSION_MINOR unused
MEM_SIZE 00000BB8

Symbol: MEM_SIZE
   Definitions
      At line 22 in file test.s
   Uses
      At line 185 in file test.s
      At line 4248 in file test.s

NIBBLE_BITS 00000004

Symbol: NIBBLE_BITS
   Definitions
      At line 27 in file MKL46Z4.s
   Uses
      None
Comment: NIBBLE_BITS unused
NIBBLE_MASK 0000000F

Symbol: NIBBLE_MASK
   Definitions
      At line 24 in file MKL46Z4.s
   Uses
      None
Comment: NIBBLE_MASK unused
NMI_Vector02 00000002

Symbol: NMI_Vector02
   Definitions
      At line 2780 in file MKL46Z4.s



ARM Macro Assembler    Page 262 Alphabetic symbol ordering
Absolute symbols

   Uses
      None
Comment: NMI_Vector02 unused
NVIC_BASE E000E100

Symbol: NVIC_BASE
   Definitions
      At line 2613 in file MKL46Z4.s
   Uses
      At line 2626 in file MKL46Z4.s
      At line 2627 in file MKL46Z4.s
      At line 2628 in file MKL46Z4.s
      At line 2629 in file MKL46Z4.s
      At line 2630 in file MKL46Z4.s
      At line 2631 in file MKL46Z4.s
      At line 2632 in file MKL46Z4.s
      At line 2633 in file MKL46Z4.s
      At line 2634 in file MKL46Z4.s
      At line 2635 in file MKL46Z4.s
      At line 2636 in file MKL46Z4.s
      At line 2637 in file MKL46Z4.s

NVIC_ICER E000E180

Symbol: NVIC_ICER
   Definitions
      At line 2627 in file MKL46Z4.s
   Uses
      None
Comment: NVIC_ICER unused
NVIC_ICER_OFFSET 00000080

Symbol: NVIC_ICER_OFFSET
   Definitions
      At line 2615 in file MKL46Z4.s
   Uses
      At line 2627 in file MKL46Z4.s
Comment: NVIC_ICER_OFFSET used once
NVIC_ICPR E000E280

Symbol: NVIC_ICPR
   Definitions
      At line 2629 in file MKL46Z4.s
   Uses
      None
Comment: NVIC_ICPR unused
NVIC_ICPR_OFFSET 00000180

Symbol: NVIC_ICPR_OFFSET
   Definitions
      At line 2617 in file MKL46Z4.s
   Uses
      At line 2629 in file MKL46Z4.s
Comment: NVIC_ICPR_OFFSET used once
NVIC_IPR0 E000E400

Symbol: NVIC_IPR0
   Definitions
      At line 2630 in file MKL46Z4.s



ARM Macro Assembler    Page 263 Alphabetic symbol ordering
Absolute symbols

   Uses
      At line 2640 in file MKL46Z4.s
      At line 2641 in file MKL46Z4.s
      At line 2642 in file MKL46Z4.s
      At line 2643 in file MKL46Z4.s

NVIC_IPR0_OFFSET 00000300

Symbol: NVIC_IPR0_OFFSET
   Definitions
      At line 2618 in file MKL46Z4.s
   Uses
      At line 2630 in file MKL46Z4.s
Comment: NVIC_IPR0_OFFSET used once
NVIC_IPR1 E000E404

Symbol: NVIC_IPR1
   Definitions
      At line 2631 in file MKL46Z4.s
   Uses
      At line 2644 in file MKL46Z4.s
      At line 2645 in file MKL46Z4.s
      At line 2646 in file MKL46Z4.s
      At line 2647 in file MKL46Z4.s

NVIC_IPR1_OFFSET 00000304

Symbol: NVIC_IPR1_OFFSET
   Definitions
      At line 2619 in file MKL46Z4.s
   Uses
      At line 2631 in file MKL46Z4.s
Comment: NVIC_IPR1_OFFSET used once
NVIC_IPR2 E000E408

Symbol: NVIC_IPR2
   Definitions
      At line 2632 in file MKL46Z4.s
   Uses
      At line 2648 in file MKL46Z4.s
      At line 2649 in file MKL46Z4.s
      At line 2650 in file MKL46Z4.s
      At line 2651 in file MKL46Z4.s

NVIC_IPR2_OFFSET 00000308

Symbol: NVIC_IPR2_OFFSET
   Definitions
      At line 2620 in file MKL46Z4.s
   Uses
      At line 2632 in file MKL46Z4.s
Comment: NVIC_IPR2_OFFSET used once
NVIC_IPR3 E000E40C

Symbol: NVIC_IPR3
   Definitions
      At line 2633 in file MKL46Z4.s
   Uses
      At line 2652 in file MKL46Z4.s



ARM Macro Assembler    Page 264 Alphabetic symbol ordering
Absolute symbols

      At line 2653 in file MKL46Z4.s
      At line 2654 in file MKL46Z4.s
      At line 2655 in file MKL46Z4.s

NVIC_IPR3_OFFSET 0000030C

Symbol: NVIC_IPR3_OFFSET
   Definitions
      At line 2621 in file MKL46Z4.s
   Uses
      At line 2633 in file MKL46Z4.s
Comment: NVIC_IPR3_OFFSET used once
NVIC_IPR4 E000E410

Symbol: NVIC_IPR4
   Definitions
      At line 2634 in file MKL46Z4.s
   Uses
      At line 2656 in file MKL46Z4.s
      At line 2657 in file MKL46Z4.s
      At line 2658 in file MKL46Z4.s
      At line 2659 in file MKL46Z4.s

NVIC_IPR4_OFFSET 00000310

Symbol: NVIC_IPR4_OFFSET
   Definitions
      At line 2622 in file MKL46Z4.s
   Uses
      At line 2634 in file MKL46Z4.s
Comment: NVIC_IPR4_OFFSET used once
NVIC_IPR5 E000E414

Symbol: NVIC_IPR5
   Definitions
      At line 2635 in file MKL46Z4.s
   Uses
      At line 2660 in file MKL46Z4.s
      At line 2661 in file MKL46Z4.s
      At line 2662 in file MKL46Z4.s
      At line 2663 in file MKL46Z4.s

NVIC_IPR5_OFFSET 00000314

Symbol: NVIC_IPR5_OFFSET
   Definitions
      At line 2623 in file MKL46Z4.s
   Uses
      At line 2635 in file MKL46Z4.s
Comment: NVIC_IPR5_OFFSET used once
NVIC_IPR6 E000E418

Symbol: NVIC_IPR6
   Definitions
      At line 2636 in file MKL46Z4.s
   Uses
      At line 2664 in file MKL46Z4.s
      At line 2665 in file MKL46Z4.s
      At line 2666 in file MKL46Z4.s



ARM Macro Assembler    Page 265 Alphabetic symbol ordering
Absolute symbols

      At line 2667 in file MKL46Z4.s

NVIC_IPR6_OFFSET 00000318

Symbol: NVIC_IPR6_OFFSET
   Definitions
      At line 2624 in file MKL46Z4.s
   Uses
      At line 2636 in file MKL46Z4.s
Comment: NVIC_IPR6_OFFSET used once
NVIC_IPR7 E000E41C

Symbol: NVIC_IPR7
   Definitions
      At line 2637 in file MKL46Z4.s
   Uses
      At line 2668 in file MKL46Z4.s
      At line 2669 in file MKL46Z4.s
      At line 2670 in file MKL46Z4.s
      At line 2671 in file MKL46Z4.s

NVIC_IPR7_OFFSET 0000031C

Symbol: NVIC_IPR7_OFFSET
   Definitions
      At line 2625 in file MKL46Z4.s
   Uses
      At line 2637 in file MKL46Z4.s
Comment: NVIC_IPR7_OFFSET used once
NVIC_ISER E000E100

Symbol: NVIC_ISER
   Definitions
      At line 2626 in file MKL46Z4.s
   Uses
      None
Comment: NVIC_ISER unused
NVIC_ISER_OFFSET 00000000

Symbol: NVIC_ISER_OFFSET
   Definitions
      At line 2614 in file MKL46Z4.s
   Uses
      At line 2626 in file MKL46Z4.s
Comment: NVIC_ISER_OFFSET used once
NVIC_ISPR E000E200

Symbol: NVIC_ISPR
   Definitions
      At line 2628 in file MKL46Z4.s
   Uses
      None
Comment: NVIC_ISPR unused
NVIC_ISPR_OFFSET 00000100

Symbol: NVIC_ISPR_OFFSET
   Definitions
      At line 2616 in file MKL46Z4.s
   Uses



ARM Macro Assembler    Page 266 Alphabetic symbol ordering
Absolute symbols

      At line 2628 in file MKL46Z4.s
Comment: NVIC_ISPR_OFFSET used once
NonMaskableInt_IRQn FFFFFFF2

Symbol: NonMaskableInt_IRQn
   Definitions
      At line 115 in file MKL46Z4.s
   Uses
      None
Comment: NonMaskableInt_IRQn unused
Null 00000000

Symbol: Null
   Definitions
      At line 27 in file test.s
   Uses
      At line 4238 in file test.s
      At line 4239 in file test.s
      At line 4240 in file test.s
      At line 4241 in file test.s

OSC0_BASE 40065000

Symbol: OSC0_BASE
   Definitions
      At line 2828 in file MKL46Z4.s
   Uses
      At line 2830 in file MKL46Z4.s
Comment: OSC0_BASE used once
OSC0_CR 40065000

Symbol: OSC0_CR
   Definitions
      At line 2830 in file MKL46Z4.s
   Uses
      None
Comment: OSC0_CR unused
OSC0_CR_OFFSET 00000000

Symbol: OSC0_CR_OFFSET
   Definitions
      At line 2829 in file MKL46Z4.s
   Uses
      At line 2830 in file MKL46Z4.s
Comment: OSC0_CR_OFFSET used once
OSC_CR_ERCLKEN_MASK 00000080

Symbol: OSC_CR_ERCLKEN_MASK
   Definitions
      At line 2851 in file MKL46Z4.s
   Uses
      None
Comment: OSC_CR_ERCLKEN_MASK unused
OSC_CR_ERCLKEN_SHIFT 00000007

Symbol: OSC_CR_ERCLKEN_SHIFT
   Definitions
      At line 2852 in file MKL46Z4.s
   Uses



ARM Macro Assembler    Page 267 Alphabetic symbol ordering
Absolute symbols

      None
Comment: OSC_CR_ERCLKEN_SHIFT unused
OSC_CR_EREFSTEN_MASK 00000020

Symbol: OSC_CR_EREFSTEN_MASK
   Definitions
      At line 2849 in file MKL46Z4.s
   Uses
      None
Comment: OSC_CR_EREFSTEN_MASK unused
OSC_CR_EREFSTEN_SHIFT 00000005

Symbol: OSC_CR_EREFSTEN_SHIFT
   Definitions
      At line 2850 in file MKL46Z4.s
   Uses
      None
Comment: OSC_CR_EREFSTEN_SHIFT unused
OSC_CR_SC16P_MASK 00000001

Symbol: OSC_CR_SC16P_MASK
   Definitions
      At line 2841 in file MKL46Z4.s
   Uses
      None
Comment: OSC_CR_SC16P_MASK unused
OSC_CR_SC16P_SHIFT 00000000

Symbol: OSC_CR_SC16P_SHIFT
   Definitions
      At line 2842 in file MKL46Z4.s
   Uses
      None
Comment: OSC_CR_SC16P_SHIFT unused
OSC_CR_SC2P_MASK 00000008

Symbol: OSC_CR_SC2P_MASK
   Definitions
      At line 2847 in file MKL46Z4.s
   Uses
      None
Comment: OSC_CR_SC2P_MASK unused
OSC_CR_SC2P_SHIFT 00000003

Symbol: OSC_CR_SC2P_SHIFT
   Definitions
      At line 2848 in file MKL46Z4.s
   Uses
      None
Comment: OSC_CR_SC2P_SHIFT unused
OSC_CR_SC4P_MASK 00000004

Symbol: OSC_CR_SC4P_MASK
   Definitions
      At line 2845 in file MKL46Z4.s
   Uses
      None
Comment: OSC_CR_SC4P_MASK unused
OSC_CR_SC4P_SHIFT 00000002



ARM Macro Assembler    Page 268 Alphabetic symbol ordering
Absolute symbols


Symbol: OSC_CR_SC4P_SHIFT
   Definitions
      At line 2846 in file MKL46Z4.s
   Uses
      None
Comment: OSC_CR_SC4P_SHIFT unused
OSC_CR_SC8P_MASK 00000002

Symbol: OSC_CR_SC8P_MASK
   Definitions
      At line 2843 in file MKL46Z4.s
   Uses
      None
Comment: OSC_CR_SC8P_MASK unused
OSC_CR_SC8P_SHIFT 00000001

Symbol: OSC_CR_SC8P_SHIFT
   Definitions
      At line 2844 in file MKL46Z4.s
   Uses
      None
Comment: OSC_CR_SC8P_SHIFT unused
PIT_BASE 40037000

Symbol: PIT_BASE
   Definitions
      At line 2855 in file MKL46Z4.s
   Uses
      At line 2873 in file MKL46Z4.s
      At line 2874 in file MKL46Z4.s
      At line 2875 in file MKL46Z4.s
      At line 2876 in file MKL46Z4.s
      At line 2877 in file MKL46Z4.s
      At line 2878 in file MKL46Z4.s
      At line 2879 in file MKL46Z4.s
      At line 2880 in file MKL46Z4.s
      At line 2881 in file MKL46Z4.s
      At line 2882 in file MKL46Z4.s
      At line 2883 in file MKL46Z4.s

PIT_CH0_BASE 40037100

Symbol: PIT_CH0_BASE
   Definitions
      At line 2856 in file MKL46Z4.s
   Uses
      None
Comment: PIT_CH0_BASE unused
PIT_CH1_BASE 40037110

Symbol: PIT_CH1_BASE
   Definitions
      At line 2857 in file MKL46Z4.s
   Uses
      None
Comment: PIT_CH1_BASE unused
PIT_CVAL0 40037104




ARM Macro Assembler    Page 269 Alphabetic symbol ordering
Absolute symbols

Symbol: PIT_CVAL0
   Definitions
      At line 2877 in file MKL46Z4.s
   Uses
      None
Comment: PIT_CVAL0 unused
PIT_CVAL0_OFFSET 00000104

Symbol: PIT_CVAL0_OFFSET
   Definitions
      At line 2866 in file MKL46Z4.s
   Uses
      At line 2877 in file MKL46Z4.s
Comment: PIT_CVAL0_OFFSET used once
PIT_CVAL1 40037114

Symbol: PIT_CVAL1
   Definitions
      At line 2881 in file MKL46Z4.s
   Uses
      None
Comment: PIT_CVAL1 unused
PIT_CVAL1_OFFSET 00000114

Symbol: PIT_CVAL1_OFFSET
   Definitions
      At line 2870 in file MKL46Z4.s
   Uses
      At line 2881 in file MKL46Z4.s
Comment: PIT_CVAL1_OFFSET used once
PIT_CVAL_OFFSET 00000004

Symbol: PIT_CVAL_OFFSET
   Definitions
      At line 2859 in file MKL46Z4.s
   Uses
      None
Comment: PIT_CVAL_OFFSET unused
PIT_IPR E000E414

Symbol: PIT_IPR
   Definitions
      At line 2662 in file MKL46Z4.s
   Uses
      None
Comment: PIT_IPR unused
PIT_IRQ 00000016

Symbol: PIT_IRQ
   Definitions
      At line 2732 in file MKL46Z4.s
   Uses
      At line 2766 in file MKL46Z4.s
Comment: PIT_IRQ used once
PIT_IRQ_MASK 00400000

Symbol: PIT_IRQ_MASK
   Definitions
      At line 2766 in file MKL46Z4.s



ARM Macro Assembler    Page 270 Alphabetic symbol ordering
Absolute symbols

   Uses
      None
Comment: PIT_IRQ_MASK unused
PIT_IRQn 00000016

Symbol: PIT_IRQn
   Definitions
      At line 145 in file MKL46Z4.s
   Uses
      None
Comment: PIT_IRQn unused
PIT_LDVAL0 40037100

Symbol: PIT_LDVAL0
   Definitions
      At line 2876 in file MKL46Z4.s
   Uses
      None
Comment: PIT_LDVAL0 unused
PIT_LDVAL0_OFFSET 00000100

Symbol: PIT_LDVAL0_OFFSET
   Definitions
      At line 2865 in file MKL46Z4.s
   Uses
      At line 2876 in file MKL46Z4.s
Comment: PIT_LDVAL0_OFFSET used once
PIT_LDVAL1 40037110

Symbol: PIT_LDVAL1
   Definitions
      At line 2880 in file MKL46Z4.s
   Uses
      None
Comment: PIT_LDVAL1 unused
PIT_LDVAL1_OFFSET 00000110

Symbol: PIT_LDVAL1_OFFSET
   Definitions
      At line 2869 in file MKL46Z4.s
   Uses
      At line 2880 in file MKL46Z4.s
Comment: PIT_LDVAL1_OFFSET used once
PIT_LDVAL_OFFSET 00000000

Symbol: PIT_LDVAL_OFFSET
   Definitions
      At line 2858 in file MKL46Z4.s
   Uses
      None
Comment: PIT_LDVAL_OFFSET unused
PIT_LTMR64H 400370E0

Symbol: PIT_LTMR64H
   Definitions
      At line 2874 in file MKL46Z4.s
   Uses
      None
Comment: PIT_LTMR64H unused



ARM Macro Assembler    Page 271 Alphabetic symbol ordering
Absolute symbols

PIT_LTMR64H_OFFSET 000000E0

Symbol: PIT_LTMR64H_OFFSET
   Definitions
      At line 2863 in file MKL46Z4.s
   Uses
      At line 2874 in file MKL46Z4.s
Comment: PIT_LTMR64H_OFFSET used once
PIT_LTMR64L 400370E4

Symbol: PIT_LTMR64L
   Definitions
      At line 2875 in file MKL46Z4.s
   Uses
      None
Comment: PIT_LTMR64L unused
PIT_LTMR64L_OFFSET 000000E4

Symbol: PIT_LTMR64L_OFFSET
   Definitions
      At line 2864 in file MKL46Z4.s
   Uses
      At line 2875 in file MKL46Z4.s
Comment: PIT_LTMR64L_OFFSET used once
PIT_MCR 40037000

Symbol: PIT_MCR
   Definitions
      At line 2873 in file MKL46Z4.s
   Uses
      None
Comment: PIT_MCR unused
PIT_MCR_FRZ_MASK 00000001

Symbol: PIT_MCR_FRZ_MASK
   Definitions
      At line 2912 in file MKL46Z4.s
   Uses
      None
Comment: PIT_MCR_FRZ_MASK unused
PIT_MCR_FRZ_SHIFT 00000000

Symbol: PIT_MCR_FRZ_SHIFT
   Definitions
      At line 2913 in file MKL46Z4.s
   Uses
      None
Comment: PIT_MCR_FRZ_SHIFT unused
PIT_MCR_MDIS_MASK 00000002

Symbol: PIT_MCR_MDIS_MASK
   Definitions
      At line 2910 in file MKL46Z4.s
   Uses
      None
Comment: PIT_MCR_MDIS_MASK unused
PIT_MCR_MDIS_SHIFT 00000001

Symbol: PIT_MCR_MDIS_SHIFT



ARM Macro Assembler    Page 272 Alphabetic symbol ordering
Absolute symbols

   Definitions
      At line 2911 in file MKL46Z4.s
   Uses
      None
Comment: PIT_MCR_MDIS_SHIFT unused
PIT_MCR_OFFSET 00000000

Symbol: PIT_MCR_OFFSET
   Definitions
      At line 2862 in file MKL46Z4.s
   Uses
      At line 2873 in file MKL46Z4.s
Comment: PIT_MCR_OFFSET used once
PIT_PRI_POS 00000016

Symbol: PIT_PRI_POS
   Definitions
      At line 2698 in file MKL46Z4.s
   Uses
      None
Comment: PIT_PRI_POS unused
PIT_TCTRL0 40037108

Symbol: PIT_TCTRL0
   Definitions
      At line 2878 in file MKL46Z4.s
   Uses
      None
Comment: PIT_TCTRL0 unused
PIT_TCTRL0_OFFSET 00000108

Symbol: PIT_TCTRL0_OFFSET
   Definitions
      At line 2867 in file MKL46Z4.s
   Uses
      At line 2878 in file MKL46Z4.s
Comment: PIT_TCTRL0_OFFSET used once
PIT_TCTRL1 40037118

Symbol: PIT_TCTRL1
   Definitions
      At line 2882 in file MKL46Z4.s
   Uses
      None
Comment: PIT_TCTRL1 unused
PIT_TCTRL1_OFFSET 00000118

Symbol: PIT_TCTRL1_OFFSET
   Definitions
      At line 2871 in file MKL46Z4.s
   Uses
      At line 2882 in file MKL46Z4.s
Comment: PIT_TCTRL1_OFFSET used once
PIT_TCTRL_CHN_MASK 00000004

Symbol: PIT_TCTRL_CHN_MASK
   Definitions
      At line 2923 in file MKL46Z4.s
   Uses



ARM Macro Assembler    Page 273 Alphabetic symbol ordering
Absolute symbols

      None
Comment: PIT_TCTRL_CHN_MASK unused
PIT_TCTRL_CHN_SHIFT 00000002

Symbol: PIT_TCTRL_CHN_SHIFT
   Definitions
      At line 2924 in file MKL46Z4.s
   Uses
      None
Comment: PIT_TCTRL_CHN_SHIFT unused
PIT_TCTRL_OFFSET 00000008

Symbol: PIT_TCTRL_OFFSET
   Definitions
      At line 2860 in file MKL46Z4.s
   Uses
      None
Comment: PIT_TCTRL_OFFSET unused
PIT_TCTRL_TEN_MASK 00000001

Symbol: PIT_TCTRL_TEN_MASK
   Definitions
      At line 2927 in file MKL46Z4.s
   Uses
      None
Comment: PIT_TCTRL_TEN_MASK unused
PIT_TCTRL_TEN_SHIFT 00000000

Symbol: PIT_TCTRL_TEN_SHIFT
   Definitions
      At line 2928 in file MKL46Z4.s
   Uses
      None
Comment: PIT_TCTRL_TEN_SHIFT unused
PIT_TCTRL_TIE_MASK 00000002

Symbol: PIT_TCTRL_TIE_MASK
   Definitions
      At line 2925 in file MKL46Z4.s
   Uses
      None
Comment: PIT_TCTRL_TIE_MASK unused
PIT_TCTRL_TIE_SHIFT 00000001

Symbol: PIT_TCTRL_TIE_SHIFT
   Definitions
      At line 2926 in file MKL46Z4.s
   Uses
      None
Comment: PIT_TCTRL_TIE_SHIFT unused
PIT_TFLG0 4003710C

Symbol: PIT_TFLG0
   Definitions
      At line 2879 in file MKL46Z4.s
   Uses
      None
Comment: PIT_TFLG0 unused
PIT_TFLG0_OFFSET 0000010C



ARM Macro Assembler    Page 274 Alphabetic symbol ordering
Absolute symbols


Symbol: PIT_TFLG0_OFFSET
   Definitions
      At line 2868 in file MKL46Z4.s
   Uses
      At line 2879 in file MKL46Z4.s
Comment: PIT_TFLG0_OFFSET used once
PIT_TFLG1 4003711C

Symbol: PIT_TFLG1
   Definitions
      At line 2883 in file MKL46Z4.s
   Uses
      None
Comment: PIT_TFLG1 unused
PIT_TFLG1_OFFSET 0000011C

Symbol: PIT_TFLG1_OFFSET
   Definitions
      At line 2872 in file MKL46Z4.s
   Uses
      At line 2883 in file MKL46Z4.s
Comment: PIT_TFLG1_OFFSET used once
PIT_TFLG_OFFSET 0000000C

Symbol: PIT_TFLG_OFFSET
   Definitions
      At line 2861 in file MKL46Z4.s
   Uses
      None
Comment: PIT_TFLG_OFFSET unused
PIT_TFLG_TIF_MASK 00000001

Symbol: PIT_TFLG_TIF_MASK
   Definitions
      At line 2934 in file MKL46Z4.s
   Uses
      None
Comment: PIT_TFLG_TIF_MASK unused
PIT_TFLG_TIF_SHIFT 00000000

Symbol: PIT_TFLG_TIF_SHIFT
   Definitions
      At line 2935 in file MKL46Z4.s
   Uses
      None
Comment: PIT_TFLG_TIF_SHIFT unused
PIT_Vector 00000026

Symbol: PIT_Vector
   Definitions
      At line 2816 in file MKL46Z4.s
   Uses
      None
Comment: PIT_Vector unused
PMC_IPR E000E404

Symbol: PMC_IPR
   Definitions



ARM Macro Assembler    Page 275 Alphabetic symbol ordering
Absolute symbols

      At line 2646 in file MKL46Z4.s
   Uses
      None
Comment: PMC_IPR unused
PMC_IRQ 00000006

Symbol: PMC_IRQ
   Definitions
      At line 2716 in file MKL46Z4.s
   Uses
      At line 2750 in file MKL46Z4.s
Comment: PMC_IRQ used once
PMC_IRQ_MASK 00000040

Symbol: PMC_IRQ_MASK
   Definitions
      At line 2750 in file MKL46Z4.s
   Uses
      None
Comment: PMC_IRQ_MASK unused
PMC_PRI_POS 00000016

Symbol: PMC_PRI_POS
   Definitions
      At line 2682 in file MKL46Z4.s
   Uses
      None
Comment: PMC_PRI_POS unused
PMC_Vector 00000016

Symbol: PMC_Vector
   Definitions
      At line 2800 in file MKL46Z4.s
   Uses
      None
Comment: PMC_Vector unused
PORTA_BASE 40049000

Symbol: PORTA_BASE
   Definitions
      At line 2997 in file MKL46Z4.s
   Uses
      At line 3033 in file MKL46Z4.s
      At line 3034 in file MKL46Z4.s
      At line 3035 in file MKL46Z4.s
      At line 3036 in file MKL46Z4.s
      At line 3037 in file MKL46Z4.s
      At line 3038 in file MKL46Z4.s
      At line 3039 in file MKL46Z4.s
      At line 3040 in file MKL46Z4.s
      At line 3041 in file MKL46Z4.s
      At line 3042 in file MKL46Z4.s
      At line 3043 in file MKL46Z4.s
      At line 3044 in file MKL46Z4.s
      At line 3045 in file MKL46Z4.s
      At line 3046 in file MKL46Z4.s
      At line 3047 in file MKL46Z4.s
      At line 3048 in file MKL46Z4.s
      At line 3049 in file MKL46Z4.s



ARM Macro Assembler    Page 276 Alphabetic symbol ordering
Absolute symbols

      At line 3050 in file MKL46Z4.s
      At line 3051 in file MKL46Z4.s
      At line 3052 in file MKL46Z4.s
      At line 3053 in file MKL46Z4.s
      At line 3054 in file MKL46Z4.s
      At line 3055 in file MKL46Z4.s
      At line 3056 in file MKL46Z4.s
      At line 3057 in file MKL46Z4.s
      At line 3058 in file MKL46Z4.s
      At line 3059 in file MKL46Z4.s
      At line 3060 in file MKL46Z4.s
      At line 3061 in file MKL46Z4.s
      At line 3062 in file MKL46Z4.s
      At line 3063 in file MKL46Z4.s
      At line 3064 in file MKL46Z4.s
      At line 3065 in file MKL46Z4.s
      At line 3066 in file MKL46Z4.s
      At line 3067 in file MKL46Z4.s

PORTA_GPCHR 40049084

Symbol: PORTA_GPCHR
   Definitions
      At line 3066 in file MKL46Z4.s
   Uses
      None
Comment: PORTA_GPCHR unused
PORTA_GPCHR_OFFSET 00000084

Symbol: PORTA_GPCHR_OFFSET
   Definitions
      At line 3031 in file MKL46Z4.s
   Uses
      At line 3066 in file MKL46Z4.s
Comment: PORTA_GPCHR_OFFSET used once
PORTA_GPCLR 40049080

Symbol: PORTA_GPCLR
   Definitions
      At line 3065 in file MKL46Z4.s
   Uses
      None
Comment: PORTA_GPCLR unused
PORTA_GPCLR_OFFSET 00000080

Symbol: PORTA_GPCLR_OFFSET
   Definitions
      At line 3030 in file MKL46Z4.s
   Uses
      At line 3065 in file MKL46Z4.s
Comment: PORTA_GPCLR_OFFSET used once
PORTA_IPR E000E41C

Symbol: PORTA_IPR
   Definitions
      At line 2670 in file MKL46Z4.s
   Uses
      None
Comment: PORTA_IPR unused



ARM Macro Assembler    Page 277 Alphabetic symbol ordering
Absolute symbols

PORTA_IRQ 0000001E

Symbol: PORTA_IRQ
   Definitions
      At line 2740 in file MKL46Z4.s
   Uses
      At line 2774 in file MKL46Z4.s
Comment: PORTA_IRQ used once
PORTA_IRQ_MASK 40000000

Symbol: PORTA_IRQ_MASK
   Definitions
      At line 2774 in file MKL46Z4.s
   Uses
      None
Comment: PORTA_IRQ_MASK unused
PORTA_IRQn 0000001E

Symbol: PORTA_IRQn
   Definitions
      At line 153 in file MKL46Z4.s
   Uses
      None
Comment: PORTA_IRQn unused
PORTA_ISFR 400490A0

Symbol: PORTA_ISFR
   Definitions
      At line 3067 in file MKL46Z4.s
   Uses
      None
Comment: PORTA_ISFR unused
PORTA_ISFR_OFFSET 000000A0

Symbol: PORTA_ISFR_OFFSET
   Definitions
      At line 3032 in file MKL46Z4.s
   Uses
      At line 3067 in file MKL46Z4.s
Comment: PORTA_ISFR_OFFSET used once
PORTA_PCR0 40049000

Symbol: PORTA_PCR0
   Definitions
      At line 3033 in file MKL46Z4.s
   Uses
      None
Comment: PORTA_PCR0 unused
PORTA_PCR0_OFFSET 00000000

Symbol: PORTA_PCR0_OFFSET
   Definitions
      At line 2998 in file MKL46Z4.s
   Uses
      At line 3033 in file MKL46Z4.s
Comment: PORTA_PCR0_OFFSET used once
PORTA_PCR1 40049004

Symbol: PORTA_PCR1



ARM Macro Assembler    Page 278 Alphabetic symbol ordering
Absolute symbols

   Definitions
      At line 3034 in file MKL46Z4.s
   Uses
      At line 4060 in file test.s
Comment: PORTA_PCR1 used once
PORTA_PCR10 40049028

Symbol: PORTA_PCR10
   Definitions
      At line 3043 in file MKL46Z4.s
   Uses
      None
Comment: PORTA_PCR10 unused
PORTA_PCR10_OFFSET 00000028

Symbol: PORTA_PCR10_OFFSET
   Definitions
      At line 3008 in file MKL46Z4.s
   Uses
      At line 3043 in file MKL46Z4.s
Comment: PORTA_PCR10_OFFSET used once
PORTA_PCR11 4004902C

Symbol: PORTA_PCR11
   Definitions
      At line 3044 in file MKL46Z4.s
   Uses
      None
Comment: PORTA_PCR11 unused
PORTA_PCR11_OFFSET 0000002C

Symbol: PORTA_PCR11_OFFSET
   Definitions
      At line 3009 in file MKL46Z4.s
   Uses
      At line 3044 in file MKL46Z4.s
Comment: PORTA_PCR11_OFFSET used once
PORTA_PCR12 40049030

Symbol: PORTA_PCR12
   Definitions
      At line 3045 in file MKL46Z4.s
   Uses
      None
Comment: PORTA_PCR12 unused
PORTA_PCR12_OFFSET 00000030

Symbol: PORTA_PCR12_OFFSET
   Definitions
      At line 3010 in file MKL46Z4.s
   Uses
      At line 3045 in file MKL46Z4.s
Comment: PORTA_PCR12_OFFSET used once
PORTA_PCR13 40049034

Symbol: PORTA_PCR13
   Definitions
      At line 3046 in file MKL46Z4.s
   Uses



ARM Macro Assembler    Page 279 Alphabetic symbol ordering
Absolute symbols

      None
Comment: PORTA_PCR13 unused
PORTA_PCR13_OFFSET 00000034

Symbol: PORTA_PCR13_OFFSET
   Definitions
      At line 3011 in file MKL46Z4.s
   Uses
      At line 3046 in file MKL46Z4.s
Comment: PORTA_PCR13_OFFSET used once
PORTA_PCR14 40049038

Symbol: PORTA_PCR14
   Definitions
      At line 3047 in file MKL46Z4.s
   Uses
      None
Comment: PORTA_PCR14 unused
PORTA_PCR14_OFFSET 00000038

Symbol: PORTA_PCR14_OFFSET
   Definitions
      At line 3012 in file MKL46Z4.s
   Uses
      At line 3047 in file MKL46Z4.s
Comment: PORTA_PCR14_OFFSET used once
PORTA_PCR15 4004903C

Symbol: PORTA_PCR15
   Definitions
      At line 3048 in file MKL46Z4.s
   Uses
      None
Comment: PORTA_PCR15 unused
PORTA_PCR15_OFFSET 0000003C

Symbol: PORTA_PCR15_OFFSET
   Definitions
      At line 3013 in file MKL46Z4.s
   Uses
      At line 3048 in file MKL46Z4.s
Comment: PORTA_PCR15_OFFSET used once
PORTA_PCR16 40049040

Symbol: PORTA_PCR16
   Definitions
      At line 3049 in file MKL46Z4.s
   Uses
      None
Comment: PORTA_PCR16 unused
PORTA_PCR16_OFFSET 00000040

Symbol: PORTA_PCR16_OFFSET
   Definitions
      At line 3014 in file MKL46Z4.s
   Uses
      At line 3049 in file MKL46Z4.s
Comment: PORTA_PCR16_OFFSET used once
PORTA_PCR17 40049044



ARM Macro Assembler    Page 280 Alphabetic symbol ordering
Absolute symbols


Symbol: PORTA_PCR17
   Definitions
      At line 3050 in file MKL46Z4.s
   Uses
      None
Comment: PORTA_PCR17 unused
PORTA_PCR17_OFFSET 00000044

Symbol: PORTA_PCR17_OFFSET
   Definitions
      At line 3015 in file MKL46Z4.s
   Uses
      At line 3050 in file MKL46Z4.s
Comment: PORTA_PCR17_OFFSET used once
PORTA_PCR18 40049048

Symbol: PORTA_PCR18
   Definitions
      At line 3051 in file MKL46Z4.s
   Uses
      None
Comment: PORTA_PCR18 unused
PORTA_PCR18_OFFSET 00000048

Symbol: PORTA_PCR18_OFFSET
   Definitions
      At line 3016 in file MKL46Z4.s
   Uses
      At line 3051 in file MKL46Z4.s
Comment: PORTA_PCR18_OFFSET used once
PORTA_PCR19 4004904C

Symbol: PORTA_PCR19
   Definitions
      At line 3052 in file MKL46Z4.s
   Uses
      None
Comment: PORTA_PCR19 unused
PORTA_PCR19_OFFSET 0000004C

Symbol: PORTA_PCR19_OFFSET
   Definitions
      At line 3017 in file MKL46Z4.s
   Uses
      At line 3052 in file MKL46Z4.s
Comment: PORTA_PCR19_OFFSET used once
PORTA_PCR1_OFFSET 00000004

Symbol: PORTA_PCR1_OFFSET
   Definitions
      At line 2999 in file MKL46Z4.s
   Uses
      At line 3034 in file MKL46Z4.s
Comment: PORTA_PCR1_OFFSET used once
PORTA_PCR2 40049008

Symbol: PORTA_PCR2
   Definitions



ARM Macro Assembler    Page 281 Alphabetic symbol ordering
Absolute symbols

      At line 3035 in file MKL46Z4.s
   Uses
      At line 4065 in file test.s
Comment: PORTA_PCR2 used once
PORTA_PCR20 40049050

Symbol: PORTA_PCR20
   Definitions
      At line 3053 in file MKL46Z4.s
   Uses
      None
Comment: PORTA_PCR20 unused
PORTA_PCR20_OFFSET 00000050

Symbol: PORTA_PCR20_OFFSET
   Definitions
      At line 3018 in file MKL46Z4.s
   Uses
      At line 3053 in file MKL46Z4.s
Comment: PORTA_PCR20_OFFSET used once
PORTA_PCR21 40049054

Symbol: PORTA_PCR21
   Definitions
      At line 3054 in file MKL46Z4.s
   Uses
      None
Comment: PORTA_PCR21 unused
PORTA_PCR21_OFFSET 00000054

Symbol: PORTA_PCR21_OFFSET
   Definitions
      At line 3019 in file MKL46Z4.s
   Uses
      At line 3054 in file MKL46Z4.s
Comment: PORTA_PCR21_OFFSET used once
PORTA_PCR22 40049058

Symbol: PORTA_PCR22
   Definitions
      At line 3055 in file MKL46Z4.s
   Uses
      None
Comment: PORTA_PCR22 unused
PORTA_PCR22_OFFSET 00000058

Symbol: PORTA_PCR22_OFFSET
   Definitions
      At line 3020 in file MKL46Z4.s
   Uses
      At line 3055 in file MKL46Z4.s
Comment: PORTA_PCR22_OFFSET used once
PORTA_PCR23 4004905C

Symbol: PORTA_PCR23
   Definitions
      At line 3056 in file MKL46Z4.s
   Uses
      None



ARM Macro Assembler    Page 282 Alphabetic symbol ordering
Absolute symbols

Comment: PORTA_PCR23 unused
PORTA_PCR23_OFFSET 0000005C

Symbol: PORTA_PCR23_OFFSET
   Definitions
      At line 3021 in file MKL46Z4.s
   Uses
      At line 3056 in file MKL46Z4.s
Comment: PORTA_PCR23_OFFSET used once
PORTA_PCR24 40049060

Symbol: PORTA_PCR24
   Definitions
      At line 3057 in file MKL46Z4.s
   Uses
      None
Comment: PORTA_PCR24 unused
PORTA_PCR24_OFFSET 00000060

Symbol: PORTA_PCR24_OFFSET
   Definitions
      At line 3022 in file MKL46Z4.s
   Uses
      At line 3057 in file MKL46Z4.s
Comment: PORTA_PCR24_OFFSET used once
PORTA_PCR25 40049064

Symbol: PORTA_PCR25
   Definitions
      At line 3058 in file MKL46Z4.s
   Uses
      None
Comment: PORTA_PCR25 unused
PORTA_PCR25_OFFSET 00000064

Symbol: PORTA_PCR25_OFFSET
   Definitions
      At line 3023 in file MKL46Z4.s
   Uses
      At line 3058 in file MKL46Z4.s
Comment: PORTA_PCR25_OFFSET used once
PORTA_PCR26 40049068

Symbol: PORTA_PCR26
   Definitions
      At line 3059 in file MKL46Z4.s
   Uses
      None
Comment: PORTA_PCR26 unused
PORTA_PCR26_OFFSET 00000068

Symbol: PORTA_PCR26_OFFSET
   Definitions
      At line 3024 in file MKL46Z4.s
   Uses
      At line 3059 in file MKL46Z4.s
Comment: PORTA_PCR26_OFFSET used once
PORTA_PCR27 4004906C




ARM Macro Assembler    Page 283 Alphabetic symbol ordering
Absolute symbols

Symbol: PORTA_PCR27
   Definitions
      At line 3060 in file MKL46Z4.s
   Uses
      None
Comment: PORTA_PCR27 unused
PORTA_PCR27_OFFSET 0000006C

Symbol: PORTA_PCR27_OFFSET
   Definitions
      At line 3025 in file MKL46Z4.s
   Uses
      At line 3060 in file MKL46Z4.s
Comment: PORTA_PCR27_OFFSET used once
PORTA_PCR28 40049070

Symbol: PORTA_PCR28
   Definitions
      At line 3061 in file MKL46Z4.s
   Uses
      None
Comment: PORTA_PCR28 unused
PORTA_PCR28_OFFSET 00000070

Symbol: PORTA_PCR28_OFFSET
   Definitions
      At line 3026 in file MKL46Z4.s
   Uses
      At line 3061 in file MKL46Z4.s
Comment: PORTA_PCR28_OFFSET used once
PORTA_PCR29 40049074

Symbol: PORTA_PCR29
   Definitions
      At line 3062 in file MKL46Z4.s
   Uses
      None
Comment: PORTA_PCR29 unused
PORTA_PCR29_OFFSET 00000074

Symbol: PORTA_PCR29_OFFSET
   Definitions
      At line 3027 in file MKL46Z4.s
   Uses
      At line 3062 in file MKL46Z4.s
Comment: PORTA_PCR29_OFFSET used once
PORTA_PCR2_OFFSET 00000008

Symbol: PORTA_PCR2_OFFSET
   Definitions
      At line 3000 in file MKL46Z4.s
   Uses
      At line 3035 in file MKL46Z4.s
Comment: PORTA_PCR2_OFFSET used once
PORTA_PCR3 4004900C

Symbol: PORTA_PCR3
   Definitions
      At line 3036 in file MKL46Z4.s



ARM Macro Assembler    Page 284 Alphabetic symbol ordering
Absolute symbols

   Uses
      None
Comment: PORTA_PCR3 unused
PORTA_PCR30 40049078

Symbol: PORTA_PCR30
   Definitions
      At line 3063 in file MKL46Z4.s
   Uses
      None
Comment: PORTA_PCR30 unused
PORTA_PCR30_OFFSET 00000078

Symbol: PORTA_PCR30_OFFSET
   Definitions
      At line 3028 in file MKL46Z4.s
   Uses
      At line 3063 in file MKL46Z4.s
Comment: PORTA_PCR30_OFFSET used once
PORTA_PCR31 4004907C

Symbol: PORTA_PCR31
   Definitions
      At line 3064 in file MKL46Z4.s
   Uses
      None
Comment: PORTA_PCR31 unused
PORTA_PCR31_OFFSET 0000007C

Symbol: PORTA_PCR31_OFFSET
   Definitions
      At line 3029 in file MKL46Z4.s
   Uses
      At line 3064 in file MKL46Z4.s
Comment: PORTA_PCR31_OFFSET used once
PORTA_PCR3_OFFSET 0000000C

Symbol: PORTA_PCR3_OFFSET
   Definitions
      At line 3001 in file MKL46Z4.s
   Uses
      At line 3036 in file MKL46Z4.s
Comment: PORTA_PCR3_OFFSET used once
PORTA_PCR4 40049010

Symbol: PORTA_PCR4
   Definitions
      At line 3037 in file MKL46Z4.s
   Uses
      None
Comment: PORTA_PCR4 unused
PORTA_PCR4_OFFSET 00000010

Symbol: PORTA_PCR4_OFFSET
   Definitions
      At line 3002 in file MKL46Z4.s
   Uses
      At line 3037 in file MKL46Z4.s
Comment: PORTA_PCR4_OFFSET used once



ARM Macro Assembler    Page 285 Alphabetic symbol ordering
Absolute symbols

PORTA_PCR5 40049014

Symbol: PORTA_PCR5
   Definitions
      At line 3038 in file MKL46Z4.s
   Uses
      None
Comment: PORTA_PCR5 unused
PORTA_PCR5_OFFSET 00000014

Symbol: PORTA_PCR5_OFFSET
   Definitions
      At line 3003 in file MKL46Z4.s
   Uses
      At line 3038 in file MKL46Z4.s
Comment: PORTA_PCR5_OFFSET used once
PORTA_PCR6 40049018

Symbol: PORTA_PCR6
   Definitions
      At line 3039 in file MKL46Z4.s
   Uses
      None
Comment: PORTA_PCR6 unused
PORTA_PCR6_OFFSET 00000018

Symbol: PORTA_PCR6_OFFSET
   Definitions
      At line 3004 in file MKL46Z4.s
   Uses
      At line 3039 in file MKL46Z4.s
Comment: PORTA_PCR6_OFFSET used once
PORTA_PCR7 4004901C

Symbol: PORTA_PCR7
   Definitions
      At line 3040 in file MKL46Z4.s
   Uses
      None
Comment: PORTA_PCR7 unused
PORTA_PCR7_OFFSET 0000001C

Symbol: PORTA_PCR7_OFFSET
   Definitions
      At line 3005 in file MKL46Z4.s
   Uses
      At line 3040 in file MKL46Z4.s
Comment: PORTA_PCR7_OFFSET used once
PORTA_PCR8 40049020

Symbol: PORTA_PCR8
   Definitions
      At line 3041 in file MKL46Z4.s
   Uses
      None
Comment: PORTA_PCR8 unused
PORTA_PCR8_OFFSET 00000020

Symbol: PORTA_PCR8_OFFSET



ARM Macro Assembler    Page 286 Alphabetic symbol ordering
Absolute symbols

   Definitions
      At line 3006 in file MKL46Z4.s
   Uses
      At line 3041 in file MKL46Z4.s
Comment: PORTA_PCR8_OFFSET used once
PORTA_PCR9 40049024

Symbol: PORTA_PCR9
   Definitions
      At line 3042 in file MKL46Z4.s
   Uses
      None
Comment: PORTA_PCR9 unused
PORTA_PCR9_OFFSET 00000024

Symbol: PORTA_PCR9_OFFSET
   Definitions
      At line 3007 in file MKL46Z4.s
   Uses
      At line 3042 in file MKL46Z4.s
Comment: PORTA_PCR9_OFFSET used once
PORTA_PRI_POS 00000016

Symbol: PORTA_PRI_POS
   Definitions
      At line 2706 in file MKL46Z4.s
   Uses
      None
Comment: PORTA_PRI_POS unused
PORTA_Vector 0000002E

Symbol: PORTA_Vector
   Definitions
      At line 2824 in file MKL46Z4.s
   Uses
      None
Comment: PORTA_Vector unused
PORTB_BASE 4004A000

Symbol: PORTB_BASE
   Definitions
      At line 3070 in file MKL46Z4.s
   Uses
      At line 3106 in file MKL46Z4.s
      At line 3107 in file MKL46Z4.s
      At line 3108 in file MKL46Z4.s
      At line 3109 in file MKL46Z4.s
      At line 3110 in file MKL46Z4.s
      At line 3111 in file MKL46Z4.s
      At line 3112 in file MKL46Z4.s
      At line 3113 in file MKL46Z4.s
      At line 3114 in file MKL46Z4.s
      At line 3115 in file MKL46Z4.s
      At line 3116 in file MKL46Z4.s
      At line 3117 in file MKL46Z4.s
      At line 3118 in file MKL46Z4.s
      At line 3119 in file MKL46Z4.s
      At line 3120 in file MKL46Z4.s
      At line 3121 in file MKL46Z4.s



ARM Macro Assembler    Page 287 Alphabetic symbol ordering
Absolute symbols

      At line 3122 in file MKL46Z4.s
      At line 3123 in file MKL46Z4.s
      At line 3124 in file MKL46Z4.s
      At line 3125 in file MKL46Z4.s
      At line 3126 in file MKL46Z4.s
      At line 3127 in file MKL46Z4.s
      At line 3128 in file MKL46Z4.s
      At line 3129 in file MKL46Z4.s
      At line 3130 in file MKL46Z4.s
      At line 3131 in file MKL46Z4.s
      At line 3132 in file MKL46Z4.s
      At line 3133 in file MKL46Z4.s
      At line 3134 in file MKL46Z4.s
      At line 3135 in file MKL46Z4.s
      At line 3136 in file MKL46Z4.s
      At line 3137 in file MKL46Z4.s
      At line 3138 in file MKL46Z4.s
      At line 3139 in file MKL46Z4.s
      At line 3140 in file MKL46Z4.s

PORTB_GPCHR 4004A084

Symbol: PORTB_GPCHR
   Definitions
      At line 3139 in file MKL46Z4.s
   Uses
      None
Comment: PORTB_GPCHR unused
PORTB_GPCHR_OFFSET 00000084

Symbol: PORTB_GPCHR_OFFSET
   Definitions
      At line 3104 in file MKL46Z4.s
   Uses
      At line 3139 in file MKL46Z4.s
Comment: PORTB_GPCHR_OFFSET used once
PORTB_GPCLR 4004A080

Symbol: PORTB_GPCLR
   Definitions
      At line 3138 in file MKL46Z4.s
   Uses
      None
Comment: PORTB_GPCLR unused
PORTB_GPCLR_OFFSET 00000080

Symbol: PORTB_GPCLR_OFFSET
   Definitions
      At line 3103 in file MKL46Z4.s
   Uses
      At line 3138 in file MKL46Z4.s
Comment: PORTB_GPCLR_OFFSET used once
PORTB_ISFR 4004A0A0

Symbol: PORTB_ISFR
   Definitions
      At line 3140 in file MKL46Z4.s
   Uses
      None



ARM Macro Assembler    Page 288 Alphabetic symbol ordering
Absolute symbols

Comment: PORTB_ISFR unused
PORTB_ISFR_OFFSET 000000A0

Symbol: PORTB_ISFR_OFFSET
   Definitions
      At line 3105 in file MKL46Z4.s
   Uses
      At line 3140 in file MKL46Z4.s
Comment: PORTB_ISFR_OFFSET used once
PORTB_PCR0 4004A000

Symbol: PORTB_PCR0
   Definitions
      At line 3106 in file MKL46Z4.s
   Uses
      None
Comment: PORTB_PCR0 unused
PORTB_PCR0_OFFSET 00000000

Symbol: PORTB_PCR0_OFFSET
   Definitions
      At line 3071 in file MKL46Z4.s
   Uses
      At line 3106 in file MKL46Z4.s
Comment: PORTB_PCR0_OFFSET used once
PORTB_PCR1 4004A004

Symbol: PORTB_PCR1
   Definitions
      At line 3107 in file MKL46Z4.s
   Uses
      None
Comment: PORTB_PCR1 unused
PORTB_PCR10 4004A028

Symbol: PORTB_PCR10
   Definitions
      At line 3116 in file MKL46Z4.s
   Uses
      None
Comment: PORTB_PCR10 unused
PORTB_PCR10_OFFSET 00000028

Symbol: PORTB_PCR10_OFFSET
   Definitions
      At line 3081 in file MKL46Z4.s
   Uses
      At line 3116 in file MKL46Z4.s
Comment: PORTB_PCR10_OFFSET used once
PORTB_PCR11 4004A02C

Symbol: PORTB_PCR11
   Definitions
      At line 3117 in file MKL46Z4.s
   Uses
      None
Comment: PORTB_PCR11 unused
PORTB_PCR11_OFFSET 0000002C




ARM Macro Assembler    Page 289 Alphabetic symbol ordering
Absolute symbols

Symbol: PORTB_PCR11_OFFSET
   Definitions
      At line 3082 in file MKL46Z4.s
   Uses
      At line 3117 in file MKL46Z4.s
Comment: PORTB_PCR11_OFFSET used once
PORTB_PCR12 4004A030

Symbol: PORTB_PCR12
   Definitions
      At line 3118 in file MKL46Z4.s
   Uses
      None
Comment: PORTB_PCR12 unused
PORTB_PCR12_OFFSET 00000030

Symbol: PORTB_PCR12_OFFSET
   Definitions
      At line 3083 in file MKL46Z4.s
   Uses
      At line 3118 in file MKL46Z4.s
Comment: PORTB_PCR12_OFFSET used once
PORTB_PCR13 4004A034

Symbol: PORTB_PCR13
   Definitions
      At line 3119 in file MKL46Z4.s
   Uses
      None
Comment: PORTB_PCR13 unused
PORTB_PCR13_OFFSET 00000034

Symbol: PORTB_PCR13_OFFSET
   Definitions
      At line 3084 in file MKL46Z4.s
   Uses
      At line 3119 in file MKL46Z4.s
Comment: PORTB_PCR13_OFFSET used once
PORTB_PCR14 4004A038

Symbol: PORTB_PCR14
   Definitions
      At line 3120 in file MKL46Z4.s
   Uses
      None
Comment: PORTB_PCR14 unused
PORTB_PCR14_OFFSET 00000038

Symbol: PORTB_PCR14_OFFSET
   Definitions
      At line 3085 in file MKL46Z4.s
   Uses
      At line 3120 in file MKL46Z4.s
Comment: PORTB_PCR14_OFFSET used once
PORTB_PCR15 4004A03C

Symbol: PORTB_PCR15
   Definitions
      At line 3121 in file MKL46Z4.s



ARM Macro Assembler    Page 290 Alphabetic symbol ordering
Absolute symbols

   Uses
      None
Comment: PORTB_PCR15 unused
PORTB_PCR15_OFFSET 0000003C

Symbol: PORTB_PCR15_OFFSET
   Definitions
      At line 3086 in file MKL46Z4.s
   Uses
      At line 3121 in file MKL46Z4.s
Comment: PORTB_PCR15_OFFSET used once
PORTB_PCR16 4004A040

Symbol: PORTB_PCR16
   Definitions
      At line 3122 in file MKL46Z4.s
   Uses
      None
Comment: PORTB_PCR16 unused
PORTB_PCR16_OFFSET 00000040

Symbol: PORTB_PCR16_OFFSET
   Definitions
      At line 3087 in file MKL46Z4.s
   Uses
      At line 3122 in file MKL46Z4.s
Comment: PORTB_PCR16_OFFSET used once
PORTB_PCR17 4004A044

Symbol: PORTB_PCR17
   Definitions
      At line 3123 in file MKL46Z4.s
   Uses
      None
Comment: PORTB_PCR17 unused
PORTB_PCR17_OFFSET 00000044

Symbol: PORTB_PCR17_OFFSET
   Definitions
      At line 3088 in file MKL46Z4.s
   Uses
      At line 3123 in file MKL46Z4.s
Comment: PORTB_PCR17_OFFSET used once
PORTB_PCR18 4004A048

Symbol: PORTB_PCR18
   Definitions
      At line 3124 in file MKL46Z4.s
   Uses
      None
Comment: PORTB_PCR18 unused
PORTB_PCR18_OFFSET 00000048

Symbol: PORTB_PCR18_OFFSET
   Definitions
      At line 3089 in file MKL46Z4.s
   Uses
      At line 3124 in file MKL46Z4.s
Comment: PORTB_PCR18_OFFSET used once



ARM Macro Assembler    Page 291 Alphabetic symbol ordering
Absolute symbols

PORTB_PCR19 4004A04C

Symbol: PORTB_PCR19
   Definitions
      At line 3125 in file MKL46Z4.s
   Uses
      None
Comment: PORTB_PCR19 unused
PORTB_PCR19_OFFSET 0000004C

Symbol: PORTB_PCR19_OFFSET
   Definitions
      At line 3090 in file MKL46Z4.s
   Uses
      At line 3125 in file MKL46Z4.s
Comment: PORTB_PCR19_OFFSET used once
PORTB_PCR1_OFFSET 00000004

Symbol: PORTB_PCR1_OFFSET
   Definitions
      At line 3072 in file MKL46Z4.s
   Uses
      At line 3107 in file MKL46Z4.s
Comment: PORTB_PCR1_OFFSET used once
PORTB_PCR2 4004A008

Symbol: PORTB_PCR2
   Definitions
      At line 3108 in file MKL46Z4.s
   Uses
      None
Comment: PORTB_PCR2 unused
PORTB_PCR20 4004A050

Symbol: PORTB_PCR20
   Definitions
      At line 3126 in file MKL46Z4.s
   Uses
      None
Comment: PORTB_PCR20 unused
PORTB_PCR20_OFFSET 00000050

Symbol: PORTB_PCR20_OFFSET
   Definitions
      At line 3091 in file MKL46Z4.s
   Uses
      At line 3126 in file MKL46Z4.s
Comment: PORTB_PCR20_OFFSET used once
PORTB_PCR21 4004A054

Symbol: PORTB_PCR21
   Definitions
      At line 3127 in file MKL46Z4.s
   Uses
      None
Comment: PORTB_PCR21 unused
PORTB_PCR21_OFFSET 00000054

Symbol: PORTB_PCR21_OFFSET



ARM Macro Assembler    Page 292 Alphabetic symbol ordering
Absolute symbols

   Definitions
      At line 3092 in file MKL46Z4.s
   Uses
      At line 3127 in file MKL46Z4.s
Comment: PORTB_PCR21_OFFSET used once
PORTB_PCR22 4004A058

Symbol: PORTB_PCR22
   Definitions
      At line 3128 in file MKL46Z4.s
   Uses
      None
Comment: PORTB_PCR22 unused
PORTB_PCR22_OFFSET 00000058

Symbol: PORTB_PCR22_OFFSET
   Definitions
      At line 3093 in file MKL46Z4.s
   Uses
      At line 3128 in file MKL46Z4.s
Comment: PORTB_PCR22_OFFSET used once
PORTB_PCR23 4004A05C

Symbol: PORTB_PCR23
   Definitions
      At line 3129 in file MKL46Z4.s
   Uses
      None
Comment: PORTB_PCR23 unused
PORTB_PCR23_OFFSET 0000005C

Symbol: PORTB_PCR23_OFFSET
   Definitions
      At line 3094 in file MKL46Z4.s
   Uses
      At line 3129 in file MKL46Z4.s
Comment: PORTB_PCR23_OFFSET used once
PORTB_PCR24 4004A060

Symbol: PORTB_PCR24
   Definitions
      At line 3130 in file MKL46Z4.s
   Uses
      None
Comment: PORTB_PCR24 unused
PORTB_PCR24_OFFSET 00000060

Symbol: PORTB_PCR24_OFFSET
   Definitions
      At line 3095 in file MKL46Z4.s
   Uses
      At line 3130 in file MKL46Z4.s
Comment: PORTB_PCR24_OFFSET used once
PORTB_PCR25 4004A064

Symbol: PORTB_PCR25
   Definitions
      At line 3131 in file MKL46Z4.s
   Uses



ARM Macro Assembler    Page 293 Alphabetic symbol ordering
Absolute symbols

      None
Comment: PORTB_PCR25 unused
PORTB_PCR25_OFFSET 00000064

Symbol: PORTB_PCR25_OFFSET
   Definitions
      At line 3096 in file MKL46Z4.s
   Uses
      At line 3131 in file MKL46Z4.s
Comment: PORTB_PCR25_OFFSET used once
PORTB_PCR26 4004A068

Symbol: PORTB_PCR26
   Definitions
      At line 3132 in file MKL46Z4.s
   Uses
      None
Comment: PORTB_PCR26 unused
PORTB_PCR26_OFFSET 00000068

Symbol: PORTB_PCR26_OFFSET
   Definitions
      At line 3097 in file MKL46Z4.s
   Uses
      At line 3132 in file MKL46Z4.s
Comment: PORTB_PCR26_OFFSET used once
PORTB_PCR27 4004A06C

Symbol: PORTB_PCR27
   Definitions
      At line 3133 in file MKL46Z4.s
   Uses
      None
Comment: PORTB_PCR27 unused
PORTB_PCR27_OFFSET 0000006C

Symbol: PORTB_PCR27_OFFSET
   Definitions
      At line 3098 in file MKL46Z4.s
   Uses
      At line 3133 in file MKL46Z4.s
Comment: PORTB_PCR27_OFFSET used once
PORTB_PCR28 4004A070

Symbol: PORTB_PCR28
   Definitions
      At line 3134 in file MKL46Z4.s
   Uses
      None
Comment: PORTB_PCR28 unused
PORTB_PCR28_OFFSET 00000070

Symbol: PORTB_PCR28_OFFSET
   Definitions
      At line 3099 in file MKL46Z4.s
   Uses
      At line 3134 in file MKL46Z4.s
Comment: PORTB_PCR28_OFFSET used once
PORTB_PCR29 4004A074



ARM Macro Assembler    Page 294 Alphabetic symbol ordering
Absolute symbols


Symbol: PORTB_PCR29
   Definitions
      At line 3135 in file MKL46Z4.s
   Uses
      None
Comment: PORTB_PCR29 unused
PORTB_PCR29_OFFSET 00000074

Symbol: PORTB_PCR29_OFFSET
   Definitions
      At line 3100 in file MKL46Z4.s
   Uses
      At line 3135 in file MKL46Z4.s
Comment: PORTB_PCR29_OFFSET used once
PORTB_PCR2_OFFSET 00000008

Symbol: PORTB_PCR2_OFFSET
   Definitions
      At line 3073 in file MKL46Z4.s
   Uses
      At line 3108 in file MKL46Z4.s
Comment: PORTB_PCR2_OFFSET used once
PORTB_PCR3 4004A00C

Symbol: PORTB_PCR3
   Definitions
      At line 3109 in file MKL46Z4.s
   Uses
      None
Comment: PORTB_PCR3 unused
PORTB_PCR30 4004A078

Symbol: PORTB_PCR30
   Definitions
      At line 3136 in file MKL46Z4.s
   Uses
      None
Comment: PORTB_PCR30 unused
PORTB_PCR30_OFFSET 00000078

Symbol: PORTB_PCR30_OFFSET
   Definitions
      At line 3101 in file MKL46Z4.s
   Uses
      At line 3136 in file MKL46Z4.s
Comment: PORTB_PCR30_OFFSET used once
PORTB_PCR31 4004A07C

Symbol: PORTB_PCR31
   Definitions
      At line 3137 in file MKL46Z4.s
   Uses
      None
Comment: PORTB_PCR31 unused
PORTB_PCR31_OFFSET 0000007C

Symbol: PORTB_PCR31_OFFSET
   Definitions



ARM Macro Assembler    Page 295 Alphabetic symbol ordering
Absolute symbols

      At line 3102 in file MKL46Z4.s
   Uses
      At line 3137 in file MKL46Z4.s
Comment: PORTB_PCR31_OFFSET used once
PORTB_PCR3_OFFSET 0000000C

Symbol: PORTB_PCR3_OFFSET
   Definitions
      At line 3074 in file MKL46Z4.s
   Uses
      At line 3109 in file MKL46Z4.s
Comment: PORTB_PCR3_OFFSET used once
PORTB_PCR4 4004A010

Symbol: PORTB_PCR4
   Definitions
      At line 3110 in file MKL46Z4.s
   Uses
      None
Comment: PORTB_PCR4 unused
PORTB_PCR4_OFFSET 00000010

Symbol: PORTB_PCR4_OFFSET
   Definitions
      At line 3075 in file MKL46Z4.s
   Uses
      At line 3110 in file MKL46Z4.s
Comment: PORTB_PCR4_OFFSET used once
PORTB_PCR5 4004A014

Symbol: PORTB_PCR5
   Definitions
      At line 3111 in file MKL46Z4.s
   Uses
      None
Comment: PORTB_PCR5 unused
PORTB_PCR5_OFFSET 00000014

Symbol: PORTB_PCR5_OFFSET
   Definitions
      At line 3076 in file MKL46Z4.s
   Uses
      At line 3111 in file MKL46Z4.s
Comment: PORTB_PCR5_OFFSET used once
PORTB_PCR6 4004A018

Symbol: PORTB_PCR6
   Definitions
      At line 3112 in file MKL46Z4.s
   Uses
      None
Comment: PORTB_PCR6 unused
PORTB_PCR6_OFFSET 00000018

Symbol: PORTB_PCR6_OFFSET
   Definitions
      At line 3077 in file MKL46Z4.s
   Uses
      At line 3112 in file MKL46Z4.s



ARM Macro Assembler    Page 296 Alphabetic symbol ordering
Absolute symbols

Comment: PORTB_PCR6_OFFSET used once
PORTB_PCR7 4004A01C

Symbol: PORTB_PCR7
   Definitions
      At line 3113 in file MKL46Z4.s
   Uses
      None
Comment: PORTB_PCR7 unused
PORTB_PCR7_OFFSET 0000001C

Symbol: PORTB_PCR7_OFFSET
   Definitions
      At line 3078 in file MKL46Z4.s
   Uses
      At line 3113 in file MKL46Z4.s
Comment: PORTB_PCR7_OFFSET used once
PORTB_PCR8 4004A020

Symbol: PORTB_PCR8
   Definitions
      At line 3114 in file MKL46Z4.s
   Uses
      None
Comment: PORTB_PCR8 unused
PORTB_PCR8_OFFSET 00000020

Symbol: PORTB_PCR8_OFFSET
   Definitions
      At line 3079 in file MKL46Z4.s
   Uses
      At line 3114 in file MKL46Z4.s
Comment: PORTB_PCR8_OFFSET used once
PORTB_PCR9 4004A024

Symbol: PORTB_PCR9
   Definitions
      At line 3115 in file MKL46Z4.s
   Uses
      None
Comment: PORTB_PCR9 unused
PORTB_PCR9_OFFSET 00000024

Symbol: PORTB_PCR9_OFFSET
   Definitions
      At line 3080 in file MKL46Z4.s
   Uses
      At line 3115 in file MKL46Z4.s
Comment: PORTB_PCR9_OFFSET used once
PORTC_BASE 4004B000

Symbol: PORTC_BASE
   Definitions
      At line 3143 in file MKL46Z4.s
   Uses
      At line 3179 in file MKL46Z4.s
      At line 3180 in file MKL46Z4.s
      At line 3181 in file MKL46Z4.s
      At line 3182 in file MKL46Z4.s



ARM Macro Assembler    Page 297 Alphabetic symbol ordering
Absolute symbols

      At line 3183 in file MKL46Z4.s
      At line 3184 in file MKL46Z4.s
      At line 3185 in file MKL46Z4.s
      At line 3186 in file MKL46Z4.s
      At line 3187 in file MKL46Z4.s
      At line 3188 in file MKL46Z4.s
      At line 3189 in file MKL46Z4.s
      At line 3190 in file MKL46Z4.s
      At line 3191 in file MKL46Z4.s
      At line 3192 in file MKL46Z4.s
      At line 3193 in file MKL46Z4.s
      At line 3194 in file MKL46Z4.s
      At line 3195 in file MKL46Z4.s
      At line 3196 in file MKL46Z4.s
      At line 3197 in file MKL46Z4.s
      At line 3198 in file MKL46Z4.s
      At line 3199 in file MKL46Z4.s
      At line 3200 in file MKL46Z4.s
      At line 3201 in file MKL46Z4.s
      At line 3202 in file MKL46Z4.s
      At line 3203 in file MKL46Z4.s
      At line 3204 in file MKL46Z4.s
      At line 3205 in file MKL46Z4.s
      At line 3206 in file MKL46Z4.s
      At line 3207 in file MKL46Z4.s
      At line 3208 in file MKL46Z4.s
      At line 3209 in file MKL46Z4.s
      At line 3210 in file MKL46Z4.s
      At line 3211 in file MKL46Z4.s
      At line 3212 in file MKL46Z4.s
      At line 3213 in file MKL46Z4.s

PORTC_GPCHR 4004B084

Symbol: PORTC_GPCHR
   Definitions
      At line 3212 in file MKL46Z4.s
   Uses
      None
Comment: PORTC_GPCHR unused
PORTC_GPCHR_OFFSET 00000084

Symbol: PORTC_GPCHR_OFFSET
   Definitions
      At line 3177 in file MKL46Z4.s
   Uses
      At line 3212 in file MKL46Z4.s
Comment: PORTC_GPCHR_OFFSET used once
PORTC_GPCLR 4004B080

Symbol: PORTC_GPCLR
   Definitions
      At line 3211 in file MKL46Z4.s
   Uses
      None
Comment: PORTC_GPCLR unused
PORTC_GPCLR_OFFSET 00000080

Symbol: PORTC_GPCLR_OFFSET



ARM Macro Assembler    Page 298 Alphabetic symbol ordering
Absolute symbols

   Definitions
      At line 3176 in file MKL46Z4.s
   Uses
      At line 3211 in file MKL46Z4.s
Comment: PORTC_GPCLR_OFFSET used once
PORTC_ISFR 4004B0A0

Symbol: PORTC_ISFR
   Definitions
      At line 3213 in file MKL46Z4.s
   Uses
      None
Comment: PORTC_ISFR unused
PORTC_ISFR_OFFSET 000000A0

Symbol: PORTC_ISFR_OFFSET
   Definitions
      At line 3178 in file MKL46Z4.s
   Uses
      At line 3213 in file MKL46Z4.s
Comment: PORTC_ISFR_OFFSET used once
PORTC_PCR0 4004B000

Symbol: PORTC_PCR0
   Definitions
      At line 3179 in file MKL46Z4.s
   Uses
      None
Comment: PORTC_PCR0 unused
PORTC_PCR0_OFFSET 00000000

Symbol: PORTC_PCR0_OFFSET
   Definitions
      At line 3144 in file MKL46Z4.s
   Uses
      At line 3179 in file MKL46Z4.s
Comment: PORTC_PCR0_OFFSET used once
PORTC_PCR1 4004B004

Symbol: PORTC_PCR1
   Definitions
      At line 3180 in file MKL46Z4.s
   Uses
      None
Comment: PORTC_PCR1 unused
PORTC_PCR10 4004B028

Symbol: PORTC_PCR10
   Definitions
      At line 3189 in file MKL46Z4.s
   Uses
      None
Comment: PORTC_PCR10 unused
PORTC_PCR10_OFFSET 00000028

Symbol: PORTC_PCR10_OFFSET
   Definitions
      At line 3154 in file MKL46Z4.s
   Uses



ARM Macro Assembler    Page 299 Alphabetic symbol ordering
Absolute symbols

      At line 3189 in file MKL46Z4.s
Comment: PORTC_PCR10_OFFSET used once
PORTC_PCR11 4004B02C

Symbol: PORTC_PCR11
   Definitions
      At line 3190 in file MKL46Z4.s
   Uses
      None
Comment: PORTC_PCR11 unused
PORTC_PCR11_OFFSET 0000002C

Symbol: PORTC_PCR11_OFFSET
   Definitions
      At line 3155 in file MKL46Z4.s
   Uses
      At line 3190 in file MKL46Z4.s
Comment: PORTC_PCR11_OFFSET used once
PORTC_PCR12 4004B030

Symbol: PORTC_PCR12
   Definitions
      At line 3191 in file MKL46Z4.s
   Uses
      None
Comment: PORTC_PCR12 unused
PORTC_PCR12_OFFSET 00000030

Symbol: PORTC_PCR12_OFFSET
   Definitions
      At line 3156 in file MKL46Z4.s
   Uses
      At line 3191 in file MKL46Z4.s
Comment: PORTC_PCR12_OFFSET used once
PORTC_PCR13 4004B034

Symbol: PORTC_PCR13
   Definitions
      At line 3192 in file MKL46Z4.s
   Uses
      None
Comment: PORTC_PCR13 unused
PORTC_PCR13_OFFSET 00000034

Symbol: PORTC_PCR13_OFFSET
   Definitions
      At line 3157 in file MKL46Z4.s
   Uses
      At line 3192 in file MKL46Z4.s
Comment: PORTC_PCR13_OFFSET used once
PORTC_PCR14 4004B038

Symbol: PORTC_PCR14
   Definitions
      At line 3193 in file MKL46Z4.s
   Uses
      None
Comment: PORTC_PCR14 unused
PORTC_PCR14_OFFSET 00000038



ARM Macro Assembler    Page 300 Alphabetic symbol ordering
Absolute symbols


Symbol: PORTC_PCR14_OFFSET
   Definitions
      At line 3158 in file MKL46Z4.s
   Uses
      At line 3193 in file MKL46Z4.s
Comment: PORTC_PCR14_OFFSET used once
PORTC_PCR15 4004B03C

Symbol: PORTC_PCR15
   Definitions
      At line 3194 in file MKL46Z4.s
   Uses
      None
Comment: PORTC_PCR15 unused
PORTC_PCR15_OFFSET 0000003C

Symbol: PORTC_PCR15_OFFSET
   Definitions
      At line 3159 in file MKL46Z4.s
   Uses
      At line 3194 in file MKL46Z4.s
Comment: PORTC_PCR15_OFFSET used once
PORTC_PCR16 4004B040

Symbol: PORTC_PCR16
   Definitions
      At line 3195 in file MKL46Z4.s
   Uses
      None
Comment: PORTC_PCR16 unused
PORTC_PCR16_OFFSET 00000040

Symbol: PORTC_PCR16_OFFSET
   Definitions
      At line 3160 in file MKL46Z4.s
   Uses
      At line 3195 in file MKL46Z4.s
Comment: PORTC_PCR16_OFFSET used once
PORTC_PCR17 4004B044

Symbol: PORTC_PCR17
   Definitions
      At line 3196 in file MKL46Z4.s
   Uses
      None
Comment: PORTC_PCR17 unused
PORTC_PCR17_OFFSET 00000044

Symbol: PORTC_PCR17_OFFSET
   Definitions
      At line 3161 in file MKL46Z4.s
   Uses
      At line 3196 in file MKL46Z4.s
Comment: PORTC_PCR17_OFFSET used once
PORTC_PCR18 4004B048

Symbol: PORTC_PCR18
   Definitions



ARM Macro Assembler    Page 301 Alphabetic symbol ordering
Absolute symbols

      At line 3197 in file MKL46Z4.s
   Uses
      None
Comment: PORTC_PCR18 unused
PORTC_PCR18_OFFSET 00000048

Symbol: PORTC_PCR18_OFFSET
   Definitions
      At line 3162 in file MKL46Z4.s
   Uses
      At line 3197 in file MKL46Z4.s
Comment: PORTC_PCR18_OFFSET used once
PORTC_PCR19 4004B04C

Symbol: PORTC_PCR19
   Definitions
      At line 3198 in file MKL46Z4.s
   Uses
      None
Comment: PORTC_PCR19 unused
PORTC_PCR19_OFFSET 0000004C

Symbol: PORTC_PCR19_OFFSET
   Definitions
      At line 3163 in file MKL46Z4.s
   Uses
      At line 3198 in file MKL46Z4.s
Comment: PORTC_PCR19_OFFSET used once
PORTC_PCR1_OFFSET 00000004

Symbol: PORTC_PCR1_OFFSET
   Definitions
      At line 3145 in file MKL46Z4.s
   Uses
      At line 3180 in file MKL46Z4.s
Comment: PORTC_PCR1_OFFSET used once
PORTC_PCR2 4004B008

Symbol: PORTC_PCR2
   Definitions
      At line 3181 in file MKL46Z4.s
   Uses
      None
Comment: PORTC_PCR2 unused
PORTC_PCR20 4004B050

Symbol: PORTC_PCR20
   Definitions
      At line 3199 in file MKL46Z4.s
   Uses
      None
Comment: PORTC_PCR20 unused
PORTC_PCR20_OFFSET 00000050

Symbol: PORTC_PCR20_OFFSET
   Definitions
      At line 3164 in file MKL46Z4.s
   Uses
      At line 3199 in file MKL46Z4.s



ARM Macro Assembler    Page 302 Alphabetic symbol ordering
Absolute symbols

Comment: PORTC_PCR20_OFFSET used once
PORTC_PCR21 4004B054

Symbol: PORTC_PCR21
   Definitions
      At line 3200 in file MKL46Z4.s
   Uses
      None
Comment: PORTC_PCR21 unused
PORTC_PCR21_OFFSET 00000054

Symbol: PORTC_PCR21_OFFSET
   Definitions
      At line 3165 in file MKL46Z4.s
   Uses
      At line 3200 in file MKL46Z4.s
Comment: PORTC_PCR21_OFFSET used once
PORTC_PCR22 4004B058

Symbol: PORTC_PCR22
   Definitions
      At line 3201 in file MKL46Z4.s
   Uses
      None
Comment: PORTC_PCR22 unused
PORTC_PCR22_OFFSET 00000058

Symbol: PORTC_PCR22_OFFSET
   Definitions
      At line 3166 in file MKL46Z4.s
   Uses
      At line 3201 in file MKL46Z4.s
Comment: PORTC_PCR22_OFFSET used once
PORTC_PCR23 4004B05C

Symbol: PORTC_PCR23
   Definitions
      At line 3202 in file MKL46Z4.s
   Uses
      None
Comment: PORTC_PCR23 unused
PORTC_PCR23_OFFSET 0000005C

Symbol: PORTC_PCR23_OFFSET
   Definitions
      At line 3167 in file MKL46Z4.s
   Uses
      At line 3202 in file MKL46Z4.s
Comment: PORTC_PCR23_OFFSET used once
PORTC_PCR24 4004B060

Symbol: PORTC_PCR24
   Definitions
      At line 3203 in file MKL46Z4.s
   Uses
      None
Comment: PORTC_PCR24 unused
PORTC_PCR24_OFFSET 00000060




ARM Macro Assembler    Page 303 Alphabetic symbol ordering
Absolute symbols

Symbol: PORTC_PCR24_OFFSET
   Definitions
      At line 3168 in file MKL46Z4.s
   Uses
      At line 3203 in file MKL46Z4.s
Comment: PORTC_PCR24_OFFSET used once
PORTC_PCR25 4004B064

Symbol: PORTC_PCR25
   Definitions
      At line 3204 in file MKL46Z4.s
   Uses
      None
Comment: PORTC_PCR25 unused
PORTC_PCR25_OFFSET 00000064

Symbol: PORTC_PCR25_OFFSET
   Definitions
      At line 3169 in file MKL46Z4.s
   Uses
      At line 3204 in file MKL46Z4.s
Comment: PORTC_PCR25_OFFSET used once
PORTC_PCR26 4004B068

Symbol: PORTC_PCR26
   Definitions
      At line 3205 in file MKL46Z4.s
   Uses
      None
Comment: PORTC_PCR26 unused
PORTC_PCR26_OFFSET 00000068

Symbol: PORTC_PCR26_OFFSET
   Definitions
      At line 3170 in file MKL46Z4.s
   Uses
      At line 3205 in file MKL46Z4.s
Comment: PORTC_PCR26_OFFSET used once
PORTC_PCR27 4004B06C

Symbol: PORTC_PCR27
   Definitions
      At line 3206 in file MKL46Z4.s
   Uses
      None
Comment: PORTC_PCR27 unused
PORTC_PCR27_OFFSET 0000006C

Symbol: PORTC_PCR27_OFFSET
   Definitions
      At line 3171 in file MKL46Z4.s
   Uses
      At line 3206 in file MKL46Z4.s
Comment: PORTC_PCR27_OFFSET used once
PORTC_PCR28 4004B070

Symbol: PORTC_PCR28
   Definitions
      At line 3207 in file MKL46Z4.s



ARM Macro Assembler    Page 304 Alphabetic symbol ordering
Absolute symbols

   Uses
      None
Comment: PORTC_PCR28 unused
PORTC_PCR28_OFFSET 00000070

Symbol: PORTC_PCR28_OFFSET
   Definitions
      At line 3172 in file MKL46Z4.s
   Uses
      At line 3207 in file MKL46Z4.s
Comment: PORTC_PCR28_OFFSET used once
PORTC_PCR29 4004B074

Symbol: PORTC_PCR29
   Definitions
      At line 3208 in file MKL46Z4.s
   Uses
      None
Comment: PORTC_PCR29 unused
PORTC_PCR29_OFFSET 00000074

Symbol: PORTC_PCR29_OFFSET
   Definitions
      At line 3173 in file MKL46Z4.s
   Uses
      At line 3208 in file MKL46Z4.s
Comment: PORTC_PCR29_OFFSET used once
PORTC_PCR2_OFFSET 00000008

Symbol: PORTC_PCR2_OFFSET
   Definitions
      At line 3146 in file MKL46Z4.s
   Uses
      At line 3181 in file MKL46Z4.s
Comment: PORTC_PCR2_OFFSET used once
PORTC_PCR3 4004B00C

Symbol: PORTC_PCR3
   Definitions
      At line 3182 in file MKL46Z4.s
   Uses
      None
Comment: PORTC_PCR3 unused
PORTC_PCR30 4004B078

Symbol: PORTC_PCR30
   Definitions
      At line 3209 in file MKL46Z4.s
   Uses
      None
Comment: PORTC_PCR30 unused
PORTC_PCR30_OFFSET 00000078

Symbol: PORTC_PCR30_OFFSET
   Definitions
      At line 3174 in file MKL46Z4.s
   Uses
      At line 3209 in file MKL46Z4.s
Comment: PORTC_PCR30_OFFSET used once



ARM Macro Assembler    Page 305 Alphabetic symbol ordering
Absolute symbols

PORTC_PCR31 4004B07C

Symbol: PORTC_PCR31
   Definitions
      At line 3210 in file MKL46Z4.s
   Uses
      None
Comment: PORTC_PCR31 unused
PORTC_PCR31_OFFSET 0000007C

Symbol: PORTC_PCR31_OFFSET
   Definitions
      At line 3175 in file MKL46Z4.s
   Uses
      At line 3210 in file MKL46Z4.s
Comment: PORTC_PCR31_OFFSET used once
PORTC_PCR3_OFFSET 0000000C

Symbol: PORTC_PCR3_OFFSET
   Definitions
      At line 3147 in file MKL46Z4.s
   Uses
      At line 3182 in file MKL46Z4.s
Comment: PORTC_PCR3_OFFSET used once
PORTC_PCR4 4004B010

Symbol: PORTC_PCR4
   Definitions
      At line 3183 in file MKL46Z4.s
   Uses
      None
Comment: PORTC_PCR4 unused
PORTC_PCR4_OFFSET 00000010

Symbol: PORTC_PCR4_OFFSET
   Definitions
      At line 3148 in file MKL46Z4.s
   Uses
      At line 3183 in file MKL46Z4.s
Comment: PORTC_PCR4_OFFSET used once
PORTC_PCR5 4004B014

Symbol: PORTC_PCR5
   Definitions
      At line 3184 in file MKL46Z4.s
   Uses
      None
Comment: PORTC_PCR5 unused
PORTC_PCR5_OFFSET 00000014

Symbol: PORTC_PCR5_OFFSET
   Definitions
      At line 3149 in file MKL46Z4.s
   Uses
      At line 3184 in file MKL46Z4.s
Comment: PORTC_PCR5_OFFSET used once
PORTC_PCR6 4004B018

Symbol: PORTC_PCR6



ARM Macro Assembler    Page 306 Alphabetic symbol ordering
Absolute symbols

   Definitions
      At line 3185 in file MKL46Z4.s
   Uses
      None
Comment: PORTC_PCR6 unused
PORTC_PCR6_OFFSET 00000018

Symbol: PORTC_PCR6_OFFSET
   Definitions
      At line 3150 in file MKL46Z4.s
   Uses
      At line 3185 in file MKL46Z4.s
Comment: PORTC_PCR6_OFFSET used once
PORTC_PCR7 4004B01C

Symbol: PORTC_PCR7
   Definitions
      At line 3186 in file MKL46Z4.s
   Uses
      None
Comment: PORTC_PCR7 unused
PORTC_PCR7_OFFSET 0000001C

Symbol: PORTC_PCR7_OFFSET
   Definitions
      At line 3151 in file MKL46Z4.s
   Uses
      At line 3186 in file MKL46Z4.s
Comment: PORTC_PCR7_OFFSET used once
PORTC_PCR8 4004B020

Symbol: PORTC_PCR8
   Definitions
      At line 3187 in file MKL46Z4.s
   Uses
      None
Comment: PORTC_PCR8 unused
PORTC_PCR8_OFFSET 00000020

Symbol: PORTC_PCR8_OFFSET
   Definitions
      At line 3152 in file MKL46Z4.s
   Uses
      At line 3187 in file MKL46Z4.s
Comment: PORTC_PCR8_OFFSET used once
PORTC_PCR9 4004B024

Symbol: PORTC_PCR9
   Definitions
      At line 3188 in file MKL46Z4.s
   Uses
      None
Comment: PORTC_PCR9 unused
PORTC_PCR9_OFFSET 00000024

Symbol: PORTC_PCR9_OFFSET
   Definitions
      At line 3153 in file MKL46Z4.s
   Uses



ARM Macro Assembler    Page 307 Alphabetic symbol ordering
Absolute symbols

      At line 3188 in file MKL46Z4.s
Comment: PORTC_PCR9_OFFSET used once
PORTC_PORTD_IPR E000E41C

Symbol: PORTC_PORTD_IPR
   Definitions
      At line 2671 in file MKL46Z4.s
   Uses
      None
Comment: PORTC_PORTD_IPR unused
PORTC_PORTD_IRQ 0000001F

Symbol: PORTC_PORTD_IRQ
   Definitions
      At line 2741 in file MKL46Z4.s
   Uses
      At line 2775 in file MKL46Z4.s
Comment: PORTC_PORTD_IRQ used once
PORTC_PORTD_IRQ_MASK 80000000

Symbol: PORTC_PORTD_IRQ_MASK
   Definitions
      At line 2775 in file MKL46Z4.s
   Uses
      None
Comment: PORTC_PORTD_IRQ_MASK unused
PORTC_PORTD_IRQn 0000001F

Symbol: PORTC_PORTD_IRQn
   Definitions
      At line 154 in file MKL46Z4.s
   Uses
      None
Comment: PORTC_PORTD_IRQn unused
PORTC_PORTD_PRI_POS 0000001E

Symbol: PORTC_PORTD_PRI_POS
   Definitions
      At line 2707 in file MKL46Z4.s
   Uses
      None
Comment: PORTC_PORTD_PRI_POS unused
PORTD_BASE 4004C000

Symbol: PORTD_BASE
   Definitions
      At line 3216 in file MKL46Z4.s
   Uses
      At line 3252 in file MKL46Z4.s
      At line 3253 in file MKL46Z4.s
      At line 3254 in file MKL46Z4.s
      At line 3255 in file MKL46Z4.s
      At line 3256 in file MKL46Z4.s
      At line 3257 in file MKL46Z4.s
      At line 3258 in file MKL46Z4.s
      At line 3259 in file MKL46Z4.s
      At line 3260 in file MKL46Z4.s
      At line 3261 in file MKL46Z4.s
      At line 3262 in file MKL46Z4.s



ARM Macro Assembler    Page 308 Alphabetic symbol ordering
Absolute symbols

      At line 3263 in file MKL46Z4.s
      At line 3264 in file MKL46Z4.s
      At line 3265 in file MKL46Z4.s
      At line 3266 in file MKL46Z4.s
      At line 3267 in file MKL46Z4.s
      At line 3268 in file MKL46Z4.s
      At line 3269 in file MKL46Z4.s
      At line 3270 in file MKL46Z4.s
      At line 3271 in file MKL46Z4.s
      At line 3272 in file MKL46Z4.s
      At line 3273 in file MKL46Z4.s
      At line 3274 in file MKL46Z4.s
      At line 3275 in file MKL46Z4.s
      At line 3276 in file MKL46Z4.s
      At line 3277 in file MKL46Z4.s
      At line 3278 in file MKL46Z4.s
      At line 3279 in file MKL46Z4.s
      At line 3280 in file MKL46Z4.s
      At line 3281 in file MKL46Z4.s
      At line 3282 in file MKL46Z4.s
      At line 3283 in file MKL46Z4.s
      At line 3284 in file MKL46Z4.s
      At line 3285 in file MKL46Z4.s
      At line 3286 in file MKL46Z4.s

PORTD_GPCHR 4004C084

Symbol: PORTD_GPCHR
   Definitions
      At line 3285 in file MKL46Z4.s
   Uses
      None
Comment: PORTD_GPCHR unused
PORTD_GPCHR_OFFSET 00000084

Symbol: PORTD_GPCHR_OFFSET
   Definitions
      At line 3250 in file MKL46Z4.s
   Uses
      At line 3285 in file MKL46Z4.s
Comment: PORTD_GPCHR_OFFSET used once
PORTD_GPCLR 4004C080

Symbol: PORTD_GPCLR
   Definitions
      At line 3284 in file MKL46Z4.s
   Uses
      None
Comment: PORTD_GPCLR unused
PORTD_GPCLR_OFFSET 00000080

Symbol: PORTD_GPCLR_OFFSET
   Definitions
      At line 3249 in file MKL46Z4.s
   Uses
      At line 3284 in file MKL46Z4.s
Comment: PORTD_GPCLR_OFFSET used once
PORTD_ISFR 4004C0A0




ARM Macro Assembler    Page 309 Alphabetic symbol ordering
Absolute symbols

Symbol: PORTD_ISFR
   Definitions
      At line 3286 in file MKL46Z4.s
   Uses
      None
Comment: PORTD_ISFR unused
PORTD_ISFR_OFFSET 000000A0

Symbol: PORTD_ISFR_OFFSET
   Definitions
      At line 3251 in file MKL46Z4.s
   Uses
      At line 3286 in file MKL46Z4.s
Comment: PORTD_ISFR_OFFSET used once
PORTD_PCR0 4004C000

Symbol: PORTD_PCR0
   Definitions
      At line 3252 in file MKL46Z4.s
   Uses
      None
Comment: PORTD_PCR0 unused
PORTD_PCR0_OFFSET 00000000

Symbol: PORTD_PCR0_OFFSET
   Definitions
      At line 3217 in file MKL46Z4.s
   Uses
      At line 3252 in file MKL46Z4.s
Comment: PORTD_PCR0_OFFSET used once
PORTD_PCR1 4004C004

Symbol: PORTD_PCR1
   Definitions
      At line 3253 in file MKL46Z4.s
   Uses
      None
Comment: PORTD_PCR1 unused
PORTD_PCR10 4004C028

Symbol: PORTD_PCR10
   Definitions
      At line 3262 in file MKL46Z4.s
   Uses
      None
Comment: PORTD_PCR10 unused
PORTD_PCR10_OFFSET 00000028

Symbol: PORTD_PCR10_OFFSET
   Definitions
      At line 3227 in file MKL46Z4.s
   Uses
      At line 3262 in file MKL46Z4.s
Comment: PORTD_PCR10_OFFSET used once
PORTD_PCR11 4004C02C

Symbol: PORTD_PCR11
   Definitions
      At line 3263 in file MKL46Z4.s



ARM Macro Assembler    Page 310 Alphabetic symbol ordering
Absolute symbols

   Uses
      None
Comment: PORTD_PCR11 unused
PORTD_PCR11_OFFSET 0000002C

Symbol: PORTD_PCR11_OFFSET
   Definitions
      At line 3228 in file MKL46Z4.s
   Uses
      At line 3263 in file MKL46Z4.s
Comment: PORTD_PCR11_OFFSET used once
PORTD_PCR12 4004C030

Symbol: PORTD_PCR12
   Definitions
      At line 3264 in file MKL46Z4.s
   Uses
      None
Comment: PORTD_PCR12 unused
PORTD_PCR12_OFFSET 00000030

Symbol: PORTD_PCR12_OFFSET
   Definitions
      At line 3229 in file MKL46Z4.s
   Uses
      At line 3264 in file MKL46Z4.s
Comment: PORTD_PCR12_OFFSET used once
PORTD_PCR13 4004C034

Symbol: PORTD_PCR13
   Definitions
      At line 3265 in file MKL46Z4.s
   Uses
      None
Comment: PORTD_PCR13 unused
PORTD_PCR13_OFFSET 00000034

Symbol: PORTD_PCR13_OFFSET
   Definitions
      At line 3230 in file MKL46Z4.s
   Uses
      At line 3265 in file MKL46Z4.s
Comment: PORTD_PCR13_OFFSET used once
PORTD_PCR14 4004C038

Symbol: PORTD_PCR14
   Definitions
      At line 3266 in file MKL46Z4.s
   Uses
      None
Comment: PORTD_PCR14 unused
PORTD_PCR14_OFFSET 00000038

Symbol: PORTD_PCR14_OFFSET
   Definitions
      At line 3231 in file MKL46Z4.s
   Uses
      At line 3266 in file MKL46Z4.s
Comment: PORTD_PCR14_OFFSET used once



ARM Macro Assembler    Page 311 Alphabetic symbol ordering
Absolute symbols

PORTD_PCR15 4004C03C

Symbol: PORTD_PCR15
   Definitions
      At line 3267 in file MKL46Z4.s
   Uses
      None
Comment: PORTD_PCR15 unused
PORTD_PCR15_OFFSET 0000003C

Symbol: PORTD_PCR15_OFFSET
   Definitions
      At line 3232 in file MKL46Z4.s
   Uses
      At line 3267 in file MKL46Z4.s
Comment: PORTD_PCR15_OFFSET used once
PORTD_PCR16 4004C040

Symbol: PORTD_PCR16
   Definitions
      At line 3268 in file MKL46Z4.s
   Uses
      None
Comment: PORTD_PCR16 unused
PORTD_PCR16_OFFSET 00000040

Symbol: PORTD_PCR16_OFFSET
   Definitions
      At line 3233 in file MKL46Z4.s
   Uses
      At line 3268 in file MKL46Z4.s
Comment: PORTD_PCR16_OFFSET used once
PORTD_PCR17 4004C044

Symbol: PORTD_PCR17
   Definitions
      At line 3269 in file MKL46Z4.s
   Uses
      None
Comment: PORTD_PCR17 unused
PORTD_PCR17_OFFSET 00000044

Symbol: PORTD_PCR17_OFFSET
   Definitions
      At line 3234 in file MKL46Z4.s
   Uses
      At line 3269 in file MKL46Z4.s
Comment: PORTD_PCR17_OFFSET used once
PORTD_PCR18 4004C048

Symbol: PORTD_PCR18
   Definitions
      At line 3270 in file MKL46Z4.s
   Uses
      None
Comment: PORTD_PCR18 unused
PORTD_PCR18_OFFSET 00000048

Symbol: PORTD_PCR18_OFFSET



ARM Macro Assembler    Page 312 Alphabetic symbol ordering
Absolute symbols

   Definitions
      At line 3235 in file MKL46Z4.s
   Uses
      At line 3270 in file MKL46Z4.s
Comment: PORTD_PCR18_OFFSET used once
PORTD_PCR19 4004C04C

Symbol: PORTD_PCR19
   Definitions
      At line 3271 in file MKL46Z4.s
   Uses
      None
Comment: PORTD_PCR19 unused
PORTD_PCR19_OFFSET 0000004C

Symbol: PORTD_PCR19_OFFSET
   Definitions
      At line 3236 in file MKL46Z4.s
   Uses
      At line 3271 in file MKL46Z4.s
Comment: PORTD_PCR19_OFFSET used once
PORTD_PCR1_OFFSET 00000004

Symbol: PORTD_PCR1_OFFSET
   Definitions
      At line 3218 in file MKL46Z4.s
   Uses
      At line 3253 in file MKL46Z4.s
Comment: PORTD_PCR1_OFFSET used once
PORTD_PCR2 4004C008

Symbol: PORTD_PCR2
   Definitions
      At line 3254 in file MKL46Z4.s
   Uses
      None
Comment: PORTD_PCR2 unused
PORTD_PCR20 4004C050

Symbol: PORTD_PCR20
   Definitions
      At line 3272 in file MKL46Z4.s
   Uses
      None
Comment: PORTD_PCR20 unused
PORTD_PCR20_OFFSET 00000050

Symbol: PORTD_PCR20_OFFSET
   Definitions
      At line 3237 in file MKL46Z4.s
   Uses
      At line 3272 in file MKL46Z4.s
Comment: PORTD_PCR20_OFFSET used once
PORTD_PCR21 4004C054

Symbol: PORTD_PCR21
   Definitions
      At line 3273 in file MKL46Z4.s
   Uses



ARM Macro Assembler    Page 313 Alphabetic symbol ordering
Absolute symbols

      None
Comment: PORTD_PCR21 unused
PORTD_PCR21_OFFSET 00000054

Symbol: PORTD_PCR21_OFFSET
   Definitions
      At line 3238 in file MKL46Z4.s
   Uses
      At line 3273 in file MKL46Z4.s
Comment: PORTD_PCR21_OFFSET used once
PORTD_PCR22 4004C058

Symbol: PORTD_PCR22
   Definitions
      At line 3274 in file MKL46Z4.s
   Uses
      None
Comment: PORTD_PCR22 unused
PORTD_PCR22_OFFSET 00000058

Symbol: PORTD_PCR22_OFFSET
   Definitions
      At line 3239 in file MKL46Z4.s
   Uses
      At line 3274 in file MKL46Z4.s
Comment: PORTD_PCR22_OFFSET used once
PORTD_PCR23 4004C05C

Symbol: PORTD_PCR23
   Definitions
      At line 3275 in file MKL46Z4.s
   Uses
      None
Comment: PORTD_PCR23 unused
PORTD_PCR23_OFFSET 0000005C

Symbol: PORTD_PCR23_OFFSET
   Definitions
      At line 3240 in file MKL46Z4.s
   Uses
      At line 3275 in file MKL46Z4.s
Comment: PORTD_PCR23_OFFSET used once
PORTD_PCR24 4004C060

Symbol: PORTD_PCR24
   Definitions
      At line 3276 in file MKL46Z4.s
   Uses
      None
Comment: PORTD_PCR24 unused
PORTD_PCR24_OFFSET 00000060

Symbol: PORTD_PCR24_OFFSET
   Definitions
      At line 3241 in file MKL46Z4.s
   Uses
      At line 3276 in file MKL46Z4.s
Comment: PORTD_PCR24_OFFSET used once
PORTD_PCR25 4004C064



ARM Macro Assembler    Page 314 Alphabetic symbol ordering
Absolute symbols


Symbol: PORTD_PCR25
   Definitions
      At line 3277 in file MKL46Z4.s
   Uses
      None
Comment: PORTD_PCR25 unused
PORTD_PCR25_OFFSET 00000064

Symbol: PORTD_PCR25_OFFSET
   Definitions
      At line 3242 in file MKL46Z4.s
   Uses
      At line 3277 in file MKL46Z4.s
Comment: PORTD_PCR25_OFFSET used once
PORTD_PCR26 4004C068

Symbol: PORTD_PCR26
   Definitions
      At line 3278 in file MKL46Z4.s
   Uses
      None
Comment: PORTD_PCR26 unused
PORTD_PCR26_OFFSET 00000068

Symbol: PORTD_PCR26_OFFSET
   Definitions
      At line 3243 in file MKL46Z4.s
   Uses
      At line 3278 in file MKL46Z4.s
Comment: PORTD_PCR26_OFFSET used once
PORTD_PCR27 4004C06C

Symbol: PORTD_PCR27
   Definitions
      At line 3279 in file MKL46Z4.s
   Uses
      None
Comment: PORTD_PCR27 unused
PORTD_PCR27_OFFSET 0000006C

Symbol: PORTD_PCR27_OFFSET
   Definitions
      At line 3244 in file MKL46Z4.s
   Uses
      At line 3279 in file MKL46Z4.s
Comment: PORTD_PCR27_OFFSET used once
PORTD_PCR28 4004C070

Symbol: PORTD_PCR28
   Definitions
      At line 3280 in file MKL46Z4.s
   Uses
      None
Comment: PORTD_PCR28 unused
PORTD_PCR28_OFFSET 00000070

Symbol: PORTD_PCR28_OFFSET
   Definitions



ARM Macro Assembler    Page 315 Alphabetic symbol ordering
Absolute symbols

      At line 3245 in file MKL46Z4.s
   Uses
      At line 3280 in file MKL46Z4.s
Comment: PORTD_PCR28_OFFSET used once
PORTD_PCR29 4004C074

Symbol: PORTD_PCR29
   Definitions
      At line 3281 in file MKL46Z4.s
   Uses
      None
Comment: PORTD_PCR29 unused
PORTD_PCR29_OFFSET 00000074

Symbol: PORTD_PCR29_OFFSET
   Definitions
      At line 3246 in file MKL46Z4.s
   Uses
      At line 3281 in file MKL46Z4.s
Comment: PORTD_PCR29_OFFSET used once
PORTD_PCR2_OFFSET 00000008

Symbol: PORTD_PCR2_OFFSET
   Definitions
      At line 3219 in file MKL46Z4.s
   Uses
      At line 3254 in file MKL46Z4.s
Comment: PORTD_PCR2_OFFSET used once
PORTD_PCR3 4004C00C

Symbol: PORTD_PCR3
   Definitions
      At line 3255 in file MKL46Z4.s
   Uses
      None
Comment: PORTD_PCR3 unused
PORTD_PCR30 4004C078

Symbol: PORTD_PCR30
   Definitions
      At line 3282 in file MKL46Z4.s
   Uses
      None
Comment: PORTD_PCR30 unused
PORTD_PCR30_OFFSET 00000078

Symbol: PORTD_PCR30_OFFSET
   Definitions
      At line 3247 in file MKL46Z4.s
   Uses
      At line 3282 in file MKL46Z4.s
Comment: PORTD_PCR30_OFFSET used once
PORTD_PCR31 4004C07C

Symbol: PORTD_PCR31
   Definitions
      At line 3283 in file MKL46Z4.s
   Uses
      None



ARM Macro Assembler    Page 316 Alphabetic symbol ordering
Absolute symbols

Comment: PORTD_PCR31 unused
PORTD_PCR31_OFFSET 0000007C

Symbol: PORTD_PCR31_OFFSET
   Definitions
      At line 3248 in file MKL46Z4.s
   Uses
      At line 3283 in file MKL46Z4.s
Comment: PORTD_PCR31_OFFSET used once
PORTD_PCR3_OFFSET 0000000C

Symbol: PORTD_PCR3_OFFSET
   Definitions
      At line 3220 in file MKL46Z4.s
   Uses
      At line 3255 in file MKL46Z4.s
Comment: PORTD_PCR3_OFFSET used once
PORTD_PCR4 4004C010

Symbol: PORTD_PCR4
   Definitions
      At line 3256 in file MKL46Z4.s
   Uses
      None
Comment: PORTD_PCR4 unused
PORTD_PCR4_OFFSET 00000010

Symbol: PORTD_PCR4_OFFSET
   Definitions
      At line 3221 in file MKL46Z4.s
   Uses
      At line 3256 in file MKL46Z4.s
Comment: PORTD_PCR4_OFFSET used once
PORTD_PCR5 4004C014

Symbol: PORTD_PCR5
   Definitions
      At line 3257 in file MKL46Z4.s
   Uses
      None
Comment: PORTD_PCR5 unused
PORTD_PCR5_OFFSET 00000014

Symbol: PORTD_PCR5_OFFSET
   Definitions
      At line 3222 in file MKL46Z4.s
   Uses
      At line 3257 in file MKL46Z4.s
Comment: PORTD_PCR5_OFFSET used once
PORTD_PCR6 4004C018

Symbol: PORTD_PCR6
   Definitions
      At line 3258 in file MKL46Z4.s
   Uses
      None
Comment: PORTD_PCR6 unused
PORTD_PCR6_OFFSET 00000018




ARM Macro Assembler    Page 317 Alphabetic symbol ordering
Absolute symbols

Symbol: PORTD_PCR6_OFFSET
   Definitions
      At line 3223 in file MKL46Z4.s
   Uses
      At line 3258 in file MKL46Z4.s
Comment: PORTD_PCR6_OFFSET used once
PORTD_PCR7 4004C01C

Symbol: PORTD_PCR7
   Definitions
      At line 3259 in file MKL46Z4.s
   Uses
      None
Comment: PORTD_PCR7 unused
PORTD_PCR7_OFFSET 0000001C

Symbol: PORTD_PCR7_OFFSET
   Definitions
      At line 3224 in file MKL46Z4.s
   Uses
      At line 3259 in file MKL46Z4.s
Comment: PORTD_PCR7_OFFSET used once
PORTD_PCR8 4004C020

Symbol: PORTD_PCR8
   Definitions
      At line 3260 in file MKL46Z4.s
   Uses
      None
Comment: PORTD_PCR8 unused
PORTD_PCR8_OFFSET 00000020

Symbol: PORTD_PCR8_OFFSET
   Definitions
      At line 3225 in file MKL46Z4.s
   Uses
      At line 3260 in file MKL46Z4.s
Comment: PORTD_PCR8_OFFSET used once
PORTD_PCR9 4004C024

Symbol: PORTD_PCR9
   Definitions
      At line 3261 in file MKL46Z4.s
   Uses
      None
Comment: PORTD_PCR9 unused
PORTD_PCR9_OFFSET 00000024

Symbol: PORTD_PCR9_OFFSET
   Definitions
      At line 3226 in file MKL46Z4.s
   Uses
      At line 3261 in file MKL46Z4.s
Comment: PORTD_PCR9_OFFSET used once
PORTD_Vector 0000002F

Symbol: PORTD_Vector
   Definitions
      At line 2825 in file MKL46Z4.s



ARM Macro Assembler    Page 318 Alphabetic symbol ordering
Absolute symbols

   Uses
      None
Comment: PORTD_Vector unused
PORTE_BASE 4004D000

Symbol: PORTE_BASE
   Definitions
      At line 3289 in file MKL46Z4.s
   Uses
      At line 3325 in file MKL46Z4.s
      At line 3326 in file MKL46Z4.s
      At line 3327 in file MKL46Z4.s
      At line 3328 in file MKL46Z4.s
      At line 3329 in file MKL46Z4.s
      At line 3330 in file MKL46Z4.s
      At line 3331 in file MKL46Z4.s
      At line 3332 in file MKL46Z4.s
      At line 3333 in file MKL46Z4.s
      At line 3334 in file MKL46Z4.s
      At line 3335 in file MKL46Z4.s
      At line 3336 in file MKL46Z4.s
      At line 3337 in file MKL46Z4.s
      At line 3338 in file MKL46Z4.s
      At line 3339 in file MKL46Z4.s
      At line 3340 in file MKL46Z4.s
      At line 3341 in file MKL46Z4.s
      At line 3342 in file MKL46Z4.s
      At line 3343 in file MKL46Z4.s
      At line 3344 in file MKL46Z4.s
      At line 3345 in file MKL46Z4.s
      At line 3346 in file MKL46Z4.s
      At line 3347 in file MKL46Z4.s
      At line 3348 in file MKL46Z4.s
      At line 3349 in file MKL46Z4.s
      At line 3350 in file MKL46Z4.s
      At line 3351 in file MKL46Z4.s
      At line 3352 in file MKL46Z4.s
      At line 3353 in file MKL46Z4.s
      At line 3354 in file MKL46Z4.s
      At line 3355 in file MKL46Z4.s
      At line 3356 in file MKL46Z4.s
      At line 3357 in file MKL46Z4.s
      At line 3358 in file MKL46Z4.s
      At line 3359 in file MKL46Z4.s

PORTE_GPCHR 4004D084

Symbol: PORTE_GPCHR
   Definitions
      At line 3358 in file MKL46Z4.s
   Uses
      None
Comment: PORTE_GPCHR unused
PORTE_GPCHR_OFFSET 00000084

Symbol: PORTE_GPCHR_OFFSET
   Definitions
      At line 3323 in file MKL46Z4.s
   Uses



ARM Macro Assembler    Page 319 Alphabetic symbol ordering
Absolute symbols

      At line 3358 in file MKL46Z4.s
Comment: PORTE_GPCHR_OFFSET used once
PORTE_GPCLR 4004D080

Symbol: PORTE_GPCLR
   Definitions
      At line 3357 in file MKL46Z4.s
   Uses
      None
Comment: PORTE_GPCLR unused
PORTE_GPCLR_OFFSET 00000080

Symbol: PORTE_GPCLR_OFFSET
   Definitions
      At line 3322 in file MKL46Z4.s
   Uses
      At line 3357 in file MKL46Z4.s
Comment: PORTE_GPCLR_OFFSET used once
PORTE_ISFR 4004D0A0

Symbol: PORTE_ISFR
   Definitions
      At line 3359 in file MKL46Z4.s
   Uses
      None
Comment: PORTE_ISFR unused
PORTE_ISFR_OFFSET 000000A0

Symbol: PORTE_ISFR_OFFSET
   Definitions
      At line 3324 in file MKL46Z4.s
   Uses
      At line 3359 in file MKL46Z4.s
Comment: PORTE_ISFR_OFFSET used once
PORTE_PCR0 4004D000

Symbol: PORTE_PCR0
   Definitions
      At line 3325 in file MKL46Z4.s
   Uses
      None
Comment: PORTE_PCR0 unused
PORTE_PCR0_OFFSET 00000000

Symbol: PORTE_PCR0_OFFSET
   Definitions
      At line 3290 in file MKL46Z4.s
   Uses
      At line 3325 in file MKL46Z4.s
Comment: PORTE_PCR0_OFFSET used once
PORTE_PCR1 4004D004

Symbol: PORTE_PCR1
   Definitions
      At line 3326 in file MKL46Z4.s
   Uses
      None
Comment: PORTE_PCR1 unused
PORTE_PCR10 4004D028



ARM Macro Assembler    Page 320 Alphabetic symbol ordering
Absolute symbols


Symbol: PORTE_PCR10
   Definitions
      At line 3335 in file MKL46Z4.s
   Uses
      None
Comment: PORTE_PCR10 unused
PORTE_PCR10_OFFSET 00000028

Symbol: PORTE_PCR10_OFFSET
   Definitions
      At line 3300 in file MKL46Z4.s
   Uses
      At line 3335 in file MKL46Z4.s
Comment: PORTE_PCR10_OFFSET used once
PORTE_PCR11 4004D02C

Symbol: PORTE_PCR11
   Definitions
      At line 3336 in file MKL46Z4.s
   Uses
      None
Comment: PORTE_PCR11 unused
PORTE_PCR11_OFFSET 0000002C

Symbol: PORTE_PCR11_OFFSET
   Definitions
      At line 3301 in file MKL46Z4.s
   Uses
      At line 3336 in file MKL46Z4.s
Comment: PORTE_PCR11_OFFSET used once
PORTE_PCR12 4004D030

Symbol: PORTE_PCR12
   Definitions
      At line 3337 in file MKL46Z4.s
   Uses
      None
Comment: PORTE_PCR12 unused
PORTE_PCR12_OFFSET 00000030

Symbol: PORTE_PCR12_OFFSET
   Definitions
      At line 3302 in file MKL46Z4.s
   Uses
      At line 3337 in file MKL46Z4.s
Comment: PORTE_PCR12_OFFSET used once
PORTE_PCR13 4004D034

Symbol: PORTE_PCR13
   Definitions
      At line 3338 in file MKL46Z4.s
   Uses
      None
Comment: PORTE_PCR13 unused
PORTE_PCR13_OFFSET 00000034

Symbol: PORTE_PCR13_OFFSET
   Definitions



ARM Macro Assembler    Page 321 Alphabetic symbol ordering
Absolute symbols

      At line 3303 in file MKL46Z4.s
   Uses
      At line 3338 in file MKL46Z4.s
Comment: PORTE_PCR13_OFFSET used once
PORTE_PCR14 4004D038

Symbol: PORTE_PCR14
   Definitions
      At line 3339 in file MKL46Z4.s
   Uses
      None
Comment: PORTE_PCR14 unused
PORTE_PCR14_OFFSET 00000038

Symbol: PORTE_PCR14_OFFSET
   Definitions
      At line 3304 in file MKL46Z4.s
   Uses
      At line 3339 in file MKL46Z4.s
Comment: PORTE_PCR14_OFFSET used once
PORTE_PCR15 4004D03C

Symbol: PORTE_PCR15
   Definitions
      At line 3340 in file MKL46Z4.s
   Uses
      None
Comment: PORTE_PCR15 unused
PORTE_PCR15_OFFSET 0000003C

Symbol: PORTE_PCR15_OFFSET
   Definitions
      At line 3305 in file MKL46Z4.s
   Uses
      At line 3340 in file MKL46Z4.s
Comment: PORTE_PCR15_OFFSET used once
PORTE_PCR16 4004D040

Symbol: PORTE_PCR16
   Definitions
      At line 3341 in file MKL46Z4.s
   Uses
      None
Comment: PORTE_PCR16 unused
PORTE_PCR16_OFFSET 00000040

Symbol: PORTE_PCR16_OFFSET
   Definitions
      At line 3306 in file MKL46Z4.s
   Uses
      At line 3341 in file MKL46Z4.s
Comment: PORTE_PCR16_OFFSET used once
PORTE_PCR17 4004D044

Symbol: PORTE_PCR17
   Definitions
      At line 3342 in file MKL46Z4.s
   Uses
      None



ARM Macro Assembler    Page 322 Alphabetic symbol ordering
Absolute symbols

Comment: PORTE_PCR17 unused
PORTE_PCR17_OFFSET 00000044

Symbol: PORTE_PCR17_OFFSET
   Definitions
      At line 3307 in file MKL46Z4.s
   Uses
      At line 3342 in file MKL46Z4.s
Comment: PORTE_PCR17_OFFSET used once
PORTE_PCR18 4004D048

Symbol: PORTE_PCR18
   Definitions
      At line 3343 in file MKL46Z4.s
   Uses
      None
Comment: PORTE_PCR18 unused
PORTE_PCR18_OFFSET 00000048

Symbol: PORTE_PCR18_OFFSET
   Definitions
      At line 3308 in file MKL46Z4.s
   Uses
      At line 3343 in file MKL46Z4.s
Comment: PORTE_PCR18_OFFSET used once
PORTE_PCR19 4004D04C

Symbol: PORTE_PCR19
   Definitions
      At line 3344 in file MKL46Z4.s
   Uses
      None
Comment: PORTE_PCR19 unused
PORTE_PCR19_OFFSET 0000004C

Symbol: PORTE_PCR19_OFFSET
   Definitions
      At line 3309 in file MKL46Z4.s
   Uses
      At line 3344 in file MKL46Z4.s
Comment: PORTE_PCR19_OFFSET used once
PORTE_PCR1_OFFSET 00000004

Symbol: PORTE_PCR1_OFFSET
   Definitions
      At line 3291 in file MKL46Z4.s
   Uses
      At line 3326 in file MKL46Z4.s
Comment: PORTE_PCR1_OFFSET used once
PORTE_PCR2 4004D008

Symbol: PORTE_PCR2
   Definitions
      At line 3327 in file MKL46Z4.s
   Uses
      None
Comment: PORTE_PCR2 unused
PORTE_PCR20 4004D050




ARM Macro Assembler    Page 323 Alphabetic symbol ordering
Absolute symbols

Symbol: PORTE_PCR20
   Definitions
      At line 3345 in file MKL46Z4.s
   Uses
      None
Comment: PORTE_PCR20 unused
PORTE_PCR20_OFFSET 00000050

Symbol: PORTE_PCR20_OFFSET
   Definitions
      At line 3310 in file MKL46Z4.s
   Uses
      At line 3345 in file MKL46Z4.s
Comment: PORTE_PCR20_OFFSET used once
PORTE_PCR21 4004D054

Symbol: PORTE_PCR21
   Definitions
      At line 3346 in file MKL46Z4.s
   Uses
      None
Comment: PORTE_PCR21 unused
PORTE_PCR21_OFFSET 00000054

Symbol: PORTE_PCR21_OFFSET
   Definitions
      At line 3311 in file MKL46Z4.s
   Uses
      At line 3346 in file MKL46Z4.s
Comment: PORTE_PCR21_OFFSET used once
PORTE_PCR22 4004D058

Symbol: PORTE_PCR22
   Definitions
      At line 3347 in file MKL46Z4.s
   Uses
      None
Comment: PORTE_PCR22 unused
PORTE_PCR22_OFFSET 00000058

Symbol: PORTE_PCR22_OFFSET
   Definitions
      At line 3312 in file MKL46Z4.s
   Uses
      At line 3347 in file MKL46Z4.s
Comment: PORTE_PCR22_OFFSET used once
PORTE_PCR23 4004D05C

Symbol: PORTE_PCR23
   Definitions
      At line 3348 in file MKL46Z4.s
   Uses
      None
Comment: PORTE_PCR23 unused
PORTE_PCR23_OFFSET 0000005C

Symbol: PORTE_PCR23_OFFSET
   Definitions
      At line 3313 in file MKL46Z4.s



ARM Macro Assembler    Page 324 Alphabetic symbol ordering
Absolute symbols

   Uses
      At line 3348 in file MKL46Z4.s
Comment: PORTE_PCR23_OFFSET used once
PORTE_PCR24 4004D060

Symbol: PORTE_PCR24
   Definitions
      At line 3349 in file MKL46Z4.s
   Uses
      None
Comment: PORTE_PCR24 unused
PORTE_PCR24_OFFSET 00000060

Symbol: PORTE_PCR24_OFFSET
   Definitions
      At line 3314 in file MKL46Z4.s
   Uses
      At line 3349 in file MKL46Z4.s
Comment: PORTE_PCR24_OFFSET used once
PORTE_PCR25 4004D064

Symbol: PORTE_PCR25
   Definitions
      At line 3350 in file MKL46Z4.s
   Uses
      None
Comment: PORTE_PCR25 unused
PORTE_PCR25_OFFSET 00000064

Symbol: PORTE_PCR25_OFFSET
   Definitions
      At line 3315 in file MKL46Z4.s
   Uses
      At line 3350 in file MKL46Z4.s
Comment: PORTE_PCR25_OFFSET used once
PORTE_PCR26 4004D068

Symbol: PORTE_PCR26
   Definitions
      At line 3351 in file MKL46Z4.s
   Uses
      None
Comment: PORTE_PCR26 unused
PORTE_PCR26_OFFSET 00000068

Symbol: PORTE_PCR26_OFFSET
   Definitions
      At line 3316 in file MKL46Z4.s
   Uses
      At line 3351 in file MKL46Z4.s
Comment: PORTE_PCR26_OFFSET used once
PORTE_PCR27 4004D06C

Symbol: PORTE_PCR27
   Definitions
      At line 3352 in file MKL46Z4.s
   Uses
      None
Comment: PORTE_PCR27 unused



ARM Macro Assembler    Page 325 Alphabetic symbol ordering
Absolute symbols

PORTE_PCR27_OFFSET 0000006C

Symbol: PORTE_PCR27_OFFSET
   Definitions
      At line 3317 in file MKL46Z4.s
   Uses
      At line 3352 in file MKL46Z4.s
Comment: PORTE_PCR27_OFFSET used once
PORTE_PCR28 4004D070

Symbol: PORTE_PCR28
   Definitions
      At line 3353 in file MKL46Z4.s
   Uses
      None
Comment: PORTE_PCR28 unused
PORTE_PCR28_OFFSET 00000070

Symbol: PORTE_PCR28_OFFSET
   Definitions
      At line 3318 in file MKL46Z4.s
   Uses
      At line 3353 in file MKL46Z4.s
Comment: PORTE_PCR28_OFFSET used once
PORTE_PCR29 4004D074

Symbol: PORTE_PCR29
   Definitions
      At line 3354 in file MKL46Z4.s
   Uses
      None
Comment: PORTE_PCR29 unused
PORTE_PCR29_OFFSET 00000074

Symbol: PORTE_PCR29_OFFSET
   Definitions
      At line 3319 in file MKL46Z4.s
   Uses
      At line 3354 in file MKL46Z4.s
Comment: PORTE_PCR29_OFFSET used once
PORTE_PCR2_OFFSET 00000008

Symbol: PORTE_PCR2_OFFSET
   Definitions
      At line 3292 in file MKL46Z4.s
   Uses
      At line 3327 in file MKL46Z4.s
Comment: PORTE_PCR2_OFFSET used once
PORTE_PCR3 4004D00C

Symbol: PORTE_PCR3
   Definitions
      At line 3328 in file MKL46Z4.s
   Uses
      None
Comment: PORTE_PCR3 unused
PORTE_PCR30 4004D078

Symbol: PORTE_PCR30



ARM Macro Assembler    Page 326 Alphabetic symbol ordering
Absolute symbols

   Definitions
      At line 3355 in file MKL46Z4.s
   Uses
      None
Comment: PORTE_PCR30 unused
PORTE_PCR30_OFFSET 00000078

Symbol: PORTE_PCR30_OFFSET
   Definitions
      At line 3320 in file MKL46Z4.s
   Uses
      At line 3355 in file MKL46Z4.s
Comment: PORTE_PCR30_OFFSET used once
PORTE_PCR31 4004D07C

Symbol: PORTE_PCR31
   Definitions
      At line 3356 in file MKL46Z4.s
   Uses
      None
Comment: PORTE_PCR31 unused
PORTE_PCR31_OFFSET 0000007C

Symbol: PORTE_PCR31_OFFSET
   Definitions
      At line 3321 in file MKL46Z4.s
   Uses
      At line 3356 in file MKL46Z4.s
Comment: PORTE_PCR31_OFFSET used once
PORTE_PCR3_OFFSET 0000000C

Symbol: PORTE_PCR3_OFFSET
   Definitions
      At line 3293 in file MKL46Z4.s
   Uses
      At line 3328 in file MKL46Z4.s
Comment: PORTE_PCR3_OFFSET used once
PORTE_PCR4 4004D010

Symbol: PORTE_PCR4
   Definitions
      At line 3329 in file MKL46Z4.s
   Uses
      None
Comment: PORTE_PCR4 unused
PORTE_PCR4_OFFSET 00000010

Symbol: PORTE_PCR4_OFFSET
   Definitions
      At line 3294 in file MKL46Z4.s
   Uses
      At line 3329 in file MKL46Z4.s
Comment: PORTE_PCR4_OFFSET used once
PORTE_PCR5 4004D014

Symbol: PORTE_PCR5
   Definitions
      At line 3330 in file MKL46Z4.s
   Uses



ARM Macro Assembler    Page 327 Alphabetic symbol ordering
Absolute symbols

      None
Comment: PORTE_PCR5 unused
PORTE_PCR5_OFFSET 00000014

Symbol: PORTE_PCR5_OFFSET
   Definitions
      At line 3295 in file MKL46Z4.s
   Uses
      At line 3330 in file MKL46Z4.s
Comment: PORTE_PCR5_OFFSET used once
PORTE_PCR6 4004D018

Symbol: PORTE_PCR6
   Definitions
      At line 3331 in file MKL46Z4.s
   Uses
      None
Comment: PORTE_PCR6 unused
PORTE_PCR6_OFFSET 00000018

Symbol: PORTE_PCR6_OFFSET
   Definitions
      At line 3296 in file MKL46Z4.s
   Uses
      At line 3331 in file MKL46Z4.s
Comment: PORTE_PCR6_OFFSET used once
PORTE_PCR7 4004D01C

Symbol: PORTE_PCR7
   Definitions
      At line 3332 in file MKL46Z4.s
   Uses
      None
Comment: PORTE_PCR7 unused
PORTE_PCR7_OFFSET 0000001C

Symbol: PORTE_PCR7_OFFSET
   Definitions
      At line 3297 in file MKL46Z4.s
   Uses
      At line 3332 in file MKL46Z4.s
Comment: PORTE_PCR7_OFFSET used once
PORTE_PCR8 4004D020

Symbol: PORTE_PCR8
   Definitions
      At line 3333 in file MKL46Z4.s
   Uses
      None
Comment: PORTE_PCR8 unused
PORTE_PCR8_OFFSET 00000020

Symbol: PORTE_PCR8_OFFSET
   Definitions
      At line 3298 in file MKL46Z4.s
   Uses
      At line 3333 in file MKL46Z4.s
Comment: PORTE_PCR8_OFFSET used once
PORTE_PCR9 4004D024



ARM Macro Assembler    Page 328 Alphabetic symbol ordering
Absolute symbols


Symbol: PORTE_PCR9
   Definitions
      At line 3334 in file MKL46Z4.s
   Uses
      None
Comment: PORTE_PCR9 unused
PORTE_PCR9_OFFSET 00000024

Symbol: PORTE_PCR9_OFFSET
   Definitions
      At line 3299 in file MKL46Z4.s
   Uses
      At line 3334 in file MKL46Z4.s
Comment: PORTE_PCR9_OFFSET used once
PORT_PCR_DSE_MASK 00000040

Symbol: PORT_PCR_DSE_MASK
   Definitions
      At line 2977 in file MKL46Z4.s
   Uses
      None
Comment: PORT_PCR_DSE_MASK unused
PORT_PCR_DSE_SHIFT 00000006

Symbol: PORT_PCR_DSE_SHIFT
   Definitions
      At line 2978 in file MKL46Z4.s
   Uses
      None
Comment: PORT_PCR_DSE_SHIFT unused
PORT_PCR_IRCQ_MASK 000F0000

Symbol: PORT_PCR_IRCQ_MASK
   Definitions
      At line 2973 in file MKL46Z4.s
   Uses
      None
Comment: PORT_PCR_IRCQ_MASK unused
PORT_PCR_IRCQ_SHIFT 00000010

Symbol: PORT_PCR_IRCQ_SHIFT
   Definitions
      At line 2974 in file MKL46Z4.s
   Uses
      None
Comment: PORT_PCR_IRCQ_SHIFT unused
PORT_PCR_ISF_MASK 01000000

Symbol: PORT_PCR_ISF_MASK
   Definitions
      At line 2971 in file MKL46Z4.s
   Uses
      At line 36 in file test.s
      At line 38 in file test.s

PORT_PCR_ISF_SHIFT 00000018

Symbol: PORT_PCR_ISF_SHIFT



ARM Macro Assembler    Page 329 Alphabetic symbol ordering
Absolute symbols

   Definitions
      At line 2972 in file MKL46Z4.s
   Uses
      None
Comment: PORT_PCR_ISF_SHIFT unused
PORT_PCR_MUX_MASK 00000700

Symbol: PORT_PCR_MUX_MASK
   Definitions
      At line 2975 in file MKL46Z4.s
   Uses
      None
Comment: PORT_PCR_MUX_MASK unused
PORT_PCR_MUX_SELECT_0_MASK 00000000

Symbol: PORT_PCR_MUX_SELECT_0_MASK
   Definitions
      At line 2987 in file MKL46Z4.s
   Uses
      None
Comment: PORT_PCR_MUX_SELECT_0_MASK unused
PORT_PCR_MUX_SELECT_1_MASK 00000100

Symbol: PORT_PCR_MUX_SELECT_1_MASK
   Definitions
      At line 2988 in file MKL46Z4.s
   Uses
      None
Comment: PORT_PCR_MUX_SELECT_1_MASK unused
PORT_PCR_MUX_SELECT_2_MASK 00000200

Symbol: PORT_PCR_MUX_SELECT_2_MASK
   Definitions
      At line 2989 in file MKL46Z4.s
   Uses
      At line 36 in file test.s
      At line 38 in file test.s

PORT_PCR_MUX_SELECT_3_MASK 00000300

Symbol: PORT_PCR_MUX_SELECT_3_MASK
   Definitions
      At line 2990 in file MKL46Z4.s
   Uses
      None
Comment: PORT_PCR_MUX_SELECT_3_MASK unused
PORT_PCR_MUX_SELECT_4_MASK 00000400

Symbol: PORT_PCR_MUX_SELECT_4_MASK
   Definitions
      At line 2991 in file MKL46Z4.s
   Uses
      None
Comment: PORT_PCR_MUX_SELECT_4_MASK unused
PORT_PCR_MUX_SELECT_5_MASK 00000500

Symbol: PORT_PCR_MUX_SELECT_5_MASK
   Definitions
      At line 2992 in file MKL46Z4.s



ARM Macro Assembler    Page 330 Alphabetic symbol ordering
Absolute symbols

   Uses
      None
Comment: PORT_PCR_MUX_SELECT_5_MASK unused
PORT_PCR_MUX_SELECT_6_MASK 00000600

Symbol: PORT_PCR_MUX_SELECT_6_MASK
   Definitions
      At line 2993 in file MKL46Z4.s
   Uses
      None
Comment: PORT_PCR_MUX_SELECT_6_MASK unused
PORT_PCR_MUX_SELECT_7_MASK 00000700

Symbol: PORT_PCR_MUX_SELECT_7_MASK
   Definitions
      At line 2994 in file MKL46Z4.s
   Uses
      None
Comment: PORT_PCR_MUX_SELECT_7_MASK unused
PORT_PCR_MUX_SHIFT 00000008

Symbol: PORT_PCR_MUX_SHIFT
   Definitions
      At line 2976 in file MKL46Z4.s
   Uses
      None
Comment: PORT_PCR_MUX_SHIFT unused
PORT_PCR_PE_MASK 00000002

Symbol: PORT_PCR_PE_MASK
   Definitions
      At line 2983 in file MKL46Z4.s
   Uses
      None
Comment: PORT_PCR_PE_MASK unused
PORT_PCR_PE_SHIFT 00000001

Symbol: PORT_PCR_PE_SHIFT
   Definitions
      At line 2984 in file MKL46Z4.s
   Uses
      None
Comment: PORT_PCR_PE_SHIFT unused
PORT_PCR_PFE_MASK 00000010

Symbol: PORT_PCR_PFE_MASK
   Definitions
      At line 2979 in file MKL46Z4.s
   Uses
      None
Comment: PORT_PCR_PFE_MASK unused
PORT_PCR_PFE_SHIFT 00000004

Symbol: PORT_PCR_PFE_SHIFT
   Definitions
      At line 2980 in file MKL46Z4.s
   Uses
      None
Comment: PORT_PCR_PFE_SHIFT unused



ARM Macro Assembler    Page 331 Alphabetic symbol ordering
Absolute symbols

PORT_PCR_PS_MASK 00000001

Symbol: PORT_PCR_PS_MASK
   Definitions
      At line 2985 in file MKL46Z4.s
   Uses
      None
Comment: PORT_PCR_PS_MASK unused
PORT_PCR_PS_SHIFT 00000000

Symbol: PORT_PCR_PS_SHIFT
   Definitions
      At line 2986 in file MKL46Z4.s
   Uses
      None
Comment: PORT_PCR_PS_SHIFT unused
PORT_PCR_SET_PTA1_UART0_RX 01000200

Symbol: PORT_PCR_SET_PTA1_UART0_RX
   Definitions
      At line 36 in file test.s
   Uses
      At line 4061 in file test.s
Comment: PORT_PCR_SET_PTA1_UART0_RX used once
PORT_PCR_SET_PTA2_UART0_TX 01000200

Symbol: PORT_PCR_SET_PTA2_UART0_TX
   Definitions
      At line 38 in file test.s
   Uses
      At line 4066 in file test.s
Comment: PORT_PCR_SET_PTA2_UART0_TX used once
PORT_PCR_SRE_MASK 00000004

Symbol: PORT_PCR_SRE_MASK
   Definitions
      At line 2981 in file MKL46Z4.s
   Uses
      None
Comment: PORT_PCR_SRE_MASK unused
PORT_PCR_SRE_SHIFT 00000002

Symbol: PORT_PCR_SRE_SHIFT
   Definitions
      At line 2982 in file MKL46Z4.s
   Uses
      None
Comment: PORT_PCR_SRE_SHIFT unused
PSR_C_MASK 20000000

Symbol: PSR_C_MASK
   Definitions
      At line 96 in file MKL46Z4.s
   Uses
      None
Comment: PSR_C_MASK unused
PSR_C_SHIFT 0000001D

Symbol: PSR_C_SHIFT



ARM Macro Assembler    Page 332 Alphabetic symbol ordering
Absolute symbols

   Definitions
      At line 97 in file MKL46Z4.s
   Uses
      None
Comment: PSR_C_SHIFT unused
PSR_EXCEPTION_MASK 0000003F

Symbol: PSR_EXCEPTION_MASK
   Definitions
      At line 102 in file MKL46Z4.s
   Uses
      None
Comment: PSR_EXCEPTION_MASK unused
PSR_EXCEPTION_SHIFT 00000000

Symbol: PSR_EXCEPTION_SHIFT
   Definitions
      At line 103 in file MKL46Z4.s
   Uses
      None
Comment: PSR_EXCEPTION_SHIFT unused
PSR_N_MASK 80000000

Symbol: PSR_N_MASK
   Definitions
      At line 92 in file MKL46Z4.s
   Uses
      None
Comment: PSR_N_MASK unused
PSR_N_SHIFT 0000001F

Symbol: PSR_N_SHIFT
   Definitions
      At line 93 in file MKL46Z4.s
   Uses
      None
Comment: PSR_N_SHIFT unused
PSR_T_MASK 01000000

Symbol: PSR_T_MASK
   Definitions
      At line 100 in file MKL46Z4.s
   Uses
      None
Comment: PSR_T_MASK unused
PSR_T_SHIFT 00000018

Symbol: PSR_T_SHIFT
   Definitions
      At line 101 in file MKL46Z4.s
   Uses
      None
Comment: PSR_T_SHIFT unused
PSR_V_MASK 10000000

Symbol: PSR_V_MASK
   Definitions
      At line 98 in file MKL46Z4.s
   Uses



ARM Macro Assembler    Page 333 Alphabetic symbol ordering
Absolute symbols

      None
Comment: PSR_V_MASK unused
PSR_V_SHIFT 0000001C

Symbol: PSR_V_SHIFT
   Definitions
      At line 99 in file MKL46Z4.s
   Uses
      None
Comment: PSR_V_SHIFT unused
PSR_Z_MASK 40000000

Symbol: PSR_Z_MASK
   Definitions
      At line 94 in file MKL46Z4.s
   Uses
      None
Comment: PSR_Z_MASK unused
PSR_Z_SHIFT 0000001E

Symbol: PSR_Z_SHIFT
   Definitions
      At line 95 in file MKL46Z4.s
   Uses
      None
Comment: PSR_Z_SHIFT unused
PendSR_Vector 0000000E

Symbol: PendSR_Vector
   Definitions
      At line 2792 in file MKL46Z4.s
   Uses
      None
Comment: PendSR_Vector unused
PendSV_IRQn FFFFFFFE

Symbol: PendSV_IRQn
   Definitions
      At line 118 in file MKL46Z4.s
   Uses
      None
Comment: PendSV_IRQn unused
RET_ADDR_T_MASK 00000001

Symbol: RET_ADDR_T_MASK
   Definitions
      At line 34 in file MKL46Z4.s
   Uses
      None
Comment: RET_ADDR_T_MASK unused
RTC_IPR E000E414

Symbol: RTC_IPR
   Definitions
      At line 2660 in file MKL46Z4.s
   Uses
      None
Comment: RTC_IPR unused
RTC_IRQ 00000014



ARM Macro Assembler    Page 334 Alphabetic symbol ordering
Absolute symbols


Symbol: RTC_IRQ
   Definitions
      At line 2730 in file MKL46Z4.s
   Uses
      At line 2764 in file MKL46Z4.s
Comment: RTC_IRQ used once
RTC_IRQ_MASK 00100000

Symbol: RTC_IRQ_MASK
   Definitions
      At line 2764 in file MKL46Z4.s
   Uses
      None
Comment: RTC_IRQ_MASK unused
RTC_IRQn 00000014

Symbol: RTC_IRQn
   Definitions
      At line 143 in file MKL46Z4.s
   Uses
      None
Comment: RTC_IRQn unused
RTC_PRI_POS 00000006

Symbol: RTC_PRI_POS
   Definitions
      At line 2696 in file MKL46Z4.s
   Uses
      None
Comment: RTC_PRI_POS unused
RTC_Seconds_IPR E000E414

Symbol: RTC_Seconds_IPR
   Definitions
      At line 2661 in file MKL46Z4.s
   Uses
      None
Comment: RTC_Seconds_IPR unused
RTC_Seconds_IRQ 00000015

Symbol: RTC_Seconds_IRQ
   Definitions
      At line 2731 in file MKL46Z4.s
   Uses
      At line 2765 in file MKL46Z4.s
Comment: RTC_Seconds_IRQ used once
RTC_Seconds_IRQ_MASK 00200000

Symbol: RTC_Seconds_IRQ_MASK
   Definitions
      At line 2765 in file MKL46Z4.s
   Uses
      None
Comment: RTC_Seconds_IRQ_MASK unused
RTC_Seconds_IRQn 00000015

Symbol: RTC_Seconds_IRQn
   Definitions



ARM Macro Assembler    Page 335 Alphabetic symbol ordering
Absolute symbols

      At line 144 in file MKL46Z4.s
   Uses
      None
Comment: RTC_Seconds_IRQn unused
RTC_Seconds_PRI_POS 0000000E

Symbol: RTC_Seconds_PRI_POS
   Definitions
      At line 2697 in file MKL46Z4.s
   Uses
      None
Comment: RTC_Seconds_PRI_POS unused
RTC_Seconds_Vector 00000025

Symbol: RTC_Seconds_Vector
   Definitions
      At line 2815 in file MKL46Z4.s
   Uses
      None
Comment: RTC_Seconds_Vector unused
RTC_Vector 00000024

Symbol: RTC_Vector
   Definitions
      At line 2814 in file MKL46Z4.s
   Uses
      None
Comment: RTC_Vector unused
Reserved04_Vector 00000004

Symbol: Reserved04_Vector
   Definitions
      At line 2782 in file MKL46Z4.s
   Uses
      None
Comment: Reserved04_Vector unused
Reserved05_Vector 00000005

Symbol: Reserved05_Vector
   Definitions
      At line 2783 in file MKL46Z4.s
   Uses
      None
Comment: Reserved05_Vector unused
Reserved06_Vector 00000006

Symbol: Reserved06_Vector
   Definitions
      At line 2784 in file MKL46Z4.s
   Uses
      None
Comment: Reserved06_Vector unused
Reserved07_Vector 00000007

Symbol: Reserved07_Vector
   Definitions
      At line 2785 in file MKL46Z4.s
   Uses
      None



ARM Macro Assembler    Page 336 Alphabetic symbol ordering
Absolute symbols

Comment: Reserved07_Vector unused
Reserved08_Vector 00000008

Symbol: Reserved08_Vector
   Definitions
      At line 2786 in file MKL46Z4.s
   Uses
      None
Comment: Reserved08_Vector unused
Reserved09_Vector 00000009

Symbol: Reserved09_Vector
   Definitions
      At line 2787 in file MKL46Z4.s
   Uses
      None
Comment: Reserved09_Vector unused
Reserved10_Vector 0000000A

Symbol: Reserved10_Vector
   Definitions
      At line 2788 in file MKL46Z4.s
   Uses
      None
Comment: Reserved10_Vector unused
Reserved12_Vector 0000000C

Symbol: Reserved12_Vector
   Definitions
      At line 2790 in file MKL46Z4.s
   Uses
      None
Comment: Reserved12_Vector unused
Reserved13_Vector 0000000D

Symbol: Reserved13_Vector
   Definitions
      At line 2791 in file MKL46Z4.s
   Uses
      None
Comment: Reserved13_Vector unused
Reserved20_IPR E000E404

Symbol: Reserved20_IPR
   Definitions
      At line 2644 in file MKL46Z4.s
   Uses
      None
Comment: Reserved20_IPR unused
Reserved20_IRQ 00000004

Symbol: Reserved20_IRQ
   Definitions
      At line 2714 in file MKL46Z4.s
   Uses
      At line 2748 in file MKL46Z4.s
Comment: Reserved20_IRQ used once
Reserved20_IRQ_MASK 00000010




ARM Macro Assembler    Page 337 Alphabetic symbol ordering
Absolute symbols

Symbol: Reserved20_IRQ_MASK
   Definitions
      At line 2748 in file MKL46Z4.s
   Uses
      None
Comment: Reserved20_IRQ_MASK unused
Reserved20_IRQn 00000004

Symbol: Reserved20_IRQn
   Definitions
      At line 127 in file MKL46Z4.s
   Uses
      None
Comment: Reserved20_IRQn unused
Reserved20_PRI_POS 00000006

Symbol: Reserved20_PRI_POS
   Definitions
      At line 2680 in file MKL46Z4.s
   Uses
      None
Comment: Reserved20_PRI_POS unused
Reserved20_Vector 00000014

Symbol: Reserved20_Vector
   Definitions
      At line 2798 in file MKL46Z4.s
   Uses
      None
Comment: Reserved20_Vector unused
Reset_Vector 00000001

Symbol: Reset_Vector
   Definitions
      At line 2779 in file MKL46Z4.s
   Uses
      None
Comment: Reset_Vector unused
SIM_BASE 40047000

Symbol: SIM_BASE
   Definitions
      At line 3362 in file MKL46Z4.s
   Uses
      At line 3382 in file MKL46Z4.s
      At line 3383 in file MKL46Z4.s
      At line 3384 in file MKL46Z4.s
      At line 3385 in file MKL46Z4.s
      At line 3386 in file MKL46Z4.s
      At line 3387 in file MKL46Z4.s
      At line 3388 in file MKL46Z4.s
      At line 3389 in file MKL46Z4.s
      At line 3390 in file MKL46Z4.s
      At line 3391 in file MKL46Z4.s
      At line 3392 in file MKL46Z4.s
      At line 3393 in file MKL46Z4.s
      At line 3394 in file MKL46Z4.s
      At line 3395 in file MKL46Z4.s
      At line 3396 in file MKL46Z4.s



ARM Macro Assembler    Page 338 Alphabetic symbol ordering
Absolute symbols

      At line 3397 in file MKL46Z4.s
      At line 3398 in file MKL46Z4.s
      At line 3399 in file MKL46Z4.s
      At line 3400 in file MKL46Z4.s

SIM_CLKDIV1 40048044

Symbol: SIM_CLKDIV1
   Definitions
      At line 3382 in file MKL46Z4.s
   Uses
      None
Comment: SIM_CLKDIV1 unused
SIM_CLKDIV1_OFFSET 00001044

Symbol: SIM_CLKDIV1_OFFSET
   Definitions
      At line 3374 in file MKL46Z4.s
   Uses
      At line 3382 in file MKL46Z4.s
Comment: SIM_CLKDIV1_OFFSET used once
SIM_CLKDIV1_OUTDIV1_MASK F0000000

Symbol: SIM_CLKDIV1_OUTDIV1_MASK
   Definitions
      At line 3413 in file MKL46Z4.s
   Uses
      None
Comment: SIM_CLKDIV1_OUTDIV1_MASK unused
SIM_CLKDIV1_OUTDIV1_SHIFT 0000001C

Symbol: SIM_CLKDIV1_OUTDIV1_SHIFT
   Definitions
      At line 3414 in file MKL46Z4.s
   Uses
      None
Comment: SIM_CLKDIV1_OUTDIV1_SHIFT unused
SIM_CLKDIV1_OUTDIV4_MASK 00070000

Symbol: SIM_CLKDIV1_OUTDIV4_MASK
   Definitions
      At line 3415 in file MKL46Z4.s
   Uses
      None
Comment: SIM_CLKDIV1_OUTDIV4_MASK unused
SIM_CLKDIV1_OUTDIV4_SHIFT 00000010

Symbol: SIM_CLKDIV1_OUTDIV4_SHIFT
   Definitions
      At line 3416 in file MKL46Z4.s
   Uses
      None
Comment: SIM_CLKDIV1_OUTDIV4_SHIFT unused
SIM_COPC 40048100

Symbol: SIM_COPC
   Definitions
      At line 3383 in file MKL46Z4.s
   Uses



ARM Macro Assembler    Page 339 Alphabetic symbol ordering
Absolute symbols

      None
Comment: SIM_COPC unused
SIM_COPC_OFFSET 00001100

Symbol: SIM_COPC_OFFSET
   Definitions
      At line 3380 in file MKL46Z4.s
   Uses
      At line 3383 in file MKL46Z4.s
Comment: SIM_COPC_OFFSET used once
SIM_FCFG1 4004804C

Symbol: SIM_FCFG1
   Definitions
      At line 3384 in file MKL46Z4.s
   Uses
      None
Comment: SIM_FCFG1 unused
SIM_FCFG1_OFFSET 0000104C

Symbol: SIM_FCFG1_OFFSET
   Definitions
      At line 3375 in file MKL46Z4.s
   Uses
      At line 3384 in file MKL46Z4.s
Comment: SIM_FCFG1_OFFSET used once
SIM_FCFG2 40048050

Symbol: SIM_FCFG2
   Definitions
      At line 3385 in file MKL46Z4.s
   Uses
      None
Comment: SIM_FCFG2 unused
SIM_FCFG2_OFFSET 00001050

Symbol: SIM_FCFG2_OFFSET
   Definitions
      At line 3376 in file MKL46Z4.s
   Uses
      At line 3385 in file MKL46Z4.s
Comment: SIM_FCFG2_OFFSET used once
SIM_SCGC4 40048034

Symbol: SIM_SCGC4
   Definitions
      At line 3386 in file MKL46Z4.s
   Uses
      At line 4046 in file test.s
Comment: SIM_SCGC4 used once
SIM_SCGC4_CMP_MASK 00080000

Symbol: SIM_SCGC4_CMP_MASK
   Definitions
      At line 3458 in file MKL46Z4.s
   Uses
      None
Comment: SIM_SCGC4_CMP_MASK unused
SIM_SCGC4_CMP_SHIFT 00000013



ARM Macro Assembler    Page 340 Alphabetic symbol ordering
Absolute symbols


Symbol: SIM_SCGC4_CMP_SHIFT
   Definitions
      At line 3459 in file MKL46Z4.s
   Uses
      None
Comment: SIM_SCGC4_CMP_SHIFT unused
SIM_SCGC4_I2C0_MASK 00000040

Symbol: SIM_SCGC4_I2C0_MASK
   Definitions
      At line 3470 in file MKL46Z4.s
   Uses
      None
Comment: SIM_SCGC4_I2C0_MASK unused
SIM_SCGC4_I2C0_SHIFT 00000006

Symbol: SIM_SCGC4_I2C0_SHIFT
   Definitions
      At line 3471 in file MKL46Z4.s
   Uses
      None
Comment: SIM_SCGC4_I2C0_SHIFT unused
SIM_SCGC4_I2C1_MASK 00000080

Symbol: SIM_SCGC4_I2C1_MASK
   Definitions
      At line 3468 in file MKL46Z4.s
   Uses
      None
Comment: SIM_SCGC4_I2C1_MASK unused
SIM_SCGC4_I2C1_SHIFT 00000007

Symbol: SIM_SCGC4_I2C1_SHIFT
   Definitions
      At line 3469 in file MKL46Z4.s
   Uses
      None
Comment: SIM_SCGC4_I2C1_SHIFT unused
SIM_SCGC4_OFFSET 00001034

Symbol: SIM_SCGC4_OFFSET
   Definitions
      At line 3370 in file MKL46Z4.s
   Uses
      At line 3386 in file MKL46Z4.s
Comment: SIM_SCGC4_OFFSET used once
SIM_SCGC4_SPI0_MASK 00400000

Symbol: SIM_SCGC4_SPI0_MASK
   Definitions
      At line 3456 in file MKL46Z4.s
   Uses
      None
Comment: SIM_SCGC4_SPI0_MASK unused
SIM_SCGC4_SPI0_SHIFT 00000016

Symbol: SIM_SCGC4_SPI0_SHIFT
   Definitions



ARM Macro Assembler    Page 341 Alphabetic symbol ordering
Absolute symbols

      At line 3457 in file MKL46Z4.s
   Uses
      None
Comment: SIM_SCGC4_SPI0_SHIFT unused
SIM_SCGC4_SPI1_MASK 00800000

Symbol: SIM_SCGC4_SPI1_MASK
   Definitions
      At line 3454 in file MKL46Z4.s
   Uses
      None
Comment: SIM_SCGC4_SPI1_MASK unused
SIM_SCGC4_SPI1_SHIFT 00000017

Symbol: SIM_SCGC4_SPI1_SHIFT
   Definitions
      At line 3455 in file MKL46Z4.s
   Uses
      None
Comment: SIM_SCGC4_SPI1_SHIFT unused
SIM_SCGC4_UART0_MASK 00000400

Symbol: SIM_SCGC4_UART0_MASK
   Definitions
      At line 3466 in file MKL46Z4.s
   Uses
      At line 4047 in file test.s
Comment: SIM_SCGC4_UART0_MASK used once
SIM_SCGC4_UART0_SHIFT 0000000A

Symbol: SIM_SCGC4_UART0_SHIFT
   Definitions
      At line 3467 in file MKL46Z4.s
   Uses
      None
Comment: SIM_SCGC4_UART0_SHIFT unused
SIM_SCGC4_UART1_MASK 00000800

Symbol: SIM_SCGC4_UART1_MASK
   Definitions
      At line 3464 in file MKL46Z4.s
   Uses
      None
Comment: SIM_SCGC4_UART1_MASK unused
SIM_SCGC4_UART1_SHIFT 0000000B

Symbol: SIM_SCGC4_UART1_SHIFT
   Definitions
      At line 3465 in file MKL46Z4.s
   Uses
      None
Comment: SIM_SCGC4_UART1_SHIFT unused
SIM_SCGC4_UART2_MASK 00001000

Symbol: SIM_SCGC4_UART2_MASK
   Definitions
      At line 3462 in file MKL46Z4.s
   Uses
      None



ARM Macro Assembler    Page 342 Alphabetic symbol ordering
Absolute symbols

Comment: SIM_SCGC4_UART2_MASK unused
SIM_SCGC4_UART2_SHIFT 0000000C

Symbol: SIM_SCGC4_UART2_SHIFT
   Definitions
      At line 3463 in file MKL46Z4.s
   Uses
      None
Comment: SIM_SCGC4_UART2_SHIFT unused
SIM_SCGC4_USBOTG_MASK 00040000

Symbol: SIM_SCGC4_USBOTG_MASK
   Definitions
      At line 3460 in file MKL46Z4.s
   Uses
      None
Comment: SIM_SCGC4_USBOTG_MASK unused
SIM_SCGC4_USBOTG_SHIFT 00000012

Symbol: SIM_SCGC4_USBOTG_SHIFT
   Definitions
      At line 3461 in file MKL46Z4.s
   Uses
      None
Comment: SIM_SCGC4_USBOTG_SHIFT unused
SIM_SCGC5 40048038

Symbol: SIM_SCGC5
   Definitions
      At line 3387 in file MKL46Z4.s
   Uses
      At line 4053 in file test.s
Comment: SIM_SCGC5 used once
SIM_SCGC5_LPTMR_MASK 00000001

Symbol: SIM_SCGC5_LPTMR_MASK
   Definitions
      At line 3502 in file MKL46Z4.s
   Uses
      None
Comment: SIM_SCGC5_LPTMR_MASK unused
SIM_SCGC5_LPTMR_SHIFT 00000000

Symbol: SIM_SCGC5_LPTMR_SHIFT
   Definitions
      At line 3503 in file MKL46Z4.s
   Uses
      None
Comment: SIM_SCGC5_LPTMR_SHIFT unused
SIM_SCGC5_OFFSET 00001038

Symbol: SIM_SCGC5_OFFSET
   Definitions
      At line 3371 in file MKL46Z4.s
   Uses
      At line 3387 in file MKL46Z4.s
Comment: SIM_SCGC5_OFFSET used once
SIM_SCGC5_PORTA_MASK 00000200




ARM Macro Assembler    Page 343 Alphabetic symbol ordering
Absolute symbols

Symbol: SIM_SCGC5_PORTA_MASK
   Definitions
      At line 3498 in file MKL46Z4.s
   Uses
      At line 4054 in file test.s
Comment: SIM_SCGC5_PORTA_MASK used once
SIM_SCGC5_PORTA_SHIFT 00000009

Symbol: SIM_SCGC5_PORTA_SHIFT
   Definitions
      At line 3499 in file MKL46Z4.s
   Uses
      None
Comment: SIM_SCGC5_PORTA_SHIFT unused
SIM_SCGC5_PORTB_MASK 00000400

Symbol: SIM_SCGC5_PORTB_MASK
   Definitions
      At line 3496 in file MKL46Z4.s
   Uses
      None
Comment: SIM_SCGC5_PORTB_MASK unused
SIM_SCGC5_PORTB_SHIFT 0000000A

Symbol: SIM_SCGC5_PORTB_SHIFT
   Definitions
      At line 3497 in file MKL46Z4.s
   Uses
      None
Comment: SIM_SCGC5_PORTB_SHIFT unused
SIM_SCGC5_PORTC_MASK 00000800

Symbol: SIM_SCGC5_PORTC_MASK
   Definitions
      At line 3494 in file MKL46Z4.s
   Uses
      None
Comment: SIM_SCGC5_PORTC_MASK unused
SIM_SCGC5_PORTC_SHIFT 0000000B

Symbol: SIM_SCGC5_PORTC_SHIFT
   Definitions
      At line 3495 in file MKL46Z4.s
   Uses
      None
Comment: SIM_SCGC5_PORTC_SHIFT unused
SIM_SCGC5_PORTD_MASK 00001000

Symbol: SIM_SCGC5_PORTD_MASK
   Definitions
      At line 3492 in file MKL46Z4.s
   Uses
      None
Comment: SIM_SCGC5_PORTD_MASK unused
SIM_SCGC5_PORTD_SHIFT 0000000C

Symbol: SIM_SCGC5_PORTD_SHIFT
   Definitions
      At line 3493 in file MKL46Z4.s



ARM Macro Assembler    Page 344 Alphabetic symbol ordering
Absolute symbols

   Uses
      None
Comment: SIM_SCGC5_PORTD_SHIFT unused
SIM_SCGC5_PORTE_MASK 00002000

Symbol: SIM_SCGC5_PORTE_MASK
   Definitions
      At line 3490 in file MKL46Z4.s
   Uses
      None
Comment: SIM_SCGC5_PORTE_MASK unused
SIM_SCGC5_PORTE_SHIFT 0000000D

Symbol: SIM_SCGC5_PORTE_SHIFT
   Definitions
      At line 3491 in file MKL46Z4.s
   Uses
      None
Comment: SIM_SCGC5_PORTE_SHIFT unused
SIM_SCGC5_SLCD_MASK 00080000

Symbol: SIM_SCGC5_SLCD_MASK
   Definitions
      At line 3488 in file MKL46Z4.s
   Uses
      None
Comment: SIM_SCGC5_SLCD_MASK unused
SIM_SCGC5_SLCD_SHIFT 00000013

Symbol: SIM_SCGC5_SLCD_SHIFT
   Definitions
      At line 3489 in file MKL46Z4.s
   Uses
      None
Comment: SIM_SCGC5_SLCD_SHIFT unused
SIM_SCGC5_TSI_MASK 00000020

Symbol: SIM_SCGC5_TSI_MASK
   Definitions
      At line 3500 in file MKL46Z4.s
   Uses
      None
Comment: SIM_SCGC5_TSI_MASK unused
SIM_SCGC5_TSI_SHIFT 00000006

Symbol: SIM_SCGC5_TSI_SHIFT
   Definitions
      At line 3501 in file MKL46Z4.s
   Uses
      None
Comment: SIM_SCGC5_TSI_SHIFT unused
SIM_SCGC6 4004803C

Symbol: SIM_SCGC6
   Definitions
      At line 3388 in file MKL46Z4.s
   Uses
      None
Comment: SIM_SCGC6 unused



ARM Macro Assembler    Page 345 Alphabetic symbol ordering
Absolute symbols

SIM_SCGC6_ADC0_MASK 08000000

Symbol: SIM_SCGC6_ADC0_MASK
   Definitions
      At line 3524 in file MKL46Z4.s
   Uses
      None
Comment: SIM_SCGC6_ADC0_MASK unused
SIM_SCGC6_ADC0_SHIFT 0000001B

Symbol: SIM_SCGC6_ADC0_SHIFT
   Definitions
      At line 3525 in file MKL46Z4.s
   Uses
      None
Comment: SIM_SCGC6_ADC0_SHIFT unused
SIM_SCGC6_DAC0_MASK 80000000

Symbol: SIM_SCGC6_DAC0_MASK
   Definitions
      At line 3520 in file MKL46Z4.s
   Uses
      None
Comment: SIM_SCGC6_DAC0_MASK unused
SIM_SCGC6_DAC0_SHIFT 0000001F

Symbol: SIM_SCGC6_DAC0_SHIFT
   Definitions
      At line 3521 in file MKL46Z4.s
   Uses
      None
Comment: SIM_SCGC6_DAC0_SHIFT unused
SIM_SCGC6_DMAMUX_MASK 00000002

Symbol: SIM_SCGC6_DMAMUX_MASK
   Definitions
      At line 3534 in file MKL46Z4.s
   Uses
      None
Comment: SIM_SCGC6_DMAMUX_MASK unused
SIM_SCGC6_DMAMUX_SHIFT 00000001

Symbol: SIM_SCGC6_DMAMUX_SHIFT
   Definitions
      At line 3535 in file MKL46Z4.s
   Uses
      None
Comment: SIM_SCGC6_DMAMUX_SHIFT unused
SIM_SCGC6_FTF_MASK 00000001

Symbol: SIM_SCGC6_FTF_MASK
   Definitions
      At line 3536 in file MKL46Z4.s
   Uses
      None
Comment: SIM_SCGC6_FTF_MASK unused
SIM_SCGC6_FTF_SHIFT 00000000

Symbol: SIM_SCGC6_FTF_SHIFT



ARM Macro Assembler    Page 346 Alphabetic symbol ordering
Absolute symbols

   Definitions
      At line 3537 in file MKL46Z4.s
   Uses
      None
Comment: SIM_SCGC6_FTF_SHIFT unused
SIM_SCGC6_OFFSET 0000103C

Symbol: SIM_SCGC6_OFFSET
   Definitions
      At line 3372 in file MKL46Z4.s
   Uses
      At line 3388 in file MKL46Z4.s
Comment: SIM_SCGC6_OFFSET used once
SIM_SCGC6_PIT_MASK 00800000

Symbol: SIM_SCGC6_PIT_MASK
   Definitions
      At line 3532 in file MKL46Z4.s
   Uses
      None
Comment: SIM_SCGC6_PIT_MASK unused
SIM_SCGC6_PIT_SHIFT 00000017

Symbol: SIM_SCGC6_PIT_SHIFT
   Definitions
      At line 3533 in file MKL46Z4.s
   Uses
      None
Comment: SIM_SCGC6_PIT_SHIFT unused
SIM_SCGC6_RTC_MASK 20000000

Symbol: SIM_SCGC6_RTC_MASK
   Definitions
      At line 3522 in file MKL46Z4.s
   Uses
      None
Comment: SIM_SCGC6_RTC_MASK unused
SIM_SCGC6_RTC_SHIFT 0000001D

Symbol: SIM_SCGC6_RTC_SHIFT
   Definitions
      At line 3523 in file MKL46Z4.s
   Uses
      None
Comment: SIM_SCGC6_RTC_SHIFT unused
SIM_SCGC6_TPM0_MASK 01000000

Symbol: SIM_SCGC6_TPM0_MASK
   Definitions
      At line 3530 in file MKL46Z4.s
   Uses
      None
Comment: SIM_SCGC6_TPM0_MASK unused
SIM_SCGC6_TPM0_SHIFT 00000018

Symbol: SIM_SCGC6_TPM0_SHIFT
   Definitions
      At line 3531 in file MKL46Z4.s
   Uses



ARM Macro Assembler    Page 347 Alphabetic symbol ordering
Absolute symbols

      None
Comment: SIM_SCGC6_TPM0_SHIFT unused
SIM_SCGC6_TPM1_MASK 02000000

Symbol: SIM_SCGC6_TPM1_MASK
   Definitions
      At line 3528 in file MKL46Z4.s
   Uses
      None
Comment: SIM_SCGC6_TPM1_MASK unused
SIM_SCGC6_TPM1_SHIFT 00000019

Symbol: SIM_SCGC6_TPM1_SHIFT
   Definitions
      At line 3529 in file MKL46Z4.s
   Uses
      None
Comment: SIM_SCGC6_TPM1_SHIFT unused
SIM_SCGC6_TPM2_MASK 04000000

Symbol: SIM_SCGC6_TPM2_MASK
   Definitions
      At line 3526 in file MKL46Z4.s
   Uses
      None
Comment: SIM_SCGC6_TPM2_MASK unused
SIM_SCGC6_TPM2_SHIFT 0000001A

Symbol: SIM_SCGC6_TPM2_SHIFT
   Definitions
      At line 3527 in file MKL46Z4.s
   Uses
      None
Comment: SIM_SCGC6_TPM2_SHIFT unused
SIM_SCGC7 40048040

Symbol: SIM_SCGC7
   Definitions
      At line 3389 in file MKL46Z4.s
   Uses
      None
Comment: SIM_SCGC7 unused
SIM_SCGC7_OFFSET 00001040

Symbol: SIM_SCGC7_OFFSET
   Definitions
      At line 3373 in file MKL46Z4.s
   Uses
      At line 3389 in file MKL46Z4.s
Comment: SIM_SCGC7_OFFSET used once
SIM_SDID 40048024

Symbol: SIM_SDID
   Definitions
      At line 3390 in file MKL46Z4.s
   Uses
      None
Comment: SIM_SDID unused
SIM_SDID_OFFSET 00001024



ARM Macro Assembler    Page 348 Alphabetic symbol ordering
Absolute symbols


Symbol: SIM_SDID_OFFSET
   Definitions
      At line 3369 in file MKL46Z4.s
   Uses
      At line 3390 in file MKL46Z4.s
Comment: SIM_SDID_OFFSET used once
SIM_SOPT1 40047000

Symbol: SIM_SOPT1
   Definitions
      At line 3391 in file MKL46Z4.s
   Uses
      None
Comment: SIM_SOPT1 unused
SIM_SOPT1CFG 40047004

Symbol: SIM_SOPT1CFG
   Definitions
      At line 3392 in file MKL46Z4.s
   Uses
      None
Comment: SIM_SOPT1CFG unused
SIM_SOPT1CFG_OFFSET 00000004

Symbol: SIM_SOPT1CFG_OFFSET
   Definitions
      At line 3364 in file MKL46Z4.s
   Uses
      At line 3392 in file MKL46Z4.s
Comment: SIM_SOPT1CFG_OFFSET used once
SIM_SOPT1_OFFSET 00000000

Symbol: SIM_SOPT1_OFFSET
   Definitions
      At line 3363 in file MKL46Z4.s
   Uses
      At line 3391 in file MKL46Z4.s
Comment: SIM_SOPT1_OFFSET used once
SIM_SOPT1_OSC32KSEL_MASK 000C0000

Symbol: SIM_SOPT1_OSC32KSEL_MASK
   Definitions
      At line 3552 in file MKL46Z4.s
   Uses
      None
Comment: SIM_SOPT1_OSC32KSEL_MASK unused
SIM_SOPT1_OSC32KSEL_SHIFT 00000012

Symbol: SIM_SOPT1_OSC32KSEL_SHIFT
   Definitions
      At line 3553 in file MKL46Z4.s
   Uses
      None
Comment: SIM_SOPT1_OSC32KSEL_SHIFT unused
SIM_SOPT1_USBREGEN_MASK 80000000

Symbol: SIM_SOPT1_USBREGEN_MASK
   Definitions



ARM Macro Assembler    Page 349 Alphabetic symbol ordering
Absolute symbols

      At line 3558 in file MKL46Z4.s
   Uses
      None
Comment: SIM_SOPT1_USBREGEN_MASK unused
SIM_SOPT1_USBREGEN_SHIFT 0000001F

Symbol: SIM_SOPT1_USBREGEN_SHIFT
   Definitions
      At line 3559 in file MKL46Z4.s
   Uses
      None
Comment: SIM_SOPT1_USBREGEN_SHIFT unused
SIM_SOPT1_USBSSTBY_MASK 40000000

Symbol: SIM_SOPT1_USBSSTBY_MASK
   Definitions
      At line 3556 in file MKL46Z4.s
   Uses
      None
Comment: SIM_SOPT1_USBSSTBY_MASK unused
SIM_SOPT1_USBSSTBY_SHIFT 0000001E

Symbol: SIM_SOPT1_USBSSTBY_SHIFT
   Definitions
      At line 3557 in file MKL46Z4.s
   Uses
      None
Comment: SIM_SOPT1_USBSSTBY_SHIFT unused
SIM_SOPT1_USBVSTBY_MASK 20000000

Symbol: SIM_SOPT1_USBVSTBY_MASK
   Definitions
      At line 3554 in file MKL46Z4.s
   Uses
      None
Comment: SIM_SOPT1_USBVSTBY_MASK unused
SIM_SOPT1_USBVSTBY_SHIFT 0000001D

Symbol: SIM_SOPT1_USBVSTBY_SHIFT
   Definitions
      At line 3555 in file MKL46Z4.s
   Uses
      None
Comment: SIM_SOPT1_USBVSTBY_SHIFT unused
SIM_SOPT2 40048004

Symbol: SIM_SOPT2
   Definitions
      At line 3393 in file MKL46Z4.s
   Uses
      At line 4030 in file test.s
Comment: SIM_SOPT2 used once
SIM_SOPT2_CLKOUTSEL_MASK 000000E0

Symbol: SIM_SOPT2_CLKOUTSEL_MASK
   Definitions
      At line 3603 in file MKL46Z4.s
   Uses
      None



ARM Macro Assembler    Page 350 Alphabetic symbol ordering
Absolute symbols

Comment: SIM_SOPT2_CLKOUTSEL_MASK unused
SIM_SOPT2_CLKOUTSEL_SHIFT 00000005

Symbol: SIM_SOPT2_CLKOUTSEL_SHIFT
   Definitions
      At line 3604 in file MKL46Z4.s
   Uses
      None
Comment: SIM_SOPT2_CLKOUTSEL_SHIFT unused
SIM_SOPT2_OFFSET 00001004

Symbol: SIM_SOPT2_OFFSET
   Definitions
      At line 3365 in file MKL46Z4.s
   Uses
      At line 3393 in file MKL46Z4.s
Comment: SIM_SOPT2_OFFSET used once
SIM_SOPT2_PLLFLLSEL_MASK 00010000

Symbol: SIM_SOPT2_PLLFLLSEL_MASK
   Definitions
      At line 3601 in file MKL46Z4.s
   Uses
      At line 55 in file test.s
Comment: SIM_SOPT2_PLLFLLSEL_MASK used once
SIM_SOPT2_PLLFLLSEL_SHIFT 00000010

Symbol: SIM_SOPT2_PLLFLLSEL_SHIFT
   Definitions
      At line 3602 in file MKL46Z4.s
   Uses
      None
Comment: SIM_SOPT2_PLLFLLSEL_SHIFT unused
SIM_SOPT2_RTCCLKOUTSEL_MASK 00000010

Symbol: SIM_SOPT2_RTCCLKOUTSEL_MASK
   Definitions
      At line 3605 in file MKL46Z4.s
   Uses
      None
Comment: SIM_SOPT2_RTCCLKOUTSEL_MASK unused
SIM_SOPT2_RTCCLKOUTSEL_SHIFT 00000004

Symbol: SIM_SOPT2_RTCCLKOUTSEL_SHIFT
   Definitions
      At line 3606 in file MKL46Z4.s
   Uses
      None
Comment: SIM_SOPT2_RTCCLKOUTSEL_SHIFT unused
SIM_SOPT2_TPMSRC_MASK 03000000

Symbol: SIM_SOPT2_TPMSRC_MASK
   Definitions
      At line 3597 in file MKL46Z4.s
   Uses
      None
Comment: SIM_SOPT2_TPMSRC_MASK unused
SIM_SOPT2_TPMSRC_SHIFT 00000018




ARM Macro Assembler    Page 351 Alphabetic symbol ordering
Absolute symbols

Symbol: SIM_SOPT2_TPMSRC_SHIFT
   Definitions
      At line 3598 in file MKL46Z4.s
   Uses
      None
Comment: SIM_SOPT2_TPMSRC_SHIFT unused
SIM_SOPT2_UART0SRC_MASK 0C000000

Symbol: SIM_SOPT2_UART0SRC_MASK
   Definitions
      At line 3595 in file MKL46Z4.s
   Uses
      At line 4031 in file test.s
Comment: SIM_SOPT2_UART0SRC_MASK used once
SIM_SOPT2_UART0SRC_MCGPLLCLK 04000000

Symbol: SIM_SOPT2_UART0SRC_MCGPLLCLK
   Definitions
      At line 53 in file test.s
   Uses
      At line 55 in file test.s
Comment: SIM_SOPT2_UART0SRC_MCGPLLCLK used once
SIM_SOPT2_UART0SRC_SHIFT 0000001A

Symbol: SIM_SOPT2_UART0SRC_SHIFT
   Definitions
      At line 3596 in file MKL46Z4.s
   Uses
      At line 53 in file test.s
Comment: SIM_SOPT2_UART0SRC_SHIFT used once
SIM_SOPT2_UART0_MCGPLLCLK_DIV2 04010000

Symbol: SIM_SOPT2_UART0_MCGPLLCLK_DIV2
   Definitions
      At line 55 in file test.s
   Uses
      At line 4034 in file test.s
Comment: SIM_SOPT2_UART0_MCGPLLCLK_DIV2 used once
SIM_SOPT2_USBSRC_MASK 00040000

Symbol: SIM_SOPT2_USBSRC_MASK
   Definitions
      At line 3599 in file MKL46Z4.s
   Uses
      None
Comment: SIM_SOPT2_USBSRC_MASK unused
SIM_SOPT2_USBSRC_SHIFT 00000012

Symbol: SIM_SOPT2_USBSRC_SHIFT
   Definitions
      At line 3600 in file MKL46Z4.s
   Uses
      None
Comment: SIM_SOPT2_USBSRC_SHIFT unused
SIM_SOPT4 4004800C

Symbol: SIM_SOPT4
   Definitions
      At line 3394 in file MKL46Z4.s



ARM Macro Assembler    Page 352 Alphabetic symbol ordering
Absolute symbols

   Uses
      None
Comment: SIM_SOPT4 unused
SIM_SOPT4_OFFSET 0000100C

Symbol: SIM_SOPT4_OFFSET
   Definitions
      At line 3366 in file MKL46Z4.s
   Uses
      At line 3394 in file MKL46Z4.s
Comment: SIM_SOPT4_OFFSET used once
SIM_SOPT5 40048010

Symbol: SIM_SOPT5
   Definitions
      At line 3395 in file MKL46Z4.s
   Uses
      At line 4039 in file test.s
Comment: SIM_SOPT5 used once
SIM_SOPT5_OFFSET 00001010

Symbol: SIM_SOPT5_OFFSET
   Definitions
      At line 3367 in file MKL46Z4.s
   Uses
      At line 3395 in file MKL46Z4.s
Comment: SIM_SOPT5_OFFSET used once
SIM_SOPT5_UART0ODE_MASK 00010000

Symbol: SIM_SOPT5_UART0ODE_MASK
   Definitions
      At line 3636 in file MKL46Z4.s
   Uses
      At line 64 in file test.s
Comment: SIM_SOPT5_UART0ODE_MASK used once
SIM_SOPT5_UART0ODE_SHIFT 00000010

Symbol: SIM_SOPT5_UART0ODE_SHIFT
   Definitions
      At line 3637 in file MKL46Z4.s
   Uses
      None
Comment: SIM_SOPT5_UART0ODE_SHIFT unused
SIM_SOPT5_UART0RXSRC_MASK 00000004

Symbol: SIM_SOPT5_UART0RXSRC_MASK
   Definitions
      At line 3642 in file MKL46Z4.s
   Uses
      At line 64 in file test.s
Comment: SIM_SOPT5_UART0RXSRC_MASK used once
SIM_SOPT5_UART0RXSRC_SHIFT 00000002

Symbol: SIM_SOPT5_UART0RXSRC_SHIFT
   Definitions
      At line 3643 in file MKL46Z4.s
   Uses
      None
Comment: SIM_SOPT5_UART0RXSRC_SHIFT unused



ARM Macro Assembler    Page 353 Alphabetic symbol ordering
Absolute symbols

SIM_SOPT5_UART0TXSRC_MASK 00000003

Symbol: SIM_SOPT5_UART0TXSRC_MASK
   Definitions
      At line 3644 in file MKL46Z4.s
   Uses
      At line 64 in file test.s
Comment: SIM_SOPT5_UART0TXSRC_MASK used once
SIM_SOPT5_UART0TXSRC_SHIFT 00000000

Symbol: SIM_SOPT5_UART0TXSRC_SHIFT
   Definitions
      At line 3645 in file MKL46Z4.s
   Uses
      None
Comment: SIM_SOPT5_UART0TXSRC_SHIFT unused
SIM_SOPT5_UART0_EXTERN_MASK_CLEAR 00010007

Symbol: SIM_SOPT5_UART0_EXTERN_MASK_CLEAR
   Definitions
      At line 64 in file test.s
   Uses
      At line 4040 in file test.s
Comment: SIM_SOPT5_UART0_EXTERN_MASK_CLEAR used once
SIM_SOPT5_UART1ODE_MASK 00020000

Symbol: SIM_SOPT5_UART1ODE_MASK
   Definitions
      At line 3634 in file MKL46Z4.s
   Uses
      None
Comment: SIM_SOPT5_UART1ODE_MASK unused
SIM_SOPT5_UART1ODE_SHIFT 00000011

Symbol: SIM_SOPT5_UART1ODE_SHIFT
   Definitions
      At line 3635 in file MKL46Z4.s
   Uses
      None
Comment: SIM_SOPT5_UART1ODE_SHIFT unused
SIM_SOPT5_UART1RXSRC_MASK 00000040

Symbol: SIM_SOPT5_UART1RXSRC_MASK
   Definitions
      At line 3638 in file MKL46Z4.s
   Uses
      None
Comment: SIM_SOPT5_UART1RXSRC_MASK unused
SIM_SOPT5_UART1RXSRC_SHIFT 00000006

Symbol: SIM_SOPT5_UART1RXSRC_SHIFT
   Definitions
      At line 3639 in file MKL46Z4.s
   Uses
      None
Comment: SIM_SOPT5_UART1RXSRC_SHIFT unused
SIM_SOPT5_UART1TXSRC_MASK 00000030

Symbol: SIM_SOPT5_UART1TXSRC_MASK



ARM Macro Assembler    Page 354 Alphabetic symbol ordering
Absolute symbols

   Definitions
      At line 3640 in file MKL46Z4.s
   Uses
      None
Comment: SIM_SOPT5_UART1TXSRC_MASK unused
SIM_SOPT5_UART1TXSRC_SHIFT 00000004

Symbol: SIM_SOPT5_UART1TXSRC_SHIFT
   Definitions
      At line 3641 in file MKL46Z4.s
   Uses
      None
Comment: SIM_SOPT5_UART1TXSRC_SHIFT unused
SIM_SOPT5_UART2ODE_MASK 00040000

Symbol: SIM_SOPT5_UART2ODE_MASK
   Definitions
      At line 3632 in file MKL46Z4.s
   Uses
      None
Comment: SIM_SOPT5_UART2ODE_MASK unused
SIM_SOPT5_UART2ODE_SHIFT 00000012

Symbol: SIM_SOPT5_UART2ODE_SHIFT
   Definitions
      At line 3633 in file MKL46Z4.s
   Uses
      None
Comment: SIM_SOPT5_UART2ODE_SHIFT unused
SIM_SOPT7 40048018

Symbol: SIM_SOPT7
   Definitions
      At line 3396 in file MKL46Z4.s
   Uses
      None
Comment: SIM_SOPT7 unused
SIM_SOPT7_OFFSET 00001018

Symbol: SIM_SOPT7_OFFSET
   Definitions
      At line 3368 in file MKL46Z4.s
   Uses
      At line 3396 in file MKL46Z4.s
Comment: SIM_SOPT7_OFFSET used once
SIM_SRVCOP 40048104

Symbol: SIM_SRVCOP
   Definitions
      At line 3397 in file MKL46Z4.s
   Uses
      None
Comment: SIM_SRVCOP unused
SIM_SRVCOP_OFFSET 00001104

Symbol: SIM_SRVCOP_OFFSET
   Definitions
      At line 3381 in file MKL46Z4.s
   Uses



ARM Macro Assembler    Page 355 Alphabetic symbol ordering
Absolute symbols

      At line 3397 in file MKL46Z4.s
Comment: SIM_SRVCOP_OFFSET used once
SIM_UIDL 40048060

Symbol: SIM_UIDL
   Definitions
      At line 3398 in file MKL46Z4.s
   Uses
      None
Comment: SIM_UIDL unused
SIM_UIDL_OFFSET 00001060

Symbol: SIM_UIDL_OFFSET
   Definitions
      At line 3379 in file MKL46Z4.s
   Uses
      At line 3398 in file MKL46Z4.s
Comment: SIM_UIDL_OFFSET used once
SIM_UIDMH 40048058

Symbol: SIM_UIDMH
   Definitions
      At line 3399 in file MKL46Z4.s
   Uses
      None
Comment: SIM_UIDMH unused
SIM_UIDMH_OFFSET 00001058

Symbol: SIM_UIDMH_OFFSET
   Definitions
      At line 3377 in file MKL46Z4.s
   Uses
      At line 3399 in file MKL46Z4.s
Comment: SIM_UIDMH_OFFSET used once
SIM_UIDML 4004805C

Symbol: SIM_UIDML
   Definitions
      At line 3400 in file MKL46Z4.s
   Uses
      None
Comment: SIM_UIDML unused
SIM_UIDML_OFFSET 0000105C

Symbol: SIM_UIDML_OFFSET
   Definitions
      At line 3378 in file MKL46Z4.s
   Uses
      At line 3400 in file MKL46Z4.s
Comment: SIM_UIDML_OFFSET used once
SPI0_IPR E000E408

Symbol: SPI0_IPR
   Definitions
      At line 2650 in file MKL46Z4.s
   Uses
      None
Comment: SPI0_IPR unused
SPI0_IRQ 0000000A



ARM Macro Assembler    Page 356 Alphabetic symbol ordering
Absolute symbols


Symbol: SPI0_IRQ
   Definitions
      At line 2720 in file MKL46Z4.s
   Uses
      At line 2754 in file MKL46Z4.s
Comment: SPI0_IRQ used once
SPI0_IRQ_MASK 00000400

Symbol: SPI0_IRQ_MASK
   Definitions
      At line 2754 in file MKL46Z4.s
   Uses
      None
Comment: SPI0_IRQ_MASK unused
SPI0_IRQn 0000000A

Symbol: SPI0_IRQn
   Definitions
      At line 133 in file MKL46Z4.s
   Uses
      None
Comment: SPI0_IRQn unused
SPI0_PRI_POS 00000016

Symbol: SPI0_PRI_POS
   Definitions
      At line 2686 in file MKL46Z4.s
   Uses
      None
Comment: SPI0_PRI_POS unused
SPI0_Vector 0000001A

Symbol: SPI0_Vector
   Definitions
      At line 2804 in file MKL46Z4.s
   Uses
      None
Comment: SPI0_Vector unused
SPI1_IPR E000E408

Symbol: SPI1_IPR
   Definitions
      At line 2651 in file MKL46Z4.s
   Uses
      None
Comment: SPI1_IPR unused
SPI1_IRQ 0000000B

Symbol: SPI1_IRQ
   Definitions
      At line 2721 in file MKL46Z4.s
   Uses
      At line 2755 in file MKL46Z4.s
Comment: SPI1_IRQ used once
SPI1_IRQ_MASK 00000800

Symbol: SPI1_IRQ_MASK
   Definitions



ARM Macro Assembler    Page 357 Alphabetic symbol ordering
Absolute symbols

      At line 2755 in file MKL46Z4.s
   Uses
      None
Comment: SPI1_IRQ_MASK unused
SPI1_IRQn 0000000B

Symbol: SPI1_IRQn
   Definitions
      At line 134 in file MKL46Z4.s
   Uses
      None
Comment: SPI1_IRQn unused
SPI1_PRI_POS 0000001E

Symbol: SPI1_PRI_POS
   Definitions
      At line 2687 in file MKL46Z4.s
   Uses
      None
Comment: SPI1_PRI_POS unused
SPI1_Vector 0000001B

Symbol: SPI1_Vector
   Definitions
      At line 2805 in file MKL46Z4.s
   Uses
      None
Comment: SPI1_Vector unused
SVCall_IRQn FFFFFFFB

Symbol: SVCall_IRQn
   Definitions
      At line 117 in file MKL46Z4.s
   Uses
      None
Comment: SVCall_IRQn unused
SVCall_Vector 0000000B

Symbol: SVCall_Vector
   Definitions
      At line 2789 in file MKL46Z4.s
   Uses
      None
Comment: SVCall_Vector unused
SysTick_IRQn FFFFFFFF

Symbol: SysTick_IRQn
   Definitions
      At line 120 in file MKL46Z4.s
   Uses
      None
Comment: SysTick_IRQn unused
SysTick_Vector 0000000F

Symbol: SysTick_Vector
   Definitions
      At line 2793 in file MKL46Z4.s
   Uses
      None



ARM Macro Assembler    Page 358 Alphabetic symbol ordering
Absolute symbols

Comment: SysTick_Vector unused
TMP0_IPR E000E410

Symbol: TMP0_IPR
   Definitions
      At line 2657 in file MKL46Z4.s
   Uses
      None
Comment: TMP0_IPR unused
TMP0_IRQ 0000000F

Symbol: TMP0_IRQ
   Definitions
      At line 2727 in file MKL46Z4.s
   Uses
      At line 2761 in file MKL46Z4.s
Comment: TMP0_IRQ used once
TMP0_IRQ_MASK 00008000

Symbol: TMP0_IRQ_MASK
   Definitions
      At line 2761 in file MKL46Z4.s
   Uses
      None
Comment: TMP0_IRQ_MASK unused
TMP0_PRI_POS 0000000E

Symbol: TMP0_PRI_POS
   Definitions
      At line 2693 in file MKL46Z4.s
   Uses
      None
Comment: TMP0_PRI_POS unused
TMP0_Vector 00000021

Symbol: TMP0_Vector
   Definitions
      At line 2811 in file MKL46Z4.s
   Uses
      None
Comment: TMP0_Vector unused
TPM0_BASE 40038000

Symbol: TPM0_BASE
   Definitions
      At line 3833 in file MKL46Z4.s
   Uses
      At line 3834 in file MKL46Z4.s
      At line 3835 in file MKL46Z4.s
      At line 3836 in file MKL46Z4.s
      At line 3837 in file MKL46Z4.s
      At line 3838 in file MKL46Z4.s
      At line 3839 in file MKL46Z4.s
      At line 3840 in file MKL46Z4.s
      At line 3841 in file MKL46Z4.s
      At line 3842 in file MKL46Z4.s
      At line 3843 in file MKL46Z4.s
      At line 3844 in file MKL46Z4.s
      At line 3845 in file MKL46Z4.s



ARM Macro Assembler    Page 359 Alphabetic symbol ordering
Absolute symbols

      At line 3846 in file MKL46Z4.s
      At line 3847 in file MKL46Z4.s
      At line 3848 in file MKL46Z4.s
      At line 3849 in file MKL46Z4.s
      At line 3850 in file MKL46Z4.s

TPM0_C0SC 4003800C

Symbol: TPM0_C0SC
   Definitions
      At line 3837 in file MKL46Z4.s
   Uses
      None
Comment: TPM0_C0SC unused
TPM0_C0V 40038010

Symbol: TPM0_C0V
   Definitions
      At line 3838 in file MKL46Z4.s
   Uses
      None
Comment: TPM0_C0V unused
TPM0_C1SC 40038014

Symbol: TPM0_C1SC
   Definitions
      At line 3839 in file MKL46Z4.s
   Uses
      None
Comment: TPM0_C1SC unused
TPM0_C1V 40038018

Symbol: TPM0_C1V
   Definitions
      At line 3840 in file MKL46Z4.s
   Uses
      None
Comment: TPM0_C1V unused
TPM0_C2SC 4003801C

Symbol: TPM0_C2SC
   Definitions
      At line 3841 in file MKL46Z4.s
   Uses
      None
Comment: TPM0_C2SC unused
TPM0_C2V 40038020

Symbol: TPM0_C2V
   Definitions
      At line 3842 in file MKL46Z4.s
   Uses
      None
Comment: TPM0_C2V unused
TPM0_C3SC 40038024

Symbol: TPM0_C3SC
   Definitions
      At line 3843 in file MKL46Z4.s



ARM Macro Assembler    Page 360 Alphabetic symbol ordering
Absolute symbols

   Uses
      None
Comment: TPM0_C3SC unused
TPM0_C3V 40038028

Symbol: TPM0_C3V
   Definitions
      At line 3844 in file MKL46Z4.s
   Uses
      None
Comment: TPM0_C3V unused
TPM0_C4SC 4003802C

Symbol: TPM0_C4SC
   Definitions
      At line 3845 in file MKL46Z4.s
   Uses
      None
Comment: TPM0_C4SC unused
TPM0_C4V 40038030

Symbol: TPM0_C4V
   Definitions
      At line 3846 in file MKL46Z4.s
   Uses
      None
Comment: TPM0_C4V unused
TPM0_C5SC 40038034

Symbol: TPM0_C5SC
   Definitions
      At line 3847 in file MKL46Z4.s
   Uses
      None
Comment: TPM0_C5SC unused
TPM0_C5V 40038038

Symbol: TPM0_C5V
   Definitions
      At line 3848 in file MKL46Z4.s
   Uses
      None
Comment: TPM0_C5V unused
TPM0_CNT 40038004

Symbol: TPM0_CNT
   Definitions
      At line 3835 in file MKL46Z4.s
   Uses
      None
Comment: TPM0_CNT unused
TPM0_CONF 40038084

Symbol: TPM0_CONF
   Definitions
      At line 3850 in file MKL46Z4.s
   Uses
      None
Comment: TPM0_CONF unused



ARM Macro Assembler    Page 361 Alphabetic symbol ordering
Absolute symbols

TPM0_IRQn 00000011

Symbol: TPM0_IRQn
   Definitions
      At line 140 in file MKL46Z4.s
   Uses
      None
Comment: TPM0_IRQn unused
TPM0_MOD 40038008

Symbol: TPM0_MOD
   Definitions
      At line 3836 in file MKL46Z4.s
   Uses
      None
Comment: TPM0_MOD unused
TPM0_SC 40038000

Symbol: TPM0_SC
   Definitions
      At line 3834 in file MKL46Z4.s
   Uses
      None
Comment: TPM0_SC unused
TPM0_STATUS 40038050

Symbol: TPM0_STATUS
   Definitions
      At line 3849 in file MKL46Z4.s
   Uses
      None
Comment: TPM0_STATUS unused
TPM1_BASE 40039000

Symbol: TPM1_BASE
   Definitions
      At line 3853 in file MKL46Z4.s
   Uses
      At line 3854 in file MKL46Z4.s
      At line 3855 in file MKL46Z4.s
      At line 3856 in file MKL46Z4.s
      At line 3857 in file MKL46Z4.s
      At line 3858 in file MKL46Z4.s
      At line 3859 in file MKL46Z4.s
      At line 3860 in file MKL46Z4.s
      At line 3861 in file MKL46Z4.s
      At line 3862 in file MKL46Z4.s
      At line 3863 in file MKL46Z4.s
      At line 3864 in file MKL46Z4.s
      At line 3865 in file MKL46Z4.s
      At line 3866 in file MKL46Z4.s
      At line 3867 in file MKL46Z4.s
      At line 3868 in file MKL46Z4.s
      At line 3869 in file MKL46Z4.s
      At line 3870 in file MKL46Z4.s

TPM1_C0SC 4003900C

Symbol: TPM1_C0SC



ARM Macro Assembler    Page 362 Alphabetic symbol ordering
Absolute symbols

   Definitions
      At line 3857 in file MKL46Z4.s
   Uses
      None
Comment: TPM1_C0SC unused
TPM1_C0V 40039010

Symbol: TPM1_C0V
   Definitions
      At line 3858 in file MKL46Z4.s
   Uses
      None
Comment: TPM1_C0V unused
TPM1_C1SC 40039014

Symbol: TPM1_C1SC
   Definitions
      At line 3859 in file MKL46Z4.s
   Uses
      None
Comment: TPM1_C1SC unused
TPM1_C1V 40039018

Symbol: TPM1_C1V
   Definitions
      At line 3860 in file MKL46Z4.s
   Uses
      None
Comment: TPM1_C1V unused
TPM1_C2SC 4003901C

Symbol: TPM1_C2SC
   Definitions
      At line 3861 in file MKL46Z4.s
   Uses
      None
Comment: TPM1_C2SC unused
TPM1_C2V 40039020

Symbol: TPM1_C2V
   Definitions
      At line 3862 in file MKL46Z4.s
   Uses
      None
Comment: TPM1_C2V unused
TPM1_C3SC 40039024

Symbol: TPM1_C3SC
   Definitions
      At line 3863 in file MKL46Z4.s
   Uses
      None
Comment: TPM1_C3SC unused
TPM1_C3V 40039028

Symbol: TPM1_C3V
   Definitions
      At line 3864 in file MKL46Z4.s
   Uses



ARM Macro Assembler    Page 363 Alphabetic symbol ordering
Absolute symbols

      None
Comment: TPM1_C3V unused
TPM1_C4SC 4003902C

Symbol: TPM1_C4SC
   Definitions
      At line 3865 in file MKL46Z4.s
   Uses
      None
Comment: TPM1_C4SC unused
TPM1_C4V 40039030

Symbol: TPM1_C4V
   Definitions
      At line 3866 in file MKL46Z4.s
   Uses
      None
Comment: TPM1_C4V unused
TPM1_C5SC 40039034

Symbol: TPM1_C5SC
   Definitions
      At line 3867 in file MKL46Z4.s
   Uses
      None
Comment: TPM1_C5SC unused
TPM1_C5V 40039038

Symbol: TPM1_C5V
   Definitions
      At line 3868 in file MKL46Z4.s
   Uses
      None
Comment: TPM1_C5V unused
TPM1_CNT 40039004

Symbol: TPM1_CNT
   Definitions
      At line 3855 in file MKL46Z4.s
   Uses
      None
Comment: TPM1_CNT unused
TPM1_CONF 40039084

Symbol: TPM1_CONF
   Definitions
      At line 3870 in file MKL46Z4.s
   Uses
      None
Comment: TPM1_CONF unused
TPM1_IPR E000E410

Symbol: TPM1_IPR
   Definitions
      At line 2658 in file MKL46Z4.s
   Uses
      None
Comment: TPM1_IPR unused
TPM1_IRQ 00000012



ARM Macro Assembler    Page 364 Alphabetic symbol ordering
Absolute symbols


Symbol: TPM1_IRQ
   Definitions
      At line 2728 in file MKL46Z4.s
   Uses
      At line 2762 in file MKL46Z4.s
Comment: TPM1_IRQ used once
TPM1_IRQ_MASK 00040000

Symbol: TPM1_IRQ_MASK
   Definitions
      At line 2762 in file MKL46Z4.s
   Uses
      None
Comment: TPM1_IRQ_MASK unused
TPM1_IRQn 00000012

Symbol: TPM1_IRQn
   Definitions
      At line 141 in file MKL46Z4.s
   Uses
      None
Comment: TPM1_IRQn unused
TPM1_MOD 40039008

Symbol: TPM1_MOD
   Definitions
      At line 3856 in file MKL46Z4.s
   Uses
      None
Comment: TPM1_MOD unused
TPM1_PRI_POS 00000016

Symbol: TPM1_PRI_POS
   Definitions
      At line 2694 in file MKL46Z4.s
   Uses
      None
Comment: TPM1_PRI_POS unused
TPM1_SC 40039000

Symbol: TPM1_SC
   Definitions
      At line 3854 in file MKL46Z4.s
   Uses
      None
Comment: TPM1_SC unused
TPM1_STATUS 40039050

Symbol: TPM1_STATUS
   Definitions
      At line 3869 in file MKL46Z4.s
   Uses
      None
Comment: TPM1_STATUS unused
TPM1_Vector 00000022

Symbol: TPM1_Vector
   Definitions



ARM Macro Assembler    Page 365 Alphabetic symbol ordering
Absolute symbols

      At line 2812 in file MKL46Z4.s
   Uses
      None
Comment: TPM1_Vector unused
TPM2_BASE 4003A000

Symbol: TPM2_BASE
   Definitions
      At line 3873 in file MKL46Z4.s
   Uses
      At line 3874 in file MKL46Z4.s
      At line 3875 in file MKL46Z4.s
      At line 3876 in file MKL46Z4.s
      At line 3877 in file MKL46Z4.s
      At line 3878 in file MKL46Z4.s
      At line 3879 in file MKL46Z4.s
      At line 3880 in file MKL46Z4.s
      At line 3881 in file MKL46Z4.s
      At line 3882 in file MKL46Z4.s
      At line 3883 in file MKL46Z4.s
      At line 3884 in file MKL46Z4.s
      At line 3885 in file MKL46Z4.s
      At line 3886 in file MKL46Z4.s
      At line 3887 in file MKL46Z4.s
      At line 3888 in file MKL46Z4.s
      At line 3889 in file MKL46Z4.s
      At line 3890 in file MKL46Z4.s

TPM2_C0SC 4003A00C

Symbol: TPM2_C0SC
   Definitions
      At line 3877 in file MKL46Z4.s
   Uses
      None
Comment: TPM2_C0SC unused
TPM2_C0V 4003A010

Symbol: TPM2_C0V
   Definitions
      At line 3878 in file MKL46Z4.s
   Uses
      None
Comment: TPM2_C0V unused
TPM2_C1SC 4003A014

Symbol: TPM2_C1SC
   Definitions
      At line 3879 in file MKL46Z4.s
   Uses
      None
Comment: TPM2_C1SC unused
TPM2_C1V 4003A018

Symbol: TPM2_C1V
   Definitions
      At line 3880 in file MKL46Z4.s
   Uses
      None



ARM Macro Assembler    Page 366 Alphabetic symbol ordering
Absolute symbols

Comment: TPM2_C1V unused
TPM2_C2SC 4003A01C

Symbol: TPM2_C2SC
   Definitions
      At line 3881 in file MKL46Z4.s
   Uses
      None
Comment: TPM2_C2SC unused
TPM2_C2V 4003A020

Symbol: TPM2_C2V
   Definitions
      At line 3882 in file MKL46Z4.s
   Uses
      None
Comment: TPM2_C2V unused
TPM2_C3SC 4003A024

Symbol: TPM2_C3SC
   Definitions
      At line 3883 in file MKL46Z4.s
   Uses
      None
Comment: TPM2_C3SC unused
TPM2_C3V 4003A028

Symbol: TPM2_C3V
   Definitions
      At line 3884 in file MKL46Z4.s
   Uses
      None
Comment: TPM2_C3V unused
TPM2_C4SC 4003A02C

Symbol: TPM2_C4SC
   Definitions
      At line 3885 in file MKL46Z4.s
   Uses
      None
Comment: TPM2_C4SC unused
TPM2_C4V 4003A030

Symbol: TPM2_C4V
   Definitions
      At line 3886 in file MKL46Z4.s
   Uses
      None
Comment: TPM2_C4V unused
TPM2_C5SC 4003A034

Symbol: TPM2_C5SC
   Definitions
      At line 3887 in file MKL46Z4.s
   Uses
      None
Comment: TPM2_C5SC unused
TPM2_C5V 4003A038




ARM Macro Assembler    Page 367 Alphabetic symbol ordering
Absolute symbols

Symbol: TPM2_C5V
   Definitions
      At line 3888 in file MKL46Z4.s
   Uses
      None
Comment: TPM2_C5V unused
TPM2_CNT 4003A004

Symbol: TPM2_CNT
   Definitions
      At line 3875 in file MKL46Z4.s
   Uses
      None
Comment: TPM2_CNT unused
TPM2_CONF 4003A084

Symbol: TPM2_CONF
   Definitions
      At line 3890 in file MKL46Z4.s
   Uses
      None
Comment: TPM2_CONF unused
TPM2_IPR E000E410

Symbol: TPM2_IPR
   Definitions
      At line 2659 in file MKL46Z4.s
   Uses
      None
Comment: TPM2_IPR unused
TPM2_IRQ 00000013

Symbol: TPM2_IRQ
   Definitions
      At line 2729 in file MKL46Z4.s
   Uses
      At line 2763 in file MKL46Z4.s
Comment: TPM2_IRQ used once
TPM2_IRQ_MASK 00080000

Symbol: TPM2_IRQ_MASK
   Definitions
      At line 2763 in file MKL46Z4.s
   Uses
      None
Comment: TPM2_IRQ_MASK unused
TPM2_IRQn 00000013

Symbol: TPM2_IRQn
   Definitions
      At line 142 in file MKL46Z4.s
   Uses
      None
Comment: TPM2_IRQn unused
TPM2_MOD 4003A008

Symbol: TPM2_MOD
   Definitions
      At line 3876 in file MKL46Z4.s



ARM Macro Assembler    Page 368 Alphabetic symbol ordering
Absolute symbols

   Uses
      None
Comment: TPM2_MOD unused
TPM2_PRI_POS 0000001E

Symbol: TPM2_PRI_POS
   Definitions
      At line 2695 in file MKL46Z4.s
   Uses
      None
Comment: TPM2_PRI_POS unused
TPM2_SC 4003A000

Symbol: TPM2_SC
   Definitions
      At line 3874 in file MKL46Z4.s
   Uses
      None
Comment: TPM2_SC unused
TPM2_STATUS 4003A050

Symbol: TPM2_STATUS
   Definitions
      At line 3889 in file MKL46Z4.s
   Uses
      None
Comment: TPM2_STATUS unused
TPM2_Vector 00000023

Symbol: TPM2_Vector
   Definitions
      At line 2813 in file MKL46Z4.s
   Uses
      None
Comment: TPM2_Vector unused
TPM_C0SC_OFFSET 0000000C

Symbol: TPM_C0SC_OFFSET
   Definitions
      At line 3651 in file MKL46Z4.s
   Uses
      At line 3837 in file MKL46Z4.s
      At line 3857 in file MKL46Z4.s
      At line 3877 in file MKL46Z4.s

TPM_C0V_OFFSET 00000010

Symbol: TPM_C0V_OFFSET
   Definitions
      At line 3652 in file MKL46Z4.s
   Uses
      At line 3838 in file MKL46Z4.s
      At line 3858 in file MKL46Z4.s
      At line 3878 in file MKL46Z4.s

TPM_C1SC_OFFSET 00000014

Symbol: TPM_C1SC_OFFSET
   Definitions



ARM Macro Assembler    Page 369 Alphabetic symbol ordering
Absolute symbols

      At line 3653 in file MKL46Z4.s
   Uses
      At line 3839 in file MKL46Z4.s
      At line 3859 in file MKL46Z4.s
      At line 3879 in file MKL46Z4.s

TPM_C1V_OFFSET 00000018

Symbol: TPM_C1V_OFFSET
   Definitions
      At line 3654 in file MKL46Z4.s
   Uses
      At line 3840 in file MKL46Z4.s
      At line 3860 in file MKL46Z4.s
      At line 3880 in file MKL46Z4.s

TPM_C2SC_OFFSET 0000001C

Symbol: TPM_C2SC_OFFSET
   Definitions
      At line 3655 in file MKL46Z4.s
   Uses
      At line 3841 in file MKL46Z4.s
      At line 3861 in file MKL46Z4.s
      At line 3881 in file MKL46Z4.s

TPM_C2V_OFFSET 00000020

Symbol: TPM_C2V_OFFSET
   Definitions
      At line 3656 in file MKL46Z4.s
   Uses
      At line 3842 in file MKL46Z4.s
      At line 3862 in file MKL46Z4.s
      At line 3882 in file MKL46Z4.s

TPM_C3SC_OFFSET 00000024

Symbol: TPM_C3SC_OFFSET
   Definitions
      At line 3657 in file MKL46Z4.s
   Uses
      At line 3843 in file MKL46Z4.s
      At line 3863 in file MKL46Z4.s
      At line 3883 in file MKL46Z4.s

TPM_C3V_OFFSET 00000028

Symbol: TPM_C3V_OFFSET
   Definitions
      At line 3658 in file MKL46Z4.s
   Uses
      At line 3844 in file MKL46Z4.s
      At line 3864 in file MKL46Z4.s
      At line 3884 in file MKL46Z4.s

TPM_C4SC_OFFSET 0000002C

Symbol: TPM_C4SC_OFFSET



ARM Macro Assembler    Page 370 Alphabetic symbol ordering
Absolute symbols

   Definitions
      At line 3659 in file MKL46Z4.s
   Uses
      At line 3845 in file MKL46Z4.s
      At line 3865 in file MKL46Z4.s
      At line 3885 in file MKL46Z4.s

TPM_C4V_OFFSET 00000030

Symbol: TPM_C4V_OFFSET
   Definitions
      At line 3660 in file MKL46Z4.s
   Uses
      At line 3846 in file MKL46Z4.s
      At line 3866 in file MKL46Z4.s
      At line 3886 in file MKL46Z4.s

TPM_C5SC_OFFSET 00000034

Symbol: TPM_C5SC_OFFSET
   Definitions
      At line 3661 in file MKL46Z4.s
   Uses
      At line 3847 in file MKL46Z4.s
      At line 3867 in file MKL46Z4.s
      At line 3887 in file MKL46Z4.s

TPM_C5V_OFFSET 00000038

Symbol: TPM_C5V_OFFSET
   Definitions
      At line 3662 in file MKL46Z4.s
   Uses
      At line 3848 in file MKL46Z4.s
      At line 3868 in file MKL46Z4.s
      At line 3888 in file MKL46Z4.s

TPM_CNT_OFFSET 00000004

Symbol: TPM_CNT_OFFSET
   Definitions
      At line 3649 in file MKL46Z4.s
   Uses
      At line 3835 in file MKL46Z4.s
      At line 3855 in file MKL46Z4.s
      At line 3875 in file MKL46Z4.s

TPM_CONF_CROT_MASK 00040000

Symbol: TPM_CONF_CROT_MASK
   Definitions
      At line 3757 in file MKL46Z4.s
   Uses
      None
Comment: TPM_CONF_CROT_MASK unused
TPM_CONF_CROT_SHIFT 00000012

Symbol: TPM_CONF_CROT_SHIFT
   Definitions



ARM Macro Assembler    Page 371 Alphabetic symbol ordering
Absolute symbols

      At line 3758 in file MKL46Z4.s
   Uses
      None
Comment: TPM_CONF_CROT_SHIFT unused
TPM_CONF_CSOO_MASK 00020000

Symbol: TPM_CONF_CSOO_MASK
   Definitions
      At line 3759 in file MKL46Z4.s
   Uses
      None
Comment: TPM_CONF_CSOO_MASK unused
TPM_CONF_CSOO_SHIFT 00000011

Symbol: TPM_CONF_CSOO_SHIFT
   Definitions
      At line 3760 in file MKL46Z4.s
   Uses
      None
Comment: TPM_CONF_CSOO_SHIFT unused
TPM_CONF_CSOT_MASK 00010000

Symbol: TPM_CONF_CSOT_MASK
   Definitions
      At line 3761 in file MKL46Z4.s
   Uses
      None
Comment: TPM_CONF_CSOT_MASK unused
TPM_CONF_CSOT_SHIFT 00000010

Symbol: TPM_CONF_CSOT_SHIFT
   Definitions
      At line 3762 in file MKL46Z4.s
   Uses
      None
Comment: TPM_CONF_CSOT_SHIFT unused
TPM_CONF_DBGMODE_MASK 000000C0

Symbol: TPM_CONF_DBGMODE_MASK
   Definitions
      At line 3765 in file MKL46Z4.s
   Uses
      None
Comment: TPM_CONF_DBGMODE_MASK unused
TPM_CONF_DBGMODE_SHIFT 00000006

Symbol: TPM_CONF_DBGMODE_SHIFT
   Definitions
      At line 3766 in file MKL46Z4.s
   Uses
      None
Comment: TPM_CONF_DBGMODE_SHIFT unused
TPM_CONF_DOZEEN_MASK 00000020

Symbol: TPM_CONF_DOZEEN_MASK
   Definitions
      At line 3767 in file MKL46Z4.s
   Uses
      None



ARM Macro Assembler    Page 372 Alphabetic symbol ordering
Absolute symbols

Comment: TPM_CONF_DOZEEN_MASK unused
TPM_CONF_DOZEEN_SHIFT 00000005

Symbol: TPM_CONF_DOZEEN_SHIFT
   Definitions
      At line 3768 in file MKL46Z4.s
   Uses
      None
Comment: TPM_CONF_DOZEEN_SHIFT unused
TPM_CONF_GTBEEN_MASK 00000200

Symbol: TPM_CONF_GTBEEN_MASK
   Definitions
      At line 3763 in file MKL46Z4.s
   Uses
      None
Comment: TPM_CONF_GTBEEN_MASK unused
TPM_CONF_GTBEEN_SHIFT 00000009

Symbol: TPM_CONF_GTBEEN_SHIFT
   Definitions
      At line 3764 in file MKL46Z4.s
   Uses
      None
Comment: TPM_CONF_GTBEEN_SHIFT unused
TPM_CONF_OFFSET 00000084

Symbol: TPM_CONF_OFFSET
   Definitions
      At line 3664 in file MKL46Z4.s
   Uses
      At line 3850 in file MKL46Z4.s
      At line 3870 in file MKL46Z4.s
      At line 3890 in file MKL46Z4.s

TPM_CONF_TRGSEL_MASK 0F000000

Symbol: TPM_CONF_TRGSEL_MASK
   Definitions
      At line 3755 in file MKL46Z4.s
   Uses
      None
Comment: TPM_CONF_TRGSEL_MASK unused
TPM_CONF_TRGSEL_SHIFT 00000018

Symbol: TPM_CONF_TRGSEL_SHIFT
   Definitions
      At line 3756 in file MKL46Z4.s
   Uses
      None
Comment: TPM_CONF_TRGSEL_SHIFT unused
TPM_CnSC_CDMA_MASK 00000001

Symbol: TPM_CnSC_CDMA_MASK
   Definitions
      At line 3705 in file MKL46Z4.s
   Uses
      None
Comment: TPM_CnSC_CDMA_MASK unused



ARM Macro Assembler    Page 373 Alphabetic symbol ordering
Absolute symbols

TPM_CnSC_CDMA_SHIFT 00000000

Symbol: TPM_CnSC_CDMA_SHIFT
   Definitions
      At line 3706 in file MKL46Z4.s
   Uses
      None
Comment: TPM_CnSC_CDMA_SHIFT unused
TPM_CnSC_CHF_MASK 00000080

Symbol: TPM_CnSC_CHF_MASK
   Definitions
      At line 3693 in file MKL46Z4.s
   Uses
      None
Comment: TPM_CnSC_CHF_MASK unused
TPM_CnSC_CHF_SHIFT 00000007

Symbol: TPM_CnSC_CHF_SHIFT
   Definitions
      At line 3694 in file MKL46Z4.s
   Uses
      None
Comment: TPM_CnSC_CHF_SHIFT unused
TPM_CnSC_CHIE_MASK 00000040

Symbol: TPM_CnSC_CHIE_MASK
   Definitions
      At line 3695 in file MKL46Z4.s
   Uses
      None
Comment: TPM_CnSC_CHIE_MASK unused
TPM_CnSC_CHIE_SHIFT 00000006

Symbol: TPM_CnSC_CHIE_SHIFT
   Definitions
      At line 3696 in file MKL46Z4.s
   Uses
      None
Comment: TPM_CnSC_CHIE_SHIFT unused
TPM_CnSC_ELSA_MASK 00000004

Symbol: TPM_CnSC_ELSA_MASK
   Definitions
      At line 3703 in file MKL46Z4.s
   Uses
      None
Comment: TPM_CnSC_ELSA_MASK unused
TPM_CnSC_ELSA_SHIFT 00000002

Symbol: TPM_CnSC_ELSA_SHIFT
   Definitions
      At line 3704 in file MKL46Z4.s
   Uses
      None
Comment: TPM_CnSC_ELSA_SHIFT unused
TPM_CnSC_ELSB_MASK 00000008

Symbol: TPM_CnSC_ELSB_MASK



ARM Macro Assembler    Page 374 Alphabetic symbol ordering
Absolute symbols

   Definitions
      At line 3701 in file MKL46Z4.s
   Uses
      None
Comment: TPM_CnSC_ELSB_MASK unused
TPM_CnSC_ELSB_SHIFT 00000003

Symbol: TPM_CnSC_ELSB_SHIFT
   Definitions
      At line 3702 in file MKL46Z4.s
   Uses
      None
Comment: TPM_CnSC_ELSB_SHIFT unused
TPM_CnSC_MSA_MASK 00000010

Symbol: TPM_CnSC_MSA_MASK
   Definitions
      At line 3699 in file MKL46Z4.s
   Uses
      None
Comment: TPM_CnSC_MSA_MASK unused
TPM_CnSC_MSA_SHIFT 00000004

Symbol: TPM_CnSC_MSA_SHIFT
   Definitions
      At line 3700 in file MKL46Z4.s
   Uses
      None
Comment: TPM_CnSC_MSA_SHIFT unused
TPM_CnSC_MSB_MASK 00000020

Symbol: TPM_CnSC_MSB_MASK
   Definitions
      At line 3697 in file MKL46Z4.s
   Uses
      None
Comment: TPM_CnSC_MSB_MASK unused
TPM_CnSC_MSB_SHIFT 00000005

Symbol: TPM_CnSC_MSB_SHIFT
   Definitions
      At line 3698 in file MKL46Z4.s
   Uses
      None
Comment: TPM_CnSC_MSB_SHIFT unused
TPM_CnV_VAL_MASK 0000FFFF

Symbol: TPM_CnV_VAL_MASK
   Definitions
      At line 3711 in file MKL46Z4.s
   Uses
      None
Comment: TPM_CnV_VAL_MASK unused
TPM_CnV_VAL_SHIFT 00000000

Symbol: TPM_CnV_VAL_SHIFT
   Definitions
      At line 3712 in file MKL46Z4.s
   Uses



ARM Macro Assembler    Page 375 Alphabetic symbol ordering
Absolute symbols

      None
Comment: TPM_CnV_VAL_SHIFT unused
TPM_MOD_MOD_MASK 0000FFFF

Symbol: TPM_MOD_MOD_MASK
   Definitions
      At line 3773 in file MKL46Z4.s
   Uses
      None
Comment: TPM_MOD_MOD_MASK unused
TPM_MOD_MOD_SHIFT 0000FFFF

Symbol: TPM_MOD_MOD_SHIFT
   Definitions
      At line 3774 in file MKL46Z4.s
   Uses
      None
Comment: TPM_MOD_MOD_SHIFT unused
TPM_MOD_OFFSET 00000008

Symbol: TPM_MOD_OFFSET
   Definitions
      At line 3650 in file MKL46Z4.s
   Uses
      At line 3836 in file MKL46Z4.s
      At line 3856 in file MKL46Z4.s
      At line 3876 in file MKL46Z4.s

TPM_SC_CMOD_MASK 00000018

Symbol: TPM_SC_CMOD_MASK
   Definitions
      At line 3802 in file MKL46Z4.s
   Uses
      None
Comment: TPM_SC_CMOD_MASK unused
TPM_SC_CMOD_SHIFT 00000003

Symbol: TPM_SC_CMOD_SHIFT
   Definitions
      At line 3803 in file MKL46Z4.s
   Uses
      None
Comment: TPM_SC_CMOD_SHIFT unused
TPM_SC_CPWMS_MASK 00000020

Symbol: TPM_SC_CPWMS_MASK
   Definitions
      At line 3800 in file MKL46Z4.s
   Uses
      None
Comment: TPM_SC_CPWMS_MASK unused
TPM_SC_CPWMS_SHIFT 00000005

Symbol: TPM_SC_CPWMS_SHIFT
   Definitions
      At line 3801 in file MKL46Z4.s
   Uses
      None



ARM Macro Assembler    Page 376 Alphabetic symbol ordering
Absolute symbols

Comment: TPM_SC_CPWMS_SHIFT unused
TPM_SC_DMA_MASK 00000100

Symbol: TPM_SC_DMA_MASK
   Definitions
      At line 3794 in file MKL46Z4.s
   Uses
      None
Comment: TPM_SC_DMA_MASK unused
TPM_SC_DMA_SHIFT 00000008

Symbol: TPM_SC_DMA_SHIFT
   Definitions
      At line 3795 in file MKL46Z4.s
   Uses
      None
Comment: TPM_SC_DMA_SHIFT unused
TPM_SC_OFFSET 00000000

Symbol: TPM_SC_OFFSET
   Definitions
      At line 3648 in file MKL46Z4.s
   Uses
      At line 3834 in file MKL46Z4.s
      At line 3854 in file MKL46Z4.s
      At line 3874 in file MKL46Z4.s

TPM_SC_PS_MASK 00000007

Symbol: TPM_SC_PS_MASK
   Definitions
      At line 3804 in file MKL46Z4.s
   Uses
      None
Comment: TPM_SC_PS_MASK unused
TPM_SC_PS_SHIFT 00000000

Symbol: TPM_SC_PS_SHIFT
   Definitions
      At line 3805 in file MKL46Z4.s
   Uses
      None
Comment: TPM_SC_PS_SHIFT unused
TPM_SC_TOF_MASK 00000080

Symbol: TPM_SC_TOF_MASK
   Definitions
      At line 3796 in file MKL46Z4.s
   Uses
      None
Comment: TPM_SC_TOF_MASK unused
TPM_SC_TOF_SHIFT 00000007

Symbol: TPM_SC_TOF_SHIFT
   Definitions
      At line 3797 in file MKL46Z4.s
   Uses
      None
Comment: TPM_SC_TOF_SHIFT unused



ARM Macro Assembler    Page 377 Alphabetic symbol ordering
Absolute symbols

TPM_SC_TOIE_MASK 00000040

Symbol: TPM_SC_TOIE_MASK
   Definitions
      At line 3798 in file MKL46Z4.s
   Uses
      None
Comment: TPM_SC_TOIE_MASK unused
TPM_SC_TOIE_SHIFT 00000006

Symbol: TPM_SC_TOIE_SHIFT
   Definitions
      At line 3799 in file MKL46Z4.s
   Uses
      None
Comment: TPM_SC_TOIE_SHIFT unused
TPM_STATUS_CH0F_MASK 00000001

Symbol: TPM_STATUS_CH0F_MASK
   Definitions
      At line 3829 in file MKL46Z4.s
   Uses
      None
Comment: TPM_STATUS_CH0F_MASK unused
TPM_STATUS_CH0F_SHIFT 00000000

Symbol: TPM_STATUS_CH0F_SHIFT
   Definitions
      At line 3830 in file MKL46Z4.s
   Uses
      None
Comment: TPM_STATUS_CH0F_SHIFT unused
TPM_STATUS_CH1F_MASK 00000002

Symbol: TPM_STATUS_CH1F_MASK
   Definitions
      At line 3827 in file MKL46Z4.s
   Uses
      None
Comment: TPM_STATUS_CH1F_MASK unused
TPM_STATUS_CH1F_SHIFT 00000001

Symbol: TPM_STATUS_CH1F_SHIFT
   Definitions
      At line 3828 in file MKL46Z4.s
   Uses
      None
Comment: TPM_STATUS_CH1F_SHIFT unused
TPM_STATUS_CH2F_MASK 00000004

Symbol: TPM_STATUS_CH2F_MASK
   Definitions
      At line 3825 in file MKL46Z4.s
   Uses
      None
Comment: TPM_STATUS_CH2F_MASK unused
TPM_STATUS_CH2F_SHIFT 00000002

Symbol: TPM_STATUS_CH2F_SHIFT



ARM Macro Assembler    Page 378 Alphabetic symbol ordering
Absolute symbols

   Definitions
      At line 3826 in file MKL46Z4.s
   Uses
      None
Comment: TPM_STATUS_CH2F_SHIFT unused
TPM_STATUS_CH3F_MASK 00000008

Symbol: TPM_STATUS_CH3F_MASK
   Definitions
      At line 3823 in file MKL46Z4.s
   Uses
      None
Comment: TPM_STATUS_CH3F_MASK unused
TPM_STATUS_CH3F_SHIFT 00000003

Symbol: TPM_STATUS_CH3F_SHIFT
   Definitions
      At line 3824 in file MKL46Z4.s
   Uses
      None
Comment: TPM_STATUS_CH3F_SHIFT unused
TPM_STATUS_CH4F_MASK 00000010

Symbol: TPM_STATUS_CH4F_MASK
   Definitions
      At line 3821 in file MKL46Z4.s
   Uses
      None
Comment: TPM_STATUS_CH4F_MASK unused
TPM_STATUS_CH4F_SHIFT 00000004

Symbol: TPM_STATUS_CH4F_SHIFT
   Definitions
      At line 3822 in file MKL46Z4.s
   Uses
      None
Comment: TPM_STATUS_CH4F_SHIFT unused
TPM_STATUS_CH5F_MASK 00000020

Symbol: TPM_STATUS_CH5F_MASK
   Definitions
      At line 3819 in file MKL46Z4.s
   Uses
      None
Comment: TPM_STATUS_CH5F_MASK unused
TPM_STATUS_CH5F_SHIFT 00000005

Symbol: TPM_STATUS_CH5F_SHIFT
   Definitions
      At line 3820 in file MKL46Z4.s
   Uses
      None
Comment: TPM_STATUS_CH5F_SHIFT unused
TPM_STATUS_OFFSET 00000050

Symbol: TPM_STATUS_OFFSET
   Definitions
      At line 3663 in file MKL46Z4.s
   Uses



ARM Macro Assembler    Page 379 Alphabetic symbol ordering
Absolute symbols

      At line 3849 in file MKL46Z4.s
      At line 3869 in file MKL46Z4.s
      At line 3889 in file MKL46Z4.s

TPM_STATUS_TOF_MASK 00000100

Symbol: TPM_STATUS_TOF_MASK
   Definitions
      At line 3817 in file MKL46Z4.s
   Uses
      None
Comment: TPM_STATUS_TOF_MASK unused
TPM_STATUS_TOF_SHIFT 00000008

Symbol: TPM_STATUS_TOF_SHIFT
   Definitions
      At line 3818 in file MKL46Z4.s
   Uses
      None
Comment: TPM_STATUS_TOF_SHIFT unused
TSI0_IPR E000E418

Symbol: TSI0_IPR
   Definitions
      At line 2666 in file MKL46Z4.s
   Uses
      None
Comment: TSI0_IPR unused
TSI0_IRQ 0000001A

Symbol: TSI0_IRQ
   Definitions
      At line 2736 in file MKL46Z4.s
   Uses
      At line 2770 in file MKL46Z4.s
Comment: TSI0_IRQ used once
TSI0_IRQ_MASK 04000000

Symbol: TSI0_IRQ_MASK
   Definitions
      At line 2770 in file MKL46Z4.s
   Uses
      None
Comment: TSI0_IRQ_MASK unused
TSI0_IRQn 0000001A

Symbol: TSI0_IRQn
   Definitions
      At line 149 in file MKL46Z4.s
   Uses
      None
Comment: TSI0_IRQn unused
TSI0_PRI_POS 00000016

Symbol: TSI0_PRI_POS
   Definitions
      At line 2702 in file MKL46Z4.s
   Uses
      None



ARM Macro Assembler    Page 380 Alphabetic symbol ordering
Absolute symbols

Comment: TSI0_PRI_POS unused
TSI0_Vector 0000002A

Symbol: TSI0_Vector
   Definitions
      At line 2820 in file MKL46Z4.s
   Uses
      None
Comment: TSI0_Vector unused
UART0_BASE 4006A000

Symbol: UART0_BASE
   Definitions
      At line 3893 in file MKL46Z4.s
   Uses
      At line 3906 in file MKL46Z4.s
      At line 3907 in file MKL46Z4.s
      At line 3908 in file MKL46Z4.s
      At line 3909 in file MKL46Z4.s
      At line 3910 in file MKL46Z4.s
      At line 3911 in file MKL46Z4.s
      At line 3912 in file MKL46Z4.s
      At line 3913 in file MKL46Z4.s
      At line 3914 in file MKL46Z4.s
      At line 3915 in file MKL46Z4.s
      At line 3916 in file MKL46Z4.s
      At line 3917 in file MKL46Z4.s
      At line 4070 in file test.s
      At line 4109 in file test.s
      At line 4129 in file test.s

UART0_BDH 4006A000

Symbol: UART0_BDH
   Definitions
      At line 3906 in file MKL46Z4.s
   Uses
      None
Comment: UART0_BDH unused
UART0_BDH_9600 00000001

Symbol: UART0_BDH_9600
   Definitions
      At line 75 in file test.s
   Uses
      At line 4077 in file test.s
Comment: UART0_BDH_9600 used once
UART0_BDH_LBKDIE_MASK 00000080

Symbol: UART0_BDH_LBKDIE_MASK
   Definitions
      At line 3924 in file MKL46Z4.s
   Uses
      None
Comment: UART0_BDH_LBKDIE_MASK unused
UART0_BDH_LBKDIE_SHIFT 00000007

Symbol: UART0_BDH_LBKDIE_SHIFT
   Definitions



ARM Macro Assembler    Page 381 Alphabetic symbol ordering
Absolute symbols

      At line 3925 in file MKL46Z4.s
   Uses
      None
Comment: UART0_BDH_LBKDIE_SHIFT unused
UART0_BDH_OFFSET 00000000

Symbol: UART0_BDH_OFFSET
   Definitions
      At line 3894 in file MKL46Z4.s
   Uses
      At line 3906 in file MKL46Z4.s
      At line 4078 in file test.s

UART0_BDH_RXEDGIE_MASK 00000040

Symbol: UART0_BDH_RXEDGIE_MASK
   Definitions
      At line 3926 in file MKL46Z4.s
   Uses
      None
Comment: UART0_BDH_RXEDGIE_MASK unused
UART0_BDH_RXEDGIE_SHIFT 00000006

Symbol: UART0_BDH_RXEDGIE_SHIFT
   Definitions
      At line 3927 in file MKL46Z4.s
   Uses
      None
Comment: UART0_BDH_RXEDGIE_SHIFT unused
UART0_BDH_SBNS_MASK 00000020

Symbol: UART0_BDH_SBNS_MASK
   Definitions
      At line 3928 in file MKL46Z4.s
   Uses
      None
Comment: UART0_BDH_SBNS_MASK unused
UART0_BDH_SBNS_SHIFT 00000005

Symbol: UART0_BDH_SBNS_SHIFT
   Definitions
      At line 3929 in file MKL46Z4.s
   Uses
      None
Comment: UART0_BDH_SBNS_SHIFT unused
UART0_BDH_SBR_MASK 0000001F

Symbol: UART0_BDH_SBR_MASK
   Definitions
      At line 3930 in file MKL46Z4.s
   Uses
      None
Comment: UART0_BDH_SBR_MASK unused
UART0_BDH_SBR_SHIFT 00000000

Symbol: UART0_BDH_SBR_SHIFT
   Definitions
      At line 3931 in file MKL46Z4.s
   Uses



ARM Macro Assembler    Page 382 Alphabetic symbol ordering
Absolute symbols

      None
Comment: UART0_BDH_SBR_SHIFT unused
UART0_BDL 4006A001

Symbol: UART0_BDL
   Definitions
      At line 3907 in file MKL46Z4.s
   Uses
      None
Comment: UART0_BDL unused
UART0_BDL_9600 00000038

Symbol: UART0_BDL_9600
   Definitions
      At line 83 in file test.s
   Uses
      At line 4079 in file test.s
Comment: UART0_BDL_9600 used once
UART0_BDL_OFFSET 00000001

Symbol: UART0_BDL_OFFSET
   Definitions
      At line 3895 in file MKL46Z4.s
   Uses
      At line 3907 in file MKL46Z4.s
      At line 4080 in file test.s

UART0_BDL_SBR_MASK 000000FF

Symbol: UART0_BDL_SBR_MASK
   Definitions
      At line 3935 in file MKL46Z4.s
   Uses
      None
Comment: UART0_BDL_SBR_MASK unused
UART0_BDL_SBR_SHIFT 00000000

Symbol: UART0_BDL_SBR_SHIFT
   Definitions
      At line 3936 in file MKL46Z4.s
   Uses
      None
Comment: UART0_BDL_SBR_SHIFT unused
UART0_C1 4006A002

Symbol: UART0_C1
   Definitions
      At line 3908 in file MKL46Z4.s
   Uses
      None
Comment: UART0_C1 unused
UART0_C1_8N1 00000000

Symbol: UART0_C1_8N1
   Definitions
      At line 95 in file test.s
   Uses
      At line 4081 in file test.s
Comment: UART0_C1_8N1 used once



ARM Macro Assembler    Page 383 Alphabetic symbol ordering
Absolute symbols

UART0_C1_DOZEEN_MASK 00000040

Symbol: UART0_C1_DOZEEN_MASK
   Definitions
      At line 3949 in file MKL46Z4.s
   Uses
      None
Comment: UART0_C1_DOZEEN_MASK unused
UART0_C1_DOZEEN_SHIFT 00000006

Symbol: UART0_C1_DOZEEN_SHIFT
   Definitions
      At line 3950 in file MKL46Z4.s
   Uses
      None
Comment: UART0_C1_DOZEEN_SHIFT unused
UART0_C1_ILT_MASK 00000004

Symbol: UART0_C1_ILT_MASK
   Definitions
      At line 3957 in file MKL46Z4.s
   Uses
      None
Comment: UART0_C1_ILT_MASK unused
UART0_C1_ILT_SHIFT 00000002

Symbol: UART0_C1_ILT_SHIFT
   Definitions
      At line 3958 in file MKL46Z4.s
   Uses
      None
Comment: UART0_C1_ILT_SHIFT unused
UART0_C1_LOOPS_MASK 00000080

Symbol: UART0_C1_LOOPS_MASK
   Definitions
      At line 3947 in file MKL46Z4.s
   Uses
      None
Comment: UART0_C1_LOOPS_MASK unused
UART0_C1_LOOPS_SHIFT 00000007

Symbol: UART0_C1_LOOPS_SHIFT
   Definitions
      At line 3948 in file MKL46Z4.s
   Uses
      None
Comment: UART0_C1_LOOPS_SHIFT unused
UART0_C1_M_MASK 00000010

Symbol: UART0_C1_M_MASK
   Definitions
      At line 3953 in file MKL46Z4.s
   Uses
      None
Comment: UART0_C1_M_MASK unused
UART0_C1_M_SHIFT 00000004

Symbol: UART0_C1_M_SHIFT



ARM Macro Assembler    Page 384 Alphabetic symbol ordering
Absolute symbols

   Definitions
      At line 3954 in file MKL46Z4.s
   Uses
      None
Comment: UART0_C1_M_SHIFT unused
UART0_C1_OFFSET 00000002

Symbol: UART0_C1_OFFSET
   Definitions
      At line 3896 in file MKL46Z4.s
   Uses
      At line 3908 in file MKL46Z4.s
      At line 4082 in file test.s

UART0_C1_PE_MASK 00000002

Symbol: UART0_C1_PE_MASK
   Definitions
      At line 3959 in file MKL46Z4.s
   Uses
      None
Comment: UART0_C1_PE_MASK unused
UART0_C1_PE_SHIFT 00000001

Symbol: UART0_C1_PE_SHIFT
   Definitions
      At line 3960 in file MKL46Z4.s
   Uses
      None
Comment: UART0_C1_PE_SHIFT unused
UART0_C1_PT_MASK 00000001

Symbol: UART0_C1_PT_MASK
   Definitions
      At line 3961 in file MKL46Z4.s
   Uses
      None
Comment: UART0_C1_PT_MASK unused
UART0_C1_PT_SHIFT 00000000

Symbol: UART0_C1_PT_SHIFT
   Definitions
      At line 3962 in file MKL46Z4.s
   Uses
      None
Comment: UART0_C1_PT_SHIFT unused
UART0_C1_RSRC_MASK 00000020

Symbol: UART0_C1_RSRC_MASK
   Definitions
      At line 3951 in file MKL46Z4.s
   Uses
      None
Comment: UART0_C1_RSRC_MASK unused
UART0_C1_RSRC_SHIFT 00000005

Symbol: UART0_C1_RSRC_SHIFT
   Definitions
      At line 3952 in file MKL46Z4.s



ARM Macro Assembler    Page 385 Alphabetic symbol ordering
Absolute symbols

   Uses
      None
Comment: UART0_C1_RSRC_SHIFT unused
UART0_C1_WAKE_MASK 00000008

Symbol: UART0_C1_WAKE_MASK
   Definitions
      At line 3955 in file MKL46Z4.s
   Uses
      None
Comment: UART0_C1_WAKE_MASK unused
UART0_C1_WAKE_SHIFT 00000003

Symbol: UART0_C1_WAKE_SHIFT
   Definitions
      At line 3956 in file MKL46Z4.s
   Uses
      None
Comment: UART0_C1_WAKE_SHIFT unused
UART0_C2 4006A003

Symbol: UART0_C2
   Definitions
      At line 3909 in file MKL46Z4.s
   Uses
      None
Comment: UART0_C2 unused
UART0_C2_ILIE_MASK 00000010

Symbol: UART0_C2_ILIE_MASK
   Definitions
      At line 3979 in file MKL46Z4.s
   Uses
      None
Comment: UART0_C2_ILIE_MASK unused
UART0_C2_ILIE_SHIFT 00000004

Symbol: UART0_C2_ILIE_SHIFT
   Definitions
      At line 3980 in file MKL46Z4.s
   Uses
      None
Comment: UART0_C2_ILIE_SHIFT unused
UART0_C2_OFFSET 00000003

Symbol: UART0_C2_OFFSET
   Definitions
      At line 3897 in file MKL46Z4.s
   Uses
      At line 3909 in file MKL46Z4.s
      At line 4072 in file test.s
      At line 4074 in file test.s
      At line 4096 in file test.s

UART0_C2_RE_MASK 00000004

Symbol: UART0_C2_RE_MASK
   Definitions
      At line 3983 in file MKL46Z4.s



ARM Macro Assembler    Page 386 Alphabetic symbol ordering
Absolute symbols

   Uses
      At line 106 in file test.s
Comment: UART0_C2_RE_MASK used once
UART0_C2_RE_SHIFT 00000002

Symbol: UART0_C2_RE_SHIFT
   Definitions
      At line 3984 in file MKL46Z4.s
   Uses
      None
Comment: UART0_C2_RE_SHIFT unused
UART0_C2_RIE_MASK 00000020

Symbol: UART0_C2_RIE_MASK
   Definitions
      At line 3977 in file MKL46Z4.s
   Uses
      None
Comment: UART0_C2_RIE_MASK unused
UART0_C2_RIE_SHIFT 00000005

Symbol: UART0_C2_RIE_SHIFT
   Definitions
      At line 3978 in file MKL46Z4.s
   Uses
      None
Comment: UART0_C2_RIE_SHIFT unused
UART0_C2_RWU_MASK 00000002

Symbol: UART0_C2_RWU_MASK
   Definitions
      At line 3985 in file MKL46Z4.s
   Uses
      None
Comment: UART0_C2_RWU_MASK unused
UART0_C2_RWU_SHIFT 00000001

Symbol: UART0_C2_RWU_SHIFT
   Definitions
      At line 3986 in file MKL46Z4.s
   Uses
      None
Comment: UART0_C2_RWU_SHIFT unused
UART0_C2_SBK_MASK 00000001

Symbol: UART0_C2_SBK_MASK
   Definitions
      At line 3987 in file MKL46Z4.s
   Uses
      None
Comment: UART0_C2_SBK_MASK unused
UART0_C2_SBK_SHIFT 00000000

Symbol: UART0_C2_SBK_SHIFT
   Definitions
      At line 3988 in file MKL46Z4.s
   Uses
      None
Comment: UART0_C2_SBK_SHIFT unused



ARM Macro Assembler    Page 387 Alphabetic symbol ordering
Absolute symbols

UART0_C2_TCIE_MASK 00000040

Symbol: UART0_C2_TCIE_MASK
   Definitions
      At line 3975 in file MKL46Z4.s
   Uses
      None
Comment: UART0_C2_TCIE_MASK unused
UART0_C2_TCIE_SHIFT 00000006

Symbol: UART0_C2_TCIE_SHIFT
   Definitions
      At line 3976 in file MKL46Z4.s
   Uses
      None
Comment: UART0_C2_TCIE_SHIFT unused
UART0_C2_TE_MASK 00000008

Symbol: UART0_C2_TE_MASK
   Definitions
      At line 3981 in file MKL46Z4.s
   Uses
      At line 106 in file test.s
Comment: UART0_C2_TE_MASK used once
UART0_C2_TE_SHIFT 00000003

Symbol: UART0_C2_TE_SHIFT
   Definitions
      At line 3982 in file MKL46Z4.s
   Uses
      None
Comment: UART0_C2_TE_SHIFT unused
UART0_C2_TIE_MASK 00000080

Symbol: UART0_C2_TIE_MASK
   Definitions
      At line 3973 in file MKL46Z4.s
   Uses
      None
Comment: UART0_C2_TIE_MASK unused
UART0_C2_TIE_SHIFT 00000007

Symbol: UART0_C2_TIE_SHIFT
   Definitions
      At line 3974 in file MKL46Z4.s
   Uses
      None
Comment: UART0_C2_TIE_SHIFT unused
UART0_C2_T_R 0000000C

Symbol: UART0_C2_T_R
   Definitions
      At line 106 in file test.s
   Uses
      At line 4071 in file test.s
      At line 4095 in file test.s

UART0_C3 4006A006




ARM Macro Assembler    Page 388 Alphabetic symbol ordering
Absolute symbols

Symbol: UART0_C3
   Definitions
      At line 3912 in file MKL46Z4.s
   Uses
      None
Comment: UART0_C3 unused
UART0_C3_FEIE_MASK 00000002

Symbol: UART0_C3_FEIE_MASK
   Definitions
      At line 4012 in file MKL46Z4.s
   Uses
      None
Comment: UART0_C3_FEIE_MASK unused
UART0_C3_FEIE_SHIFT 00000001

Symbol: UART0_C3_FEIE_SHIFT
   Definitions
      At line 4013 in file MKL46Z4.s
   Uses
      None
Comment: UART0_C3_FEIE_SHIFT unused
UART0_C3_NEIE_MASK 00000004

Symbol: UART0_C3_NEIE_MASK
   Definitions
      At line 4010 in file MKL46Z4.s
   Uses
      None
Comment: UART0_C3_NEIE_MASK unused
UART0_C3_NEIE_SHIFT 00000002

Symbol: UART0_C3_NEIE_SHIFT
   Definitions
      At line 4011 in file MKL46Z4.s
   Uses
      None
Comment: UART0_C3_NEIE_SHIFT unused
UART0_C3_NO_TXINV 00000000

Symbol: UART0_C3_NO_TXINV
   Definitions
      At line 120 in file test.s
   Uses
      At line 4083 in file test.s
Comment: UART0_C3_NO_TXINV used once
UART0_C3_OFFSET 00000006

Symbol: UART0_C3_OFFSET
   Definitions
      At line 3900 in file MKL46Z4.s
   Uses
      At line 3912 in file MKL46Z4.s
      At line 4084 in file test.s

UART0_C3_ORIE_MASK 00000008

Symbol: UART0_C3_ORIE_MASK
   Definitions



ARM Macro Assembler    Page 389 Alphabetic symbol ordering
Absolute symbols

      At line 4008 in file MKL46Z4.s
   Uses
      None
Comment: UART0_C3_ORIE_MASK unused
UART0_C3_ORIE_SHIFT 00000003

Symbol: UART0_C3_ORIE_SHIFT
   Definitions
      At line 4009 in file MKL46Z4.s
   Uses
      None
Comment: UART0_C3_ORIE_SHIFT unused
UART0_C3_PEIE_MASK 00000001

Symbol: UART0_C3_PEIE_MASK
   Definitions
      At line 4014 in file MKL46Z4.s
   Uses
      None
Comment: UART0_C3_PEIE_MASK unused
UART0_C3_PEIE_SHIFT 00000000

Symbol: UART0_C3_PEIE_SHIFT
   Definitions
      At line 4015 in file MKL46Z4.s
   Uses
      None
Comment: UART0_C3_PEIE_SHIFT unused
UART0_C3_R8T9_MASK 00000080

Symbol: UART0_C3_R8T9_MASK
   Definitions
      At line 4000 in file MKL46Z4.s
   Uses
      None
Comment: UART0_C3_R8T9_MASK unused
UART0_C3_R8T9_SHIFT 00000007

Symbol: UART0_C3_R8T9_SHIFT
   Definitions
      At line 4001 in file MKL46Z4.s
   Uses
      None
Comment: UART0_C3_R8T9_SHIFT unused
UART0_C3_R9T8_MASK 00000040

Symbol: UART0_C3_R9T8_MASK
   Definitions
      At line 4002 in file MKL46Z4.s
   Uses
      None
Comment: UART0_C3_R9T8_MASK unused
UART0_C3_R9T8_SHIFT 00000006

Symbol: UART0_C3_R9T8_SHIFT
   Definitions
      At line 4003 in file MKL46Z4.s
   Uses
      None



ARM Macro Assembler    Page 390 Alphabetic symbol ordering
Absolute symbols

Comment: UART0_C3_R9T8_SHIFT unused
UART0_C3_TXDIR_MASK 00000020

Symbol: UART0_C3_TXDIR_MASK
   Definitions
      At line 4004 in file MKL46Z4.s
   Uses
      None
Comment: UART0_C3_TXDIR_MASK unused
UART0_C3_TXDIR_SHIFT 00000005

Symbol: UART0_C3_TXDIR_SHIFT
   Definitions
      At line 4005 in file MKL46Z4.s
   Uses
      None
Comment: UART0_C3_TXDIR_SHIFT unused
UART0_C3_TXINV_MASK 00000010

Symbol: UART0_C3_TXINV_MASK
   Definitions
      At line 4006 in file MKL46Z4.s
   Uses
      None
Comment: UART0_C3_TXINV_MASK unused
UART0_C3_TXINV_SHIFT 00000004

Symbol: UART0_C3_TXINV_SHIFT
   Definitions
      At line 4007 in file MKL46Z4.s
   Uses
      None
Comment: UART0_C3_TXINV_SHIFT unused
UART0_C4 4006A00A

Symbol: UART0_C4
   Definitions
      At line 3916 in file MKL46Z4.s
   Uses
      None
Comment: UART0_C4 unused
UART0_C4_M10_MASK 00000020

Symbol: UART0_C4_M10_MASK
   Definitions
      At line 4028 in file MKL46Z4.s
   Uses
      None
Comment: UART0_C4_M10_MASK unused
UART0_C4_M10_SHIFT 00000005

Symbol: UART0_C4_M10_SHIFT
   Definitions
      At line 4029 in file MKL46Z4.s
   Uses
      None
Comment: UART0_C4_M10_SHIFT unused
UART0_C4_MAEN1_MASK 00000080




ARM Macro Assembler    Page 391 Alphabetic symbol ordering
Absolute symbols

Symbol: UART0_C4_MAEN1_MASK
   Definitions
      At line 4024 in file MKL46Z4.s
   Uses
      None
Comment: UART0_C4_MAEN1_MASK unused
UART0_C4_MAEN1_SHIFT 00000007

Symbol: UART0_C4_MAEN1_SHIFT
   Definitions
      At line 4025 in file MKL46Z4.s
   Uses
      None
Comment: UART0_C4_MAEN1_SHIFT unused
UART0_C4_MAEN2_MASK 00000040

Symbol: UART0_C4_MAEN2_MASK
   Definitions
      At line 4026 in file MKL46Z4.s
   Uses
      None
Comment: UART0_C4_MAEN2_MASK unused
UART0_C4_MAEN2_SHIFT 00000006

Symbol: UART0_C4_MAEN2_SHIFT
   Definitions
      At line 4027 in file MKL46Z4.s
   Uses
      None
Comment: UART0_C4_MAEN2_SHIFT unused
UART0_C4_NO_MATCH_OSR_16 0000000F

Symbol: UART0_C4_NO_MATCH_OSR_16
   Definitions
      At line 130 in file test.s
   Uses
      At line 4085 in file test.s
Comment: UART0_C4_NO_MATCH_OSR_16 used once
UART0_C4_OFFSET 0000000A

Symbol: UART0_C4_OFFSET
   Definitions
      At line 3904 in file MKL46Z4.s
   Uses
      At line 3916 in file MKL46Z4.s
      At line 4086 in file test.s

UART0_C4_OSR_16 0000000F

Symbol: UART0_C4_OSR_16
   Definitions
      At line 129 in file test.s
   Uses
      At line 130 in file test.s
Comment: UART0_C4_OSR_16 used once
UART0_C4_OSR_MASK 0000001F

Symbol: UART0_C4_OSR_MASK
   Definitions



ARM Macro Assembler    Page 392 Alphabetic symbol ordering
Absolute symbols

      At line 4030 in file MKL46Z4.s
   Uses
      None
Comment: UART0_C4_OSR_MASK unused
UART0_C4_OSR_SHIFT 00000000

Symbol: UART0_C4_OSR_SHIFT
   Definitions
      At line 4031 in file MKL46Z4.s
   Uses
      None
Comment: UART0_C4_OSR_SHIFT unused
UART0_C5 4006A00B

Symbol: UART0_C5
   Definitions
      At line 3917 in file MKL46Z4.s
   Uses
      None
Comment: UART0_C5 unused
UART0_C5_BOTHEDGE_MASK 00000002

Symbol: UART0_C5_BOTHEDGE_MASK
   Definitions
      At line 4044 in file MKL46Z4.s
   Uses
      None
Comment: UART0_C5_BOTHEDGE_MASK unused
UART0_C5_BOTHEDGE_SHIFT 00000001

Symbol: UART0_C5_BOTHEDGE_SHIFT
   Definitions
      At line 4045 in file MKL46Z4.s
   Uses
      None
Comment: UART0_C5_BOTHEDGE_SHIFT unused
UART0_C5_NO_DMA_SSR_SYNC 00000000

Symbol: UART0_C5_NO_DMA_SSR_SYNC
   Definitions
      At line 139 in file test.s
   Uses
      At line 4087 in file test.s
Comment: UART0_C5_NO_DMA_SSR_SYNC used once
UART0_C5_OFFSET 0000000B

Symbol: UART0_C5_OFFSET
   Definitions
      At line 3905 in file MKL46Z4.s
   Uses
      At line 3917 in file MKL46Z4.s
      At line 4088 in file test.s

UART0_C5_RDMAE_MASK 00000020

Symbol: UART0_C5_RDMAE_MASK
   Definitions
      At line 4042 in file MKL46Z4.s
   Uses



ARM Macro Assembler    Page 393 Alphabetic symbol ordering
Absolute symbols

      None
Comment: UART0_C5_RDMAE_MASK unused
UART0_C5_RDMAE_SHIFT 00000005

Symbol: UART0_C5_RDMAE_SHIFT
   Definitions
      At line 4043 in file MKL46Z4.s
   Uses
      None
Comment: UART0_C5_RDMAE_SHIFT unused
UART0_C5_RESYNCDIS_MASK 00000001

Symbol: UART0_C5_RESYNCDIS_MASK
   Definitions
      At line 4046 in file MKL46Z4.s
   Uses
      None
Comment: UART0_C5_RESYNCDIS_MASK unused
UART0_C5_RESYNCDIS_SHIFT 00000000

Symbol: UART0_C5_RESYNCDIS_SHIFT
   Definitions
      At line 4047 in file MKL46Z4.s
   Uses
      None
Comment: UART0_C5_RESYNCDIS_SHIFT unused
UART0_C5_TDMAE_MASK 00000080

Symbol: UART0_C5_TDMAE_MASK
   Definitions
      At line 4040 in file MKL46Z4.s
   Uses
      None
Comment: UART0_C5_TDMAE_MASK unused
UART0_C5_TDMAE_SHIFT 00000007

Symbol: UART0_C5_TDMAE_SHIFT
   Definitions
      At line 4041 in file MKL46Z4.s
   Uses
      None
Comment: UART0_C5_TDMAE_SHIFT unused
UART0_D 4006A007

Symbol: UART0_D
   Definitions
      At line 3913 in file MKL46Z4.s
   Uses
      None
Comment: UART0_D unused
UART0_D_OFFSET 00000007

Symbol: UART0_D_OFFSET
   Definitions
      At line 3901 in file MKL46Z4.s
   Uses
      At line 3913 in file MKL46Z4.s
      At line 4116 in file test.s
      At line 4137 in file test.s



ARM Macro Assembler    Page 394 Alphabetic symbol ordering
Absolute symbols


UART0_D_R0T0_MASK 00000001

Symbol: UART0_D_R0T0_MASK
   Definitions
      At line 4080 in file MKL46Z4.s
   Uses
      None
Comment: UART0_D_R0T0_MASK unused
UART0_D_R0T0_SHIFT 00000000

Symbol: UART0_D_R0T0_SHIFT
   Definitions
      At line 4081 in file MKL46Z4.s
   Uses
      None
Comment: UART0_D_R0T0_SHIFT unused
UART0_D_R1T1_MASK 00000002

Symbol: UART0_D_R1T1_MASK
   Definitions
      At line 4078 in file MKL46Z4.s
   Uses
      None
Comment: UART0_D_R1T1_MASK unused
UART0_D_R1T1_SHIFT 00000001

Symbol: UART0_D_R1T1_SHIFT
   Definitions
      At line 4079 in file MKL46Z4.s
   Uses
      None
Comment: UART0_D_R1T1_SHIFT unused
UART0_D_R2T2_MASK 00000004

Symbol: UART0_D_R2T2_MASK
   Definitions
      At line 4076 in file MKL46Z4.s
   Uses
      None
Comment: UART0_D_R2T2_MASK unused
UART0_D_R2T2_SHIFT 00000002

Symbol: UART0_D_R2T2_SHIFT
   Definitions
      At line 4077 in file MKL46Z4.s
   Uses
      None
Comment: UART0_D_R2T2_SHIFT unused
UART0_D_R3T3_MASK 00000008

Symbol: UART0_D_R3T3_MASK
   Definitions
      At line 4074 in file MKL46Z4.s
   Uses
      None
Comment: UART0_D_R3T3_MASK unused
UART0_D_R3T3_SHIFT 00000003




ARM Macro Assembler    Page 395 Alphabetic symbol ordering
Absolute symbols

Symbol: UART0_D_R3T3_SHIFT
   Definitions
      At line 4075 in file MKL46Z4.s
   Uses
      None
Comment: UART0_D_R3T3_SHIFT unused
UART0_D_R4T4_MASK 00000010

Symbol: UART0_D_R4T4_MASK
   Definitions
      At line 4072 in file MKL46Z4.s
   Uses
      None
Comment: UART0_D_R4T4_MASK unused
UART0_D_R4T4_SHIFT 00000004

Symbol: UART0_D_R4T4_SHIFT
   Definitions
      At line 4073 in file MKL46Z4.s
   Uses
      None
Comment: UART0_D_R4T4_SHIFT unused
UART0_D_R5T5_MASK 00000020

Symbol: UART0_D_R5T5_MASK
   Definitions
      At line 4070 in file MKL46Z4.s
   Uses
      None
Comment: UART0_D_R5T5_MASK unused
UART0_D_R5T5_SHIFT 00000005

Symbol: UART0_D_R5T5_SHIFT
   Definitions
      At line 4071 in file MKL46Z4.s
   Uses
      None
Comment: UART0_D_R5T5_SHIFT unused
UART0_D_R6T6_MASK 00000040

Symbol: UART0_D_R6T6_MASK
   Definitions
      At line 4068 in file MKL46Z4.s
   Uses
      None
Comment: UART0_D_R6T6_MASK unused
UART0_D_R6T6_SHIFT 00000006

Symbol: UART0_D_R6T6_SHIFT
   Definitions
      At line 4069 in file MKL46Z4.s
   Uses
      None
Comment: UART0_D_R6T6_SHIFT unused
UART0_D_R7T7_MASK 00000080

Symbol: UART0_D_R7T7_MASK
   Definitions
      At line 4066 in file MKL46Z4.s



ARM Macro Assembler    Page 396 Alphabetic symbol ordering
Absolute symbols

   Uses
      None
Comment: UART0_D_R7T7_MASK unused
UART0_D_R7T7_SHIFT 00000007

Symbol: UART0_D_R7T7_SHIFT
   Definitions
      At line 4067 in file MKL46Z4.s
   Uses
      None
Comment: UART0_D_R7T7_SHIFT unused
UART0_IPR E000E40C

Symbol: UART0_IPR
   Definitions
      At line 2652 in file MKL46Z4.s
   Uses
      None
Comment: UART0_IPR unused
UART0_IRQ 0000000C

Symbol: UART0_IRQ
   Definitions
      At line 2722 in file MKL46Z4.s
   Uses
      At line 2756 in file MKL46Z4.s
Comment: UART0_IRQ used once
UART0_IRQ_MASK 00001000

Symbol: UART0_IRQ_MASK
   Definitions
      At line 2756 in file MKL46Z4.s
   Uses
      None
Comment: UART0_IRQ_MASK unused
UART0_IRQn 0000000C

Symbol: UART0_IRQn
   Definitions
      At line 135 in file MKL46Z4.s
   Uses
      None
Comment: UART0_IRQn unused
UART0_MA1 4006A008

Symbol: UART0_MA1
   Definitions
      At line 3914 in file MKL46Z4.s
   Uses
      None
Comment: UART0_MA1 unused
UART0_MA1_MA_MASK 000000FF

Symbol: UART0_MA1_MA_MASK
   Definitions
      At line 4085 in file MKL46Z4.s
   Uses
      None
Comment: UART0_MA1_MA_MASK unused



ARM Macro Assembler    Page 397 Alphabetic symbol ordering
Absolute symbols

UART0_MA1_MA_SHIFT 00000000

Symbol: UART0_MA1_MA_SHIFT
   Definitions
      At line 4086 in file MKL46Z4.s
   Uses
      None
Comment: UART0_MA1_MA_SHIFT unused
UART0_MA1_OFFSET 00000008

Symbol: UART0_MA1_OFFSET
   Definitions
      At line 3902 in file MKL46Z4.s
   Uses
      At line 3914 in file MKL46Z4.s
Comment: UART0_MA1_OFFSET used once
UART0_MA2 4006A009

Symbol: UART0_MA2
   Definitions
      At line 3915 in file MKL46Z4.s
   Uses
      None
Comment: UART0_MA2 unused
UART0_MA2_MA_MASK 000000FF

Symbol: UART0_MA2_MA_MASK
   Definitions
      At line 4090 in file MKL46Z4.s
   Uses
      None
Comment: UART0_MA2_MA_MASK unused
UART0_MA2_MA_SHIFT 00000000

Symbol: UART0_MA2_MA_SHIFT
   Definitions
      At line 4091 in file MKL46Z4.s
   Uses
      None
Comment: UART0_MA2_MA_SHIFT unused
UART0_MA2_OFFSET 00000009

Symbol: UART0_MA2_OFFSET
   Definitions
      At line 3903 in file MKL46Z4.s
   Uses
      At line 3915 in file MKL46Z4.s
Comment: UART0_MA2_OFFSET used once
UART0_PRI_POS 00000006

Symbol: UART0_PRI_POS
   Definitions
      At line 2688 in file MKL46Z4.s
   Uses
      None
Comment: UART0_PRI_POS unused
UART0_S1 4006A004

Symbol: UART0_S1



ARM Macro Assembler    Page 398 Alphabetic symbol ordering
Absolute symbols

   Definitions
      At line 3910 in file MKL46Z4.s
   Uses
      None
Comment: UART0_S1 unused
UART0_S1_CLEAR_FLAGS 0000001F

Symbol: UART0_S1_CLEAR_FLAGS
   Definitions
      At line 150 in file test.s
   Uses
      At line 4089 in file test.s
Comment: UART0_S1_CLEAR_FLAGS used once
UART0_S1_FE_MASK 00000002

Symbol: UART0_S1_FE_MASK
   Definitions
      At line 4114 in file MKL46Z4.s
   Uses
      None
Comment: UART0_S1_FE_MASK unused
UART0_S1_FE_SHIFT 00000001

Symbol: UART0_S1_FE_SHIFT
   Definitions
      At line 4115 in file MKL46Z4.s
   Uses
      None
Comment: UART0_S1_FE_SHIFT unused
UART0_S1_IDLE_MASK 00000010

Symbol: UART0_S1_IDLE_MASK
   Definitions
      At line 4108 in file MKL46Z4.s
   Uses
      None
Comment: UART0_S1_IDLE_MASK unused
UART0_S1_IDLE_SHIFT 00000004

Symbol: UART0_S1_IDLE_SHIFT
   Definitions
      At line 4109 in file MKL46Z4.s
   Uses
      None
Comment: UART0_S1_IDLE_SHIFT unused
UART0_S1_NF_MASK 00000004

Symbol: UART0_S1_NF_MASK
   Definitions
      At line 4112 in file MKL46Z4.s
   Uses
      None
Comment: UART0_S1_NF_MASK unused
UART0_S1_NF_SHIFT 00000002

Symbol: UART0_S1_NF_SHIFT
   Definitions
      At line 4113 in file MKL46Z4.s
   Uses



ARM Macro Assembler    Page 399 Alphabetic symbol ordering
Absolute symbols

      None
Comment: UART0_S1_NF_SHIFT unused
UART0_S1_OFFSET 00000004

Symbol: UART0_S1_OFFSET
   Definitions
      At line 3898 in file MKL46Z4.s
   Uses
      At line 3910 in file MKL46Z4.s
      At line 4090 in file test.s
      At line 4111 in file test.s
      At line 4132 in file test.s

UART0_S1_OR_MASK 00000008

Symbol: UART0_S1_OR_MASK
   Definitions
      At line 4110 in file MKL46Z4.s
   Uses
      None
Comment: UART0_S1_OR_MASK unused
UART0_S1_OR_SHIFT 00000003

Symbol: UART0_S1_OR_SHIFT
   Definitions
      At line 4111 in file MKL46Z4.s
   Uses
      None
Comment: UART0_S1_OR_SHIFT unused
UART0_S1_PF_MASK 00000001

Symbol: UART0_S1_PF_MASK
   Definitions
      At line 4116 in file MKL46Z4.s
   Uses
      None
Comment: UART0_S1_PF_MASK unused
UART0_S1_PF_SHIFT 00000000

Symbol: UART0_S1_PF_SHIFT
   Definitions
      At line 4117 in file MKL46Z4.s
   Uses
      None
Comment: UART0_S1_PF_SHIFT unused
UART0_S1_RDRF_MASK 00000020

Symbol: UART0_S1_RDRF_MASK
   Definitions
      At line 4106 in file MKL46Z4.s
   Uses
      At line 4130 in file test.s
Comment: UART0_S1_RDRF_MASK used once
UART0_S1_RDRF_SHIFT 00000005

Symbol: UART0_S1_RDRF_SHIFT
   Definitions
      At line 4107 in file MKL46Z4.s
   Uses



ARM Macro Assembler    Page 400 Alphabetic symbol ordering
Absolute symbols

      None
Comment: UART0_S1_RDRF_SHIFT unused
UART0_S1_TC_MASK 00000040

Symbol: UART0_S1_TC_MASK
   Definitions
      At line 4104 in file MKL46Z4.s
   Uses
      None
Comment: UART0_S1_TC_MASK unused
UART0_S1_TC_SHIFT 00000006

Symbol: UART0_S1_TC_SHIFT
   Definitions
      At line 4105 in file MKL46Z4.s
   Uses
      None
Comment: UART0_S1_TC_SHIFT unused
UART0_S1_TDRE_MASK 00000080

Symbol: UART0_S1_TDRE_MASK
   Definitions
      At line 4102 in file MKL46Z4.s
   Uses
      At line 4110 in file test.s
Comment: UART0_S1_TDRE_MASK used once
UART0_S1_TDRE_SHIFT 00000007

Symbol: UART0_S1_TDRE_SHIFT
   Definitions
      At line 4103 in file MKL46Z4.s
   Uses
      None
Comment: UART0_S1_TDRE_SHIFT unused
UART0_S2 4006A005

Symbol: UART0_S2
   Definitions
      At line 3911 in file MKL46Z4.s
   Uses
      None
Comment: UART0_S2 unused
UART0_S2_BRK13_MASK 00000004

Symbol: UART0_S2_BRK13_MASK
   Definitions
      At line 4138 in file MKL46Z4.s
   Uses
      None
Comment: UART0_S2_BRK13_MASK unused
UART0_S2_BRK13_SHIFT 00000002

Symbol: UART0_S2_BRK13_SHIFT
   Definitions
      At line 4139 in file MKL46Z4.s
   Uses
      None
Comment: UART0_S2_BRK13_SHIFT unused
UART0_S2_LBKDE_MASK 00000002



ARM Macro Assembler    Page 401 Alphabetic symbol ordering
Absolute symbols


Symbol: UART0_S2_LBKDE_MASK
   Definitions
      At line 4140 in file MKL46Z4.s
   Uses
      None
Comment: UART0_S2_LBKDE_MASK unused
UART0_S2_LBKDE_SHIFT 00000001

Symbol: UART0_S2_LBKDE_SHIFT
   Definitions
      At line 4141 in file MKL46Z4.s
   Uses
      None
Comment: UART0_S2_LBKDE_SHIFT unused
UART0_S2_LBKDIF_MASK 00000080

Symbol: UART0_S2_LBKDIF_MASK
   Definitions
      At line 4128 in file MKL46Z4.s
   Uses
      None
Comment: UART0_S2_LBKDIF_MASK unused
UART0_S2_LBKDIF_SHIFT 00000007

Symbol: UART0_S2_LBKDIF_SHIFT
   Definitions
      At line 4129 in file MKL46Z4.s
   Uses
      None
Comment: UART0_S2_LBKDIF_SHIFT unused
UART0_S2_MSBF_MASK 00000020

Symbol: UART0_S2_MSBF_MASK
   Definitions
      At line 4132 in file MKL46Z4.s
   Uses
      None
Comment: UART0_S2_MSBF_MASK unused
UART0_S2_MSBF_SHIFT 00000005

Symbol: UART0_S2_MSBF_SHIFT
   Definitions
      At line 4133 in file MKL46Z4.s
   Uses
      None
Comment: UART0_S2_MSBF_SHIFT unused
UART0_S2_NO_RXINV_BRK10_NO_LBKDETECT_CLEAR_FLAGS 000000C0

Symbol: UART0_S2_NO_RXINV_BRK10_NO_LBKDETECT_CLEAR_FLAGS
   Definitions
      At line 163 in file test.s
   Uses
      At line 4091 in file test.s
Comment: UART0_S2_NO_RXINV_BRK10_NO_LBKDETECT_CLEAR_FLAGS used once
UART0_S2_OFFSET 00000005

Symbol: UART0_S2_OFFSET
   Definitions



ARM Macro Assembler    Page 402 Alphabetic symbol ordering
Absolute symbols

      At line 3899 in file MKL46Z4.s
   Uses
      At line 3911 in file MKL46Z4.s
      At line 4092 in file test.s

UART0_S2_RAF_MASK 00000001

Symbol: UART0_S2_RAF_MASK
   Definitions
      At line 4142 in file MKL46Z4.s
   Uses
      None
Comment: UART0_S2_RAF_MASK unused
UART0_S2_RAF_SHIFT 00000000

Symbol: UART0_S2_RAF_SHIFT
   Definitions
      At line 4143 in file MKL46Z4.s
   Uses
      None
Comment: UART0_S2_RAF_SHIFT unused
UART0_S2_RWUID_MASK 00000008

Symbol: UART0_S2_RWUID_MASK
   Definitions
      At line 4136 in file MKL46Z4.s
   Uses
      None
Comment: UART0_S2_RWUID_MASK unused
UART0_S2_RWUID_SHIFT 00000003

Symbol: UART0_S2_RWUID_SHIFT
   Definitions
      At line 4137 in file MKL46Z4.s
   Uses
      None
Comment: UART0_S2_RWUID_SHIFT unused
UART0_S2_RXEDGIF_MASK 00000040

Symbol: UART0_S2_RXEDGIF_MASK
   Definitions
      At line 4130 in file MKL46Z4.s
   Uses
      None
Comment: UART0_S2_RXEDGIF_MASK unused
UART0_S2_RXEDGIF_SHIFT 00000006

Symbol: UART0_S2_RXEDGIF_SHIFT
   Definitions
      At line 4131 in file MKL46Z4.s
   Uses
      None
Comment: UART0_S2_RXEDGIF_SHIFT unused
UART0_S2_RXINV_MASK 00000010

Symbol: UART0_S2_RXINV_MASK
   Definitions
      At line 4134 in file MKL46Z4.s
   Uses



ARM Macro Assembler    Page 403 Alphabetic symbol ordering
Absolute symbols

      None
Comment: UART0_S2_RXINV_MASK unused
UART0_S2_RXINV_SHIFT 00000004

Symbol: UART0_S2_RXINV_SHIFT
   Definitions
      At line 4135 in file MKL46Z4.s
   Uses
      None
Comment: UART0_S2_RXINV_SHIFT unused
UART0_Vector 0000001C

Symbol: UART0_Vector
   Definitions
      At line 2806 in file MKL46Z4.s
   Uses
      None
Comment: UART0_Vector unused
UART1_BASE 4006B000

Symbol: UART1_BASE
   Definitions
      At line 4157 in file MKL46Z4.s
   Uses
      At line 4158 in file MKL46Z4.s
      At line 4159 in file MKL46Z4.s
      At line 4160 in file MKL46Z4.s
      At line 4161 in file MKL46Z4.s
      At line 4162 in file MKL46Z4.s
      At line 4163 in file MKL46Z4.s
      At line 4164 in file MKL46Z4.s
      At line 4165 in file MKL46Z4.s
      At line 4166 in file MKL46Z4.s

UART1_BDH 4006B000

Symbol: UART1_BDH
   Definitions
      At line 4158 in file MKL46Z4.s
   Uses
      None
Comment: UART1_BDH unused
UART1_BDL 4006B001

Symbol: UART1_BDL
   Definitions
      At line 4159 in file MKL46Z4.s
   Uses
      None
Comment: UART1_BDL unused
UART1_C1 4006B002

Symbol: UART1_C1
   Definitions
      At line 4160 in file MKL46Z4.s
   Uses
      None
Comment: UART1_C1 unused
UART1_C2 4006B003



ARM Macro Assembler    Page 404 Alphabetic symbol ordering
Absolute symbols


Symbol: UART1_C2
   Definitions
      At line 4161 in file MKL46Z4.s
   Uses
      None
Comment: UART1_C2 unused
UART1_C3 4006B006

Symbol: UART1_C3
   Definitions
      At line 4164 in file MKL46Z4.s
   Uses
      None
Comment: UART1_C3 unused
UART1_C4 4006B008

Symbol: UART1_C4
   Definitions
      At line 4166 in file MKL46Z4.s
   Uses
      None
Comment: UART1_C4 unused
UART1_D 4006B007

Symbol: UART1_D
   Definitions
      At line 4165 in file MKL46Z4.s
   Uses
      None
Comment: UART1_D unused
UART1_IPR E000E40C

Symbol: UART1_IPR
   Definitions
      At line 2653 in file MKL46Z4.s
   Uses
      None
Comment: UART1_IPR unused
UART1_IRQ 0000000D

Symbol: UART1_IRQ
   Definitions
      At line 2723 in file MKL46Z4.s
   Uses
      At line 2757 in file MKL46Z4.s
Comment: UART1_IRQ used once
UART1_IRQ_MASK 00002000

Symbol: UART1_IRQ_MASK
   Definitions
      At line 2757 in file MKL46Z4.s
   Uses
      None
Comment: UART1_IRQ_MASK unused
UART1_IRQn 0000000D

Symbol: UART1_IRQn
   Definitions



ARM Macro Assembler    Page 405 Alphabetic symbol ordering
Absolute symbols

      At line 136 in file MKL46Z4.s
   Uses
      None
Comment: UART1_IRQn unused
UART1_PRI_POS 0000000E

Symbol: UART1_PRI_POS
   Definitions
      At line 2689 in file MKL46Z4.s
   Uses
      None
Comment: UART1_PRI_POS unused
UART1_S1 4006B004

Symbol: UART1_S1
   Definitions
      At line 4162 in file MKL46Z4.s
   Uses
      None
Comment: UART1_S1 unused
UART1_S2 4006B005

Symbol: UART1_S2
   Definitions
      At line 4163 in file MKL46Z4.s
   Uses
      None
Comment: UART1_S2 unused
UART1_Vector 0000001D

Symbol: UART1_Vector
   Definitions
      At line 2807 in file MKL46Z4.s
   Uses
      None
Comment: UART1_Vector unused
UART2_BASE 4006C000

Symbol: UART2_BASE
   Definitions
      At line 4169 in file MKL46Z4.s
   Uses
      At line 4170 in file MKL46Z4.s
      At line 4171 in file MKL46Z4.s
      At line 4172 in file MKL46Z4.s
      At line 4173 in file MKL46Z4.s
      At line 4174 in file MKL46Z4.s
      At line 4175 in file MKL46Z4.s
      At line 4176 in file MKL46Z4.s
      At line 4177 in file MKL46Z4.s
      At line 4178 in file MKL46Z4.s

UART2_BDH 4006C000

Symbol: UART2_BDH
   Definitions
      At line 4170 in file MKL46Z4.s
   Uses
      None



ARM Macro Assembler    Page 406 Alphabetic symbol ordering
Absolute symbols

Comment: UART2_BDH unused
UART2_BDL 4006C001

Symbol: UART2_BDL
   Definitions
      At line 4171 in file MKL46Z4.s
   Uses
      None
Comment: UART2_BDL unused
UART2_C1 4006C002

Symbol: UART2_C1
   Definitions
      At line 4172 in file MKL46Z4.s
   Uses
      None
Comment: UART2_C1 unused
UART2_C2 4006C003

Symbol: UART2_C2
   Definitions
      At line 4173 in file MKL46Z4.s
   Uses
      None
Comment: UART2_C2 unused
UART2_C3 4006C006

Symbol: UART2_C3
   Definitions
      At line 4176 in file MKL46Z4.s
   Uses
      None
Comment: UART2_C3 unused
UART2_C4 4006C008

Symbol: UART2_C4
   Definitions
      At line 4178 in file MKL46Z4.s
   Uses
      None
Comment: UART2_C4 unused
UART2_D 4006C007

Symbol: UART2_D
   Definitions
      At line 4177 in file MKL46Z4.s
   Uses
      None
Comment: UART2_D unused
UART2_IPR E000E40C

Symbol: UART2_IPR
   Definitions
      At line 2654 in file MKL46Z4.s
   Uses
      None
Comment: UART2_IPR unused
UART2_IRQ 0000000E




ARM Macro Assembler    Page 407 Alphabetic symbol ordering
Absolute symbols

Symbol: UART2_IRQ
   Definitions
      At line 2724 in file MKL46Z4.s
   Uses
      At line 2758 in file MKL46Z4.s
Comment: UART2_IRQ used once
UART2_IRQ_MASK 00004000

Symbol: UART2_IRQ_MASK
   Definitions
      At line 2758 in file MKL46Z4.s
   Uses
      None
Comment: UART2_IRQ_MASK unused
UART2_IRQn 0000000E

Symbol: UART2_IRQn
   Definitions
      At line 137 in file MKL46Z4.s
   Uses
      None
Comment: UART2_IRQn unused
UART2_PRI_POS 00000016

Symbol: UART2_PRI_POS
   Definitions
      At line 2690 in file MKL46Z4.s
   Uses
      None
Comment: UART2_PRI_POS unused
UART2_S1 4006C004

Symbol: UART2_S1
   Definitions
      At line 4174 in file MKL46Z4.s
   Uses
      None
Comment: UART2_S1 unused
UART2_S2 4006C005

Symbol: UART2_S2
   Definitions
      At line 4175 in file MKL46Z4.s
   Uses
      None
Comment: UART2_S2 unused
UART2_Vector 0000001E

Symbol: UART2_Vector
   Definitions
      At line 2808 in file MKL46Z4.s
   Uses
      None
Comment: UART2_Vector unused
UART_BDH_LBKDIE_MASK 00000080

Symbol: UART_BDH_LBKDIE_MASK
   Definitions
      At line 4185 in file MKL46Z4.s



ARM Macro Assembler    Page 408 Alphabetic symbol ordering
Absolute symbols

   Uses
      None
Comment: UART_BDH_LBKDIE_MASK unused
UART_BDH_LBKDIE_SHIFT 00000007

Symbol: UART_BDH_LBKDIE_SHIFT
   Definitions
      At line 4186 in file MKL46Z4.s
   Uses
      None
Comment: UART_BDH_LBKDIE_SHIFT unused
UART_BDH_OFFSET 00000000

Symbol: UART_BDH_OFFSET
   Definitions
      At line 4146 in file MKL46Z4.s
   Uses
      At line 4158 in file MKL46Z4.s
      At line 4170 in file MKL46Z4.s

UART_BDH_RXEDGIE_MASK 00000040

Symbol: UART_BDH_RXEDGIE_MASK
   Definitions
      At line 4187 in file MKL46Z4.s
   Uses
      None
Comment: UART_BDH_RXEDGIE_MASK unused
UART_BDH_RXEDGIE_SHIFT 00000006

Symbol: UART_BDH_RXEDGIE_SHIFT
   Definitions
      At line 4188 in file MKL46Z4.s
   Uses
      None
Comment: UART_BDH_RXEDGIE_SHIFT unused
UART_BDH_SBNS_MASK 00000020

Symbol: UART_BDH_SBNS_MASK
   Definitions
      At line 4189 in file MKL46Z4.s
   Uses
      None
Comment: UART_BDH_SBNS_MASK unused
UART_BDH_SBNS_SHIFT 00000005

Symbol: UART_BDH_SBNS_SHIFT
   Definitions
      At line 4190 in file MKL46Z4.s
   Uses
      None
Comment: UART_BDH_SBNS_SHIFT unused
UART_BDH_SBR_MASK 0000001F

Symbol: UART_BDH_SBR_MASK
   Definitions
      At line 4191 in file MKL46Z4.s
   Uses
      None



ARM Macro Assembler    Page 409 Alphabetic symbol ordering
Absolute symbols

Comment: UART_BDH_SBR_MASK unused
UART_BDH_SBR_SHIFT 00000000

Symbol: UART_BDH_SBR_SHIFT
   Definitions
      At line 4192 in file MKL46Z4.s
   Uses
      None
Comment: UART_BDH_SBR_SHIFT unused
UART_BDL_OFFSET 00000001

Symbol: UART_BDL_OFFSET
   Definitions
      At line 4147 in file MKL46Z4.s
   Uses
      At line 4159 in file MKL46Z4.s
      At line 4171 in file MKL46Z4.s

UART_BDL_SBR_MASK 000000FF

Symbol: UART_BDL_SBR_MASK
   Definitions
      At line 4196 in file MKL46Z4.s
   Uses
      None
Comment: UART_BDL_SBR_MASK unused
UART_BDL_SBR_SHIFT 00000000

Symbol: UART_BDL_SBR_SHIFT
   Definitions
      At line 4197 in file MKL46Z4.s
   Uses
      None
Comment: UART_BDL_SBR_SHIFT unused
UART_C1_ILT_MASK 00000004

Symbol: UART_C1_ILT_MASK
   Definitions
      At line 4218 in file MKL46Z4.s
   Uses
      None
Comment: UART_C1_ILT_MASK unused
UART_C1_ILT_SHIFT 00000002

Symbol: UART_C1_ILT_SHIFT
   Definitions
      At line 4219 in file MKL46Z4.s
   Uses
      None
Comment: UART_C1_ILT_SHIFT unused
UART_C1_LOOPS_MASK 00000080

Symbol: UART_C1_LOOPS_MASK
   Definitions
      At line 4208 in file MKL46Z4.s
   Uses
      None
Comment: UART_C1_LOOPS_MASK unused
UART_C1_LOOPS_SHIFT 00000007



ARM Macro Assembler    Page 410 Alphabetic symbol ordering
Absolute symbols


Symbol: UART_C1_LOOPS_SHIFT
   Definitions
      At line 4209 in file MKL46Z4.s
   Uses
      None
Comment: UART_C1_LOOPS_SHIFT unused
UART_C1_M_MASK 00000010

Symbol: UART_C1_M_MASK
   Definitions
      At line 4214 in file MKL46Z4.s
   Uses
      None
Comment: UART_C1_M_MASK unused
UART_C1_M_SHIFT 00000004

Symbol: UART_C1_M_SHIFT
   Definitions
      At line 4215 in file MKL46Z4.s
   Uses
      None
Comment: UART_C1_M_SHIFT unused
UART_C1_OFFSET 00000002

Symbol: UART_C1_OFFSET
   Definitions
      At line 4148 in file MKL46Z4.s
   Uses
      At line 4160 in file MKL46Z4.s
      At line 4172 in file MKL46Z4.s

UART_C1_PE_MASK 00000002

Symbol: UART_C1_PE_MASK
   Definitions
      At line 4220 in file MKL46Z4.s
   Uses
      None
Comment: UART_C1_PE_MASK unused
UART_C1_PE_SHIFT 00000001

Symbol: UART_C1_PE_SHIFT
   Definitions
      At line 4221 in file MKL46Z4.s
   Uses
      None
Comment: UART_C1_PE_SHIFT unused
UART_C1_PT_MASK 00000001

Symbol: UART_C1_PT_MASK
   Definitions
      At line 4222 in file MKL46Z4.s
   Uses
      None
Comment: UART_C1_PT_MASK unused
UART_C1_PT_SHIFT 00000000

Symbol: UART_C1_PT_SHIFT



ARM Macro Assembler    Page 411 Alphabetic symbol ordering
Absolute symbols

   Definitions
      At line 4223 in file MKL46Z4.s
   Uses
      None
Comment: UART_C1_PT_SHIFT unused
UART_C1_RSRC_MASK 00000020

Symbol: UART_C1_RSRC_MASK
   Definitions
      At line 4212 in file MKL46Z4.s
   Uses
      None
Comment: UART_C1_RSRC_MASK unused
UART_C1_RSRC_SHIFT 00000005

Symbol: UART_C1_RSRC_SHIFT
   Definitions
      At line 4213 in file MKL46Z4.s
   Uses
      None
Comment: UART_C1_RSRC_SHIFT unused
UART_C1_UARTSWAI_MASK 00000040

Symbol: UART_C1_UARTSWAI_MASK
   Definitions
      At line 4210 in file MKL46Z4.s
   Uses
      None
Comment: UART_C1_UARTSWAI_MASK unused
UART_C1_UARTSWAI_SHIFT 00000006

Symbol: UART_C1_UARTSWAI_SHIFT
   Definitions
      At line 4211 in file MKL46Z4.s
   Uses
      None
Comment: UART_C1_UARTSWAI_SHIFT unused
UART_C1_WAKE_MASK 00000008

Symbol: UART_C1_WAKE_MASK
   Definitions
      At line 4216 in file MKL46Z4.s
   Uses
      None
Comment: UART_C1_WAKE_MASK unused
UART_C1_WAKE_SHIFT 00000003

Symbol: UART_C1_WAKE_SHIFT
   Definitions
      At line 4217 in file MKL46Z4.s
   Uses
      None
Comment: UART_C1_WAKE_SHIFT unused
UART_C2_ILIE_MASK 00000010

Symbol: UART_C2_ILIE_MASK
   Definitions
      At line 4240 in file MKL46Z4.s
   Uses



ARM Macro Assembler    Page 412 Alphabetic symbol ordering
Absolute symbols

      None
Comment: UART_C2_ILIE_MASK unused
UART_C2_ILIE_SHIFT 00000004

Symbol: UART_C2_ILIE_SHIFT
   Definitions
      At line 4241 in file MKL46Z4.s
   Uses
      None
Comment: UART_C2_ILIE_SHIFT unused
UART_C2_OFFSET 00000003

Symbol: UART_C2_OFFSET
   Definitions
      At line 4149 in file MKL46Z4.s
   Uses
      At line 4161 in file MKL46Z4.s
      At line 4173 in file MKL46Z4.s

UART_C2_RE_MASK 00000004

Symbol: UART_C2_RE_MASK
   Definitions
      At line 4244 in file MKL46Z4.s
   Uses
      None
Comment: UART_C2_RE_MASK unused
UART_C2_RE_SHIFT 00000002

Symbol: UART_C2_RE_SHIFT
   Definitions
      At line 4245 in file MKL46Z4.s
   Uses
      None
Comment: UART_C2_RE_SHIFT unused
UART_C2_RIE_MASK 00000020

Symbol: UART_C2_RIE_MASK
   Definitions
      At line 4238 in file MKL46Z4.s
   Uses
      None
Comment: UART_C2_RIE_MASK unused
UART_C2_RIE_SHIFT 00000005

Symbol: UART_C2_RIE_SHIFT
   Definitions
      At line 4239 in file MKL46Z4.s
   Uses
      None
Comment: UART_C2_RIE_SHIFT unused
UART_C2_RWU_MASK 00000002

Symbol: UART_C2_RWU_MASK
   Definitions
      At line 4246 in file MKL46Z4.s
   Uses
      None
Comment: UART_C2_RWU_MASK unused



ARM Macro Assembler    Page 413 Alphabetic symbol ordering
Absolute symbols

UART_C2_RWU_SHIFT 00000001

Symbol: UART_C2_RWU_SHIFT
   Definitions
      At line 4247 in file MKL46Z4.s
   Uses
      None
Comment: UART_C2_RWU_SHIFT unused
UART_C2_SBK_MASK 00000001

Symbol: UART_C2_SBK_MASK
   Definitions
      At line 4248 in file MKL46Z4.s
   Uses
      None
Comment: UART_C2_SBK_MASK unused
UART_C2_SBK_SHIFT 00000000

Symbol: UART_C2_SBK_SHIFT
   Definitions
      At line 4249 in file MKL46Z4.s
   Uses
      None
Comment: UART_C2_SBK_SHIFT unused
UART_C2_TCIE_MASK 00000040

Symbol: UART_C2_TCIE_MASK
   Definitions
      At line 4236 in file MKL46Z4.s
   Uses
      None
Comment: UART_C2_TCIE_MASK unused
UART_C2_TCIE_SHIFT 00000006

Symbol: UART_C2_TCIE_SHIFT
   Definitions
      At line 4237 in file MKL46Z4.s
   Uses
      None
Comment: UART_C2_TCIE_SHIFT unused
UART_C2_TE_MASK 00000008

Symbol: UART_C2_TE_MASK
   Definitions
      At line 4242 in file MKL46Z4.s
   Uses
      None
Comment: UART_C2_TE_MASK unused
UART_C2_TE_SHIFT 00000003

Symbol: UART_C2_TE_SHIFT
   Definitions
      At line 4243 in file MKL46Z4.s
   Uses
      None
Comment: UART_C2_TE_SHIFT unused
UART_C2_TIE_MASK 00000080

Symbol: UART_C2_TIE_MASK



ARM Macro Assembler    Page 414 Alphabetic symbol ordering
Absolute symbols

   Definitions
      At line 4234 in file MKL46Z4.s
   Uses
      None
Comment: UART_C2_TIE_MASK unused
UART_C2_TIE_SHIFT 00000007

Symbol: UART_C2_TIE_SHIFT
   Definitions
      At line 4235 in file MKL46Z4.s
   Uses
      None
Comment: UART_C2_TIE_SHIFT unused
UART_C3_FEIE_MASK 00000002

Symbol: UART_C3_FEIE_MASK
   Definitions
      At line 4272 in file MKL46Z4.s
   Uses
      None
Comment: UART_C3_FEIE_MASK unused
UART_C3_FEIE_SHIFT 00000001

Symbol: UART_C3_FEIE_SHIFT
   Definitions
      At line 4273 in file MKL46Z4.s
   Uses
      None
Comment: UART_C3_FEIE_SHIFT unused
UART_C3_NEIE_MASK 00000004

Symbol: UART_C3_NEIE_MASK
   Definitions
      At line 4270 in file MKL46Z4.s
   Uses
      None
Comment: UART_C3_NEIE_MASK unused
UART_C3_NEIE_SHIFT 00000002

Symbol: UART_C3_NEIE_SHIFT
   Definitions
      At line 4271 in file MKL46Z4.s
   Uses
      None
Comment: UART_C3_NEIE_SHIFT unused
UART_C3_OFFSET 00000006

Symbol: UART_C3_OFFSET
   Definitions
      At line 4152 in file MKL46Z4.s
   Uses
      At line 4164 in file MKL46Z4.s
      At line 4176 in file MKL46Z4.s

UART_C3_ORIE_MASK 00000008

Symbol: UART_C3_ORIE_MASK
   Definitions
      At line 4268 in file MKL46Z4.s



ARM Macro Assembler    Page 415 Alphabetic symbol ordering
Absolute symbols

   Uses
      None
Comment: UART_C3_ORIE_MASK unused
UART_C3_ORIE_SHIFT 00000003

Symbol: UART_C3_ORIE_SHIFT
   Definitions
      At line 4269 in file MKL46Z4.s
   Uses
      None
Comment: UART_C3_ORIE_SHIFT unused
UART_C3_PEIE_MASK 00000001

Symbol: UART_C3_PEIE_MASK
   Definitions
      At line 4274 in file MKL46Z4.s
   Uses
      None
Comment: UART_C3_PEIE_MASK unused
UART_C3_PEIE_SHIFT 00000000

Symbol: UART_C3_PEIE_SHIFT
   Definitions
      At line 4275 in file MKL46Z4.s
   Uses
      None
Comment: UART_C3_PEIE_SHIFT unused
UART_C3_R8_MASK 00000080

Symbol: UART_C3_R8_MASK
   Definitions
      At line 4260 in file MKL46Z4.s
   Uses
      None
Comment: UART_C3_R8_MASK unused
UART_C3_R8_SHIFT 00000007

Symbol: UART_C3_R8_SHIFT
   Definitions
      At line 4261 in file MKL46Z4.s
   Uses
      None
Comment: UART_C3_R8_SHIFT unused
UART_C3_T8_MASK 00000040

Symbol: UART_C3_T8_MASK
   Definitions
      At line 4262 in file MKL46Z4.s
   Uses
      None
Comment: UART_C3_T8_MASK unused
UART_C3_T8_SHIFT 00000006

Symbol: UART_C3_T8_SHIFT
   Definitions
      At line 4263 in file MKL46Z4.s
   Uses
      None
Comment: UART_C3_T8_SHIFT unused



ARM Macro Assembler    Page 416 Alphabetic symbol ordering
Absolute symbols

UART_C3_TXDIR_MASK 00000020

Symbol: UART_C3_TXDIR_MASK
   Definitions
      At line 4264 in file MKL46Z4.s
   Uses
      None
Comment: UART_C3_TXDIR_MASK unused
UART_C3_TXDIR_SHIFT 00000005

Symbol: UART_C3_TXDIR_SHIFT
   Definitions
      At line 4265 in file MKL46Z4.s
   Uses
      None
Comment: UART_C3_TXDIR_SHIFT unused
UART_C3_TXINV_MASK 00000010

Symbol: UART_C3_TXINV_MASK
   Definitions
      At line 4266 in file MKL46Z4.s
   Uses
      None
Comment: UART_C3_TXINV_MASK unused
UART_C3_TXINV_SHIFT 00000004

Symbol: UART_C3_TXINV_SHIFT
   Definitions
      At line 4267 in file MKL46Z4.s
   Uses
      None
Comment: UART_C3_TXINV_SHIFT unused
UART_C4_OFFSET 00000008

Symbol: UART_C4_OFFSET
   Definitions
      At line 4154 in file MKL46Z4.s
   Uses
      At line 4166 in file MKL46Z4.s
      At line 4178 in file MKL46Z4.s

UART_C4_RDMAS_MASK 00000020

Symbol: UART_C4_RDMAS_MASK
   Definitions
      At line 4286 in file MKL46Z4.s
   Uses
      None
Comment: UART_C4_RDMAS_MASK unused
UART_C4_RDMAS_SHIFT 00000005

Symbol: UART_C4_RDMAS_SHIFT
   Definitions
      At line 4287 in file MKL46Z4.s
   Uses
      None
Comment: UART_C4_RDMAS_SHIFT unused
UART_C4_TDMAS_MASK 00000080




ARM Macro Assembler    Page 417 Alphabetic symbol ordering
Absolute symbols

Symbol: UART_C4_TDMAS_MASK
   Definitions
      At line 4284 in file MKL46Z4.s
   Uses
      None
Comment: UART_C4_TDMAS_MASK unused
UART_C4_TDMAS_SHIFT 00000007

Symbol: UART_C4_TDMAS_SHIFT
   Definitions
      At line 4285 in file MKL46Z4.s
   Uses
      None
Comment: UART_C4_TDMAS_SHIFT unused
UART_D_OFFSET 00000007

Symbol: UART_D_OFFSET
   Definitions
      At line 4153 in file MKL46Z4.s
   Uses
      At line 4165 in file MKL46Z4.s
      At line 4177 in file MKL46Z4.s

UART_S1_FE_MASK 00000002

Symbol: UART_S1_FE_MASK
   Definitions
      At line 4310 in file MKL46Z4.s
   Uses
      None
Comment: UART_S1_FE_MASK unused
UART_S1_FE_SHIFT 00000001

Symbol: UART_S1_FE_SHIFT
   Definitions
      At line 4311 in file MKL46Z4.s
   Uses
      None
Comment: UART_S1_FE_SHIFT unused
UART_S1_IDLE_MASK 00000010

Symbol: UART_S1_IDLE_MASK
   Definitions
      At line 4304 in file MKL46Z4.s
   Uses
      None
Comment: UART_S1_IDLE_MASK unused
UART_S1_IDLE_SHIFT 00000004

Symbol: UART_S1_IDLE_SHIFT
   Definitions
      At line 4305 in file MKL46Z4.s
   Uses
      None
Comment: UART_S1_IDLE_SHIFT unused
UART_S1_NF_MASK 00000004

Symbol: UART_S1_NF_MASK
   Definitions



ARM Macro Assembler    Page 418 Alphabetic symbol ordering
Absolute symbols

      At line 4308 in file MKL46Z4.s
   Uses
      None
Comment: UART_S1_NF_MASK unused
UART_S1_NF_SHIFT 00000002

Symbol: UART_S1_NF_SHIFT
   Definitions
      At line 4309 in file MKL46Z4.s
   Uses
      None
Comment: UART_S1_NF_SHIFT unused
UART_S1_OFFSET 00000004

Symbol: UART_S1_OFFSET
   Definitions
      At line 4150 in file MKL46Z4.s
   Uses
      At line 4162 in file MKL46Z4.s
      At line 4174 in file MKL46Z4.s

UART_S1_OR_MASK 00000008

Symbol: UART_S1_OR_MASK
   Definitions
      At line 4306 in file MKL46Z4.s
   Uses
      None
Comment: UART_S1_OR_MASK unused
UART_S1_OR_SHIFT 00000003

Symbol: UART_S1_OR_SHIFT
   Definitions
      At line 4307 in file MKL46Z4.s
   Uses
      None
Comment: UART_S1_OR_SHIFT unused
UART_S1_PF_MASK 00000001

Symbol: UART_S1_PF_MASK
   Definitions
      At line 4312 in file MKL46Z4.s
   Uses
      None
Comment: UART_S1_PF_MASK unused
UART_S1_PF_SHIFT 00000000

Symbol: UART_S1_PF_SHIFT
   Definitions
      At line 4313 in file MKL46Z4.s
   Uses
      None
Comment: UART_S1_PF_SHIFT unused
UART_S1_RDRF_MASK 00000020

Symbol: UART_S1_RDRF_MASK
   Definitions
      At line 4302 in file MKL46Z4.s
   Uses



ARM Macro Assembler    Page 419 Alphabetic symbol ordering
Absolute symbols

      None
Comment: UART_S1_RDRF_MASK unused
UART_S1_RDRF_SHIFT 00000005

Symbol: UART_S1_RDRF_SHIFT
   Definitions
      At line 4303 in file MKL46Z4.s
   Uses
      None
Comment: UART_S1_RDRF_SHIFT unused
UART_S1_TC_MASK 00000040

Symbol: UART_S1_TC_MASK
   Definitions
      At line 4300 in file MKL46Z4.s
   Uses
      None
Comment: UART_S1_TC_MASK unused
UART_S1_TC_SHIFT 00000006

Symbol: UART_S1_TC_SHIFT
   Definitions
      At line 4301 in file MKL46Z4.s
   Uses
      None
Comment: UART_S1_TC_SHIFT unused
UART_S1_TDRE_MASK 00000080

Symbol: UART_S1_TDRE_MASK
   Definitions
      At line 4298 in file MKL46Z4.s
   Uses
      None
Comment: UART_S1_TDRE_MASK unused
UART_S1_TDRE_SHIFT 00000007

Symbol: UART_S1_TDRE_SHIFT
   Definitions
      At line 4299 in file MKL46Z4.s
   Uses
      None
Comment: UART_S1_TDRE_SHIFT unused
UART_S2_BRK13_MASK 00000004

Symbol: UART_S2_BRK13_MASK
   Definitions
      At line 4332 in file MKL46Z4.s
   Uses
      None
Comment: UART_S2_BRK13_MASK unused
UART_S2_BRK13_SHIFT 00000002

Symbol: UART_S2_BRK13_SHIFT
   Definitions
      At line 4333 in file MKL46Z4.s
   Uses
      None
Comment: UART_S2_BRK13_SHIFT unused
UART_S2_LBKDE_MASK 00000002



ARM Macro Assembler    Page 420 Alphabetic symbol ordering
Absolute symbols


Symbol: UART_S2_LBKDE_MASK
   Definitions
      At line 4334 in file MKL46Z4.s
   Uses
      None
Comment: UART_S2_LBKDE_MASK unused
UART_S2_LBKDE_SHIFT 00000001

Symbol: UART_S2_LBKDE_SHIFT
   Definitions
      At line 4335 in file MKL46Z4.s
   Uses
      None
Comment: UART_S2_LBKDE_SHIFT unused
UART_S2_LBKDIF_MASK 00000080

Symbol: UART_S2_LBKDIF_MASK
   Definitions
      At line 4324 in file MKL46Z4.s
   Uses
      None
Comment: UART_S2_LBKDIF_MASK unused
UART_S2_LBKDIF_SHIFT 00000007

Symbol: UART_S2_LBKDIF_SHIFT
   Definitions
      At line 4325 in file MKL46Z4.s
   Uses
      None
Comment: UART_S2_LBKDIF_SHIFT unused
UART_S2_OFFSET 00000005

Symbol: UART_S2_OFFSET
   Definitions
      At line 4151 in file MKL46Z4.s
   Uses
      At line 4163 in file MKL46Z4.s
      At line 4175 in file MKL46Z4.s

UART_S2_RAF_MASK 00000001

Symbol: UART_S2_RAF_MASK
   Definitions
      At line 4336 in file MKL46Z4.s
   Uses
      None
Comment: UART_S2_RAF_MASK unused
UART_S2_RAF_SHIFT 00000000

Symbol: UART_S2_RAF_SHIFT
   Definitions
      At line 4337 in file MKL46Z4.s
   Uses
      None
Comment: UART_S2_RAF_SHIFT unused
UART_S2_RWUID_MASK 00000008

Symbol: UART_S2_RWUID_MASK



ARM Macro Assembler    Page 421 Alphabetic symbol ordering
Absolute symbols

   Definitions
      At line 4330 in file MKL46Z4.s
   Uses
      None
Comment: UART_S2_RWUID_MASK unused
UART_S2_RWUID_SHIFT 00000003

Symbol: UART_S2_RWUID_SHIFT
   Definitions
      At line 4331 in file MKL46Z4.s
   Uses
      None
Comment: UART_S2_RWUID_SHIFT unused
UART_S2_RXEDGIF_MASK 00000040

Symbol: UART_S2_RXEDGIF_MASK
   Definitions
      At line 4326 in file MKL46Z4.s
   Uses
      None
Comment: UART_S2_RXEDGIF_MASK unused
UART_S2_RXEDGIF_SHIFT 00000006

Symbol: UART_S2_RXEDGIF_SHIFT
   Definitions
      At line 4327 in file MKL46Z4.s
   Uses
      None
Comment: UART_S2_RXEDGIF_SHIFT unused
UART_S2_RXINV_MASK 00000010

Symbol: UART_S2_RXINV_MASK
   Definitions
      At line 4328 in file MKL46Z4.s
   Uses
      None
Comment: UART_S2_RXINV_MASK unused
UART_S2_RXINV_SHIFT 00000004

Symbol: UART_S2_RXINV_SHIFT
   Definitions
      At line 4329 in file MKL46Z4.s
   Uses
      None
Comment: UART_S2_RXINV_SHIFT unused
USB0_IPR E000E418

Symbol: USB0_IPR
   Definitions
      At line 2664 in file MKL46Z4.s
   Uses
      None
Comment: USB0_IPR unused
USB0_IRQ 00000018

Symbol: USB0_IRQ
   Definitions
      At line 2734 in file MKL46Z4.s
   Uses



ARM Macro Assembler    Page 422 Alphabetic symbol ordering
Absolute symbols

      At line 2768 in file MKL46Z4.s
Comment: USB0_IRQ used once
USB0_IRQ_MASK 01000000

Symbol: USB0_IRQ_MASK
   Definitions
      At line 2768 in file MKL46Z4.s
   Uses
      None
Comment: USB0_IRQ_MASK unused
USB0_IRQn 00000018

Symbol: USB0_IRQn
   Definitions
      At line 147 in file MKL46Z4.s
   Uses
      None
Comment: USB0_IRQn unused
USB0_PRI_POS 00000006

Symbol: USB0_PRI_POS
   Definitions
      At line 2700 in file MKL46Z4.s
   Uses
      None
Comment: USB0_PRI_POS unused
USB0_Vector 00000028

Symbol: USB0_Vector
   Definitions
      At line 2818 in file MKL46Z4.s
   Uses
      None
Comment: USB0_Vector unused
VECTOR_SIZE 00000004

Symbol: VECTOR_SIZE
   Definitions
      At line 40 in file MKL46Z4.s
   Uses
      None
Comment: VECTOR_SIZE unused
VECTOR_TABLE_SIZE 000000C0

Symbol: VECTOR_TABLE_SIZE
   Definitions
      At line 39 in file MKL46Z4.s
   Uses
      None
Comment: VECTOR_TABLE_SIZE unused
WORD_SIZE 00000004

Symbol: WORD_SIZE
   Definitions
      At line 29 in file MKL46Z4.s
   Uses
      None
Comment: WORD_SIZE unused
__CM0PLUS_REV 00000000



ARM Macro Assembler    Page 423 Alphabetic symbol ordering
Absolute symbols


Symbol: __CM0PLUS_REV
   Definitions
      At line 106 in file MKL46Z4.s
   Uses
      None
Comment: __CM0PLUS_REV unused
__MPU_PRESENT 00000000

Symbol: __MPU_PRESENT
   Definitions
      At line 107 in file MKL46Z4.s
   Uses
      None
Comment: __MPU_PRESENT unused
__NVIC_PRIO_BITS 00000002

Symbol: __NVIC_PRIO_BITS
   Definitions
      At line 108 in file MKL46Z4.s
   Uses
      None
Comment: __NVIC_PRIO_BITS unused
__VTOR_PRESENT 00000001

Symbol: __VTOR_PRESENT
   Definitions
      At line 111 in file MKL46Z4.s
   Uses
      None
Comment: __VTOR_PRESENT unused
__Vectors_Size 000000C0

Symbol: __Vectors_Size
   Definitions
      At line 4232 in file test.s
   Uses
      At line 4175 in file test.s
Comment: __Vectors_Size used once
__Vendor_SysTickConfig 00000000

Symbol: __Vendor_SysTickConfig
   Definitions
      At line 109 in file MKL46Z4.s
   Uses
      None
Comment: __Vendor_SysTickConfig unused
3043 symbols



ARM Macro Assembler    Page 1 Alphabetic symbol ordering
External symbols

Dummy_Handler 00000000

Symbol: Dummy_Handler
   Definitions
      At line 4177 in file test.s
   Uses
      At line 4183 in file test.s
      At line 4185 in file test.s
      At line 4186 in file test.s
      At line 4187 in file test.s
      At line 4188 in file test.s
      At line 4189 in file test.s
      At line 4190 in file test.s
      At line 4191 in file test.s
      At line 4192 in file test.s
      At line 4193 in file test.s
      At line 4194 in file test.s
      At line 4195 in file test.s
      At line 4197 in file test.s
      At line 4198 in file test.s
      At line 4199 in file test.s
      At line 4200 in file test.s
      At line 4201 in file test.s
      At line 4202 in file test.s
      At line 4203 in file test.s
      At line 4204 in file test.s
      At line 4206 in file test.s
      At line 4207 in file test.s
      At line 4208 in file test.s
      At line 4209 in file test.s
      At line 4210 in file test.s
      At line 4211 in file test.s
      At line 4212 in file test.s
      At line 4213 in file test.s
      At line 4214 in file test.s
      At line 4215 in file test.s
      At line 4216 in file test.s
      At line 4217 in file test.s
      At line 4218 in file test.s
      At line 4219 in file test.s
      At line 4220 in file test.s
      At line 4221 in file test.s
      At line 4222 in file test.s
      At line 4223 in file test.s
      At line 4224 in file test.s
      At line 4225 in file test.s
      At line 4226 in file test.s
      At line 4227 in file test.s
      At line 4228 in file test.s
      At line 4229 in file test.s
      At line 4230 in file test.s

HardFault_Handler 00000000

Symbol: HardFault_Handler
   Definitions
      At line 4178 in file test.s
   Uses
      At line 4184 in file test.s



ARM Macro Assembler    Page 2 Alphabetic symbol ordering
External symbols

Comment: HardFault_Handler used once
Startup 00000000

Symbol: Startup
   Definitions
      At line 171 in file test.s
   Uses
      At line 180 in file test.s
Comment: Startup used once
__initial_sp 00000000

Symbol: __initial_sp
   Definitions
      At line 4176 in file test.s
   Uses
      At line 4181 in file test.s
Comment: __initial_sp used once
4 symbols
4326 symbols in table
